
MidiLedController_sw_2.elf:     file format elf32-littlearm

Sections:
Idx Name          Size      VMA       LMA       File off  Algn
  0 .isr_vector   000000c0  08000000  08000000  00010000  2**0
                  CONTENTS, ALLOC, LOAD, READONLY, DATA
  1 .text         000042e4  080000c0  080000c0  000100c0  2**2
                  CONTENTS, ALLOC, LOAD, READONLY, CODE
  2 .rodata       000000b8  080043a4  080043a4  000143a4  2**2
                  CONTENTS, ALLOC, LOAD, READONLY, DATA
  3 .ARM.extab    00000000  0800445c  0800445c  00020080  2**0
                  CONTENTS
  4 .ARM          00000000  0800445c  0800445c  00020080  2**0
                  CONTENTS
  5 .preinit_array 00000000  0800445c  0800445c  00020080  2**0
                  CONTENTS, ALLOC, LOAD, DATA
  6 .init_array   00000004  0800445c  0800445c  0001445c  2**2
                  CONTENTS, ALLOC, LOAD, DATA
  7 .fini_array   00000004  08004460  08004460  00014460  2**2
                  CONTENTS, ALLOC, LOAD, DATA
  8 .data         00000080  20000000  08004464  00020000  2**2
                  CONTENTS, ALLOC, LOAD, DATA
  9 .bss          000000e8  20000080  080044e4  00020080  2**2
                  ALLOC
 10 ._user_heap_stack 00000600  20000168  080044e4  00020168  2**0
                  ALLOC
 11 .ARM.attributes 00000028  00000000  00000000  00020080  2**0
                  CONTENTS, READONLY
 12 .debug_info   000077c2  00000000  00000000  000200a8  2**0
                  CONTENTS, READONLY, DEBUGGING
 13 .debug_abbrev 000014dd  00000000  00000000  0002786a  2**0
                  CONTENTS, READONLY, DEBUGGING
 14 .debug_aranges 000008c8  00000000  00000000  00028d48  2**3
                  CONTENTS, READONLY, DEBUGGING
 15 .debug_ranges 00000800  00000000  00000000  00029610  2**3
                  CONTENTS, READONLY, DEBUGGING
 16 .debug_macro  0000e388  00000000  00000000  00029e10  2**0
                  CONTENTS, READONLY, DEBUGGING
 17 .debug_line   0000717d  00000000  00000000  00038198  2**0
                  CONTENTS, READONLY, DEBUGGING
 18 .debug_str    00052feb  00000000  00000000  0003f315  2**0
                  CONTENTS, READONLY, DEBUGGING
 19 .comment      0000007b  00000000  00000000  00092300  2**0
                  CONTENTS, READONLY
 20 .debug_frame  00002180  00000000  00000000  0009237c  2**2
                  CONTENTS, READONLY, DEBUGGING

Disassembly of section .text:

080000c0 <__do_global_dtors_aux>:
 80000c0:	b510      	push	{r4, lr}
 80000c2:	4c06      	ldr	r4, [pc, #24]	; (80000dc <__do_global_dtors_aux+0x1c>)
 80000c4:	7823      	ldrb	r3, [r4, #0]
 80000c6:	2b00      	cmp	r3, #0
 80000c8:	d107      	bne.n	80000da <__do_global_dtors_aux+0x1a>
 80000ca:	4b05      	ldr	r3, [pc, #20]	; (80000e0 <__do_global_dtors_aux+0x20>)
 80000cc:	2b00      	cmp	r3, #0
 80000ce:	d002      	beq.n	80000d6 <__do_global_dtors_aux+0x16>
 80000d0:	4804      	ldr	r0, [pc, #16]	; (80000e4 <__do_global_dtors_aux+0x24>)
 80000d2:	e000      	b.n	80000d6 <__do_global_dtors_aux+0x16>
 80000d4:	bf00      	nop
 80000d6:	2301      	movs	r3, #1
 80000d8:	7023      	strb	r3, [r4, #0]
 80000da:	bd10      	pop	{r4, pc}
 80000dc:	20000080 	.word	0x20000080
 80000e0:	00000000 	.word	0x00000000
 80000e4:	0800438c 	.word	0x0800438c

080000e8 <frame_dummy>:
 80000e8:	4b04      	ldr	r3, [pc, #16]	; (80000fc <frame_dummy+0x14>)
 80000ea:	b510      	push	{r4, lr}
 80000ec:	2b00      	cmp	r3, #0
 80000ee:	d003      	beq.n	80000f8 <frame_dummy+0x10>
 80000f0:	4903      	ldr	r1, [pc, #12]	; (8000100 <frame_dummy+0x18>)
 80000f2:	4804      	ldr	r0, [pc, #16]	; (8000104 <frame_dummy+0x1c>)
 80000f4:	e000      	b.n	80000f8 <frame_dummy+0x10>
 80000f6:	bf00      	nop
 80000f8:	bd10      	pop	{r4, pc}
 80000fa:	46c0      	nop			; (mov r8, r8)
 80000fc:	00000000 	.word	0x00000000
 8000100:	20000084 	.word	0x20000084
 8000104:	0800438c 	.word	0x0800438c

08000108 <__udivsi3>:
 8000108:	2200      	movs	r2, #0
 800010a:	0843      	lsrs	r3, r0, #1
 800010c:	428b      	cmp	r3, r1
 800010e:	d374      	bcc.n	80001fa <__udivsi3+0xf2>
 8000110:	0903      	lsrs	r3, r0, #4
 8000112:	428b      	cmp	r3, r1
 8000114:	d35f      	bcc.n	80001d6 <__udivsi3+0xce>
 8000116:	0a03      	lsrs	r3, r0, #8
 8000118:	428b      	cmp	r3, r1
 800011a:	d344      	bcc.n	80001a6 <__udivsi3+0x9e>
 800011c:	0b03      	lsrs	r3, r0, #12
 800011e:	428b      	cmp	r3, r1
 8000120:	d328      	bcc.n	8000174 <__udivsi3+0x6c>
 8000122:	0c03      	lsrs	r3, r0, #16
 8000124:	428b      	cmp	r3, r1
 8000126:	d30d      	bcc.n	8000144 <__udivsi3+0x3c>
 8000128:	22ff      	movs	r2, #255	; 0xff
 800012a:	0209      	lsls	r1, r1, #8
 800012c:	ba12      	rev	r2, r2
 800012e:	0c03      	lsrs	r3, r0, #16
 8000130:	428b      	cmp	r3, r1
 8000132:	d302      	bcc.n	800013a <__udivsi3+0x32>
 8000134:	1212      	asrs	r2, r2, #8
 8000136:	0209      	lsls	r1, r1, #8
 8000138:	d065      	beq.n	8000206 <__udivsi3+0xfe>
 800013a:	0b03      	lsrs	r3, r0, #12
 800013c:	428b      	cmp	r3, r1
 800013e:	d319      	bcc.n	8000174 <__udivsi3+0x6c>
 8000140:	e000      	b.n	8000144 <__udivsi3+0x3c>
 8000142:	0a09      	lsrs	r1, r1, #8
 8000144:	0bc3      	lsrs	r3, r0, #15
 8000146:	428b      	cmp	r3, r1
 8000148:	d301      	bcc.n	800014e <__udivsi3+0x46>
 800014a:	03cb      	lsls	r3, r1, #15
 800014c:	1ac0      	subs	r0, r0, r3
 800014e:	4152      	adcs	r2, r2
 8000150:	0b83      	lsrs	r3, r0, #14
 8000152:	428b      	cmp	r3, r1
 8000154:	d301      	bcc.n	800015a <__udivsi3+0x52>
 8000156:	038b      	lsls	r3, r1, #14
 8000158:	1ac0      	subs	r0, r0, r3
 800015a:	4152      	adcs	r2, r2
 800015c:	0b43      	lsrs	r3, r0, #13
 800015e:	428b      	cmp	r3, r1
 8000160:	d301      	bcc.n	8000166 <__udivsi3+0x5e>
 8000162:	034b      	lsls	r3, r1, #13
 8000164:	1ac0      	subs	r0, r0, r3
 8000166:	4152      	adcs	r2, r2
 8000168:	0b03      	lsrs	r3, r0, #12
 800016a:	428b      	cmp	r3, r1
 800016c:	d301      	bcc.n	8000172 <__udivsi3+0x6a>
 800016e:	030b      	lsls	r3, r1, #12
 8000170:	1ac0      	subs	r0, r0, r3
 8000172:	4152      	adcs	r2, r2
 8000174:	0ac3      	lsrs	r3, r0, #11
 8000176:	428b      	cmp	r3, r1
 8000178:	d301      	bcc.n	800017e <__udivsi3+0x76>
 800017a:	02cb      	lsls	r3, r1, #11
 800017c:	1ac0      	subs	r0, r0, r3
 800017e:	4152      	adcs	r2, r2
 8000180:	0a83      	lsrs	r3, r0, #10
 8000182:	428b      	cmp	r3, r1
 8000184:	d301      	bcc.n	800018a <__udivsi3+0x82>
 8000186:	028b      	lsls	r3, r1, #10
 8000188:	1ac0      	subs	r0, r0, r3
 800018a:	4152      	adcs	r2, r2
 800018c:	0a43      	lsrs	r3, r0, #9
 800018e:	428b      	cmp	r3, r1
 8000190:	d301      	bcc.n	8000196 <__udivsi3+0x8e>
 8000192:	024b      	lsls	r3, r1, #9
 8000194:	1ac0      	subs	r0, r0, r3
 8000196:	4152      	adcs	r2, r2
 8000198:	0a03      	lsrs	r3, r0, #8
 800019a:	428b      	cmp	r3, r1
 800019c:	d301      	bcc.n	80001a2 <__udivsi3+0x9a>
 800019e:	020b      	lsls	r3, r1, #8
 80001a0:	1ac0      	subs	r0, r0, r3
 80001a2:	4152      	adcs	r2, r2
 80001a4:	d2cd      	bcs.n	8000142 <__udivsi3+0x3a>
 80001a6:	09c3      	lsrs	r3, r0, #7
 80001a8:	428b      	cmp	r3, r1
 80001aa:	d301      	bcc.n	80001b0 <__udivsi3+0xa8>
 80001ac:	01cb      	lsls	r3, r1, #7
 80001ae:	1ac0      	subs	r0, r0, r3
 80001b0:	4152      	adcs	r2, r2
 80001b2:	0983      	lsrs	r3, r0, #6
 80001b4:	428b      	cmp	r3, r1
 80001b6:	d301      	bcc.n	80001bc <__udivsi3+0xb4>
 80001b8:	018b      	lsls	r3, r1, #6
 80001ba:	1ac0      	subs	r0, r0, r3
 80001bc:	4152      	adcs	r2, r2
 80001be:	0943      	lsrs	r3, r0, #5
 80001c0:	428b      	cmp	r3, r1
 80001c2:	d301      	bcc.n	80001c8 <__udivsi3+0xc0>
 80001c4:	014b      	lsls	r3, r1, #5
 80001c6:	1ac0      	subs	r0, r0, r3
 80001c8:	4152      	adcs	r2, r2
 80001ca:	0903      	lsrs	r3, r0, #4
 80001cc:	428b      	cmp	r3, r1
 80001ce:	d301      	bcc.n	80001d4 <__udivsi3+0xcc>
 80001d0:	010b      	lsls	r3, r1, #4
 80001d2:	1ac0      	subs	r0, r0, r3
 80001d4:	4152      	adcs	r2, r2
 80001d6:	08c3      	lsrs	r3, r0, #3
 80001d8:	428b      	cmp	r3, r1
 80001da:	d301      	bcc.n	80001e0 <__udivsi3+0xd8>
 80001dc:	00cb      	lsls	r3, r1, #3
 80001de:	1ac0      	subs	r0, r0, r3
 80001e0:	4152      	adcs	r2, r2
 80001e2:	0883      	lsrs	r3, r0, #2
 80001e4:	428b      	cmp	r3, r1
 80001e6:	d301      	bcc.n	80001ec <__udivsi3+0xe4>
 80001e8:	008b      	lsls	r3, r1, #2
 80001ea:	1ac0      	subs	r0, r0, r3
 80001ec:	4152      	adcs	r2, r2
 80001ee:	0843      	lsrs	r3, r0, #1
 80001f0:	428b      	cmp	r3, r1
 80001f2:	d301      	bcc.n	80001f8 <__udivsi3+0xf0>
 80001f4:	004b      	lsls	r3, r1, #1
 80001f6:	1ac0      	subs	r0, r0, r3
 80001f8:	4152      	adcs	r2, r2
 80001fa:	1a41      	subs	r1, r0, r1
 80001fc:	d200      	bcs.n	8000200 <__udivsi3+0xf8>
 80001fe:	4601      	mov	r1, r0
 8000200:	4152      	adcs	r2, r2
 8000202:	4610      	mov	r0, r2
 8000204:	4770      	bx	lr
 8000206:	e7ff      	b.n	8000208 <__udivsi3+0x100>
 8000208:	b501      	push	{r0, lr}
 800020a:	2000      	movs	r0, #0
 800020c:	f000 f806 	bl	800021c <__aeabi_idiv0>
 8000210:	bd02      	pop	{r1, pc}
 8000212:	46c0      	nop			; (mov r8, r8)

08000214 <__aeabi_uidivmod>:
 8000214:	2900      	cmp	r1, #0
 8000216:	d0f7      	beq.n	8000208 <__udivsi3+0x100>
 8000218:	e776      	b.n	8000108 <__udivsi3>
 800021a:	4770      	bx	lr

0800021c <__aeabi_idiv0>:
 800021c:	4770      	bx	lr
 800021e:	46c0      	nop			; (mov r8, r8)

08000220 <__aeabi_cdrcmple>:
 8000220:	4684      	mov	ip, r0
 8000222:	1c10      	adds	r0, r2, #0
 8000224:	4662      	mov	r2, ip
 8000226:	468c      	mov	ip, r1
 8000228:	1c19      	adds	r1, r3, #0
 800022a:	4663      	mov	r3, ip
 800022c:	e000      	b.n	8000230 <__aeabi_cdcmpeq>
 800022e:	46c0      	nop			; (mov r8, r8)

08000230 <__aeabi_cdcmpeq>:
 8000230:	b51f      	push	{r0, r1, r2, r3, r4, lr}
 8000232:	f000 ff0f 	bl	8001054 <__ledf2>
 8000236:	2800      	cmp	r0, #0
 8000238:	d401      	bmi.n	800023e <__aeabi_cdcmpeq+0xe>
 800023a:	2100      	movs	r1, #0
 800023c:	42c8      	cmn	r0, r1
 800023e:	bd1f      	pop	{r0, r1, r2, r3, r4, pc}

08000240 <__aeabi_dcmpeq>:
 8000240:	b510      	push	{r4, lr}
 8000242:	f000 fe67 	bl	8000f14 <__eqdf2>
 8000246:	4240      	negs	r0, r0
 8000248:	3001      	adds	r0, #1
 800024a:	bd10      	pop	{r4, pc}

0800024c <__aeabi_dcmplt>:
 800024c:	b510      	push	{r4, lr}
 800024e:	f000 ff01 	bl	8001054 <__ledf2>
 8000252:	2800      	cmp	r0, #0
 8000254:	db01      	blt.n	800025a <__aeabi_dcmplt+0xe>
 8000256:	2000      	movs	r0, #0
 8000258:	bd10      	pop	{r4, pc}
 800025a:	2001      	movs	r0, #1
 800025c:	bd10      	pop	{r4, pc}
 800025e:	46c0      	nop			; (mov r8, r8)

08000260 <__aeabi_dcmple>:
 8000260:	b510      	push	{r4, lr}
 8000262:	f000 fef7 	bl	8001054 <__ledf2>
 8000266:	2800      	cmp	r0, #0
 8000268:	dd01      	ble.n	800026e <__aeabi_dcmple+0xe>
 800026a:	2000      	movs	r0, #0
 800026c:	bd10      	pop	{r4, pc}
 800026e:	2001      	movs	r0, #1
 8000270:	bd10      	pop	{r4, pc}
 8000272:	46c0      	nop			; (mov r8, r8)

08000274 <__aeabi_dcmpgt>:
 8000274:	b510      	push	{r4, lr}
 8000276:	f000 fe89 	bl	8000f8c <__gedf2>
 800027a:	2800      	cmp	r0, #0
 800027c:	dc01      	bgt.n	8000282 <__aeabi_dcmpgt+0xe>
 800027e:	2000      	movs	r0, #0
 8000280:	bd10      	pop	{r4, pc}
 8000282:	2001      	movs	r0, #1
 8000284:	bd10      	pop	{r4, pc}
 8000286:	46c0      	nop			; (mov r8, r8)

08000288 <__aeabi_dcmpge>:
 8000288:	b510      	push	{r4, lr}
 800028a:	f000 fe7f 	bl	8000f8c <__gedf2>
 800028e:	2800      	cmp	r0, #0
 8000290:	da01      	bge.n	8000296 <__aeabi_dcmpge+0xe>
 8000292:	2000      	movs	r0, #0
 8000294:	bd10      	pop	{r4, pc}
 8000296:	2001      	movs	r0, #1
 8000298:	bd10      	pop	{r4, pc}
 800029a:	46c0      	nop			; (mov r8, r8)

0800029c <__aeabi_d2uiz>:
 800029c:	b570      	push	{r4, r5, r6, lr}
 800029e:	2200      	movs	r2, #0
 80002a0:	4b0c      	ldr	r3, [pc, #48]	; (80002d4 <__aeabi_d2uiz+0x38>)
 80002a2:	0004      	movs	r4, r0
 80002a4:	000d      	movs	r5, r1
 80002a6:	f7ff ffef 	bl	8000288 <__aeabi_dcmpge>
 80002aa:	2800      	cmp	r0, #0
 80002ac:	d104      	bne.n	80002b8 <__aeabi_d2uiz+0x1c>
 80002ae:	0020      	movs	r0, r4
 80002b0:	0029      	movs	r1, r5
 80002b2:	f001 fd0d 	bl	8001cd0 <__aeabi_d2iz>
 80002b6:	bd70      	pop	{r4, r5, r6, pc}
 80002b8:	4b06      	ldr	r3, [pc, #24]	; (80002d4 <__aeabi_d2uiz+0x38>)
 80002ba:	2200      	movs	r2, #0
 80002bc:	0020      	movs	r0, r4
 80002be:	0029      	movs	r1, r5
 80002c0:	f001 f9a2 	bl	8001608 <__aeabi_dsub>
 80002c4:	f001 fd04 	bl	8001cd0 <__aeabi_d2iz>
 80002c8:	2380      	movs	r3, #128	; 0x80
 80002ca:	061b      	lsls	r3, r3, #24
 80002cc:	469c      	mov	ip, r3
 80002ce:	4460      	add	r0, ip
 80002d0:	e7f1      	b.n	80002b6 <__aeabi_d2uiz+0x1a>
 80002d2:	46c0      	nop			; (mov r8, r8)
 80002d4:	41e00000 	.word	0x41e00000

080002d8 <__aeabi_dadd>:
 80002d8:	b5f0      	push	{r4, r5, r6, r7, lr}
 80002da:	464f      	mov	r7, r9
 80002dc:	4646      	mov	r6, r8
 80002de:	46d6      	mov	lr, sl
 80002e0:	000c      	movs	r4, r1
 80002e2:	0309      	lsls	r1, r1, #12
 80002e4:	b5c0      	push	{r6, r7, lr}
 80002e6:	0a49      	lsrs	r1, r1, #9
 80002e8:	0f47      	lsrs	r7, r0, #29
 80002ea:	005e      	lsls	r6, r3, #1
 80002ec:	4339      	orrs	r1, r7
 80002ee:	031f      	lsls	r7, r3, #12
 80002f0:	0fdb      	lsrs	r3, r3, #31
 80002f2:	469c      	mov	ip, r3
 80002f4:	0065      	lsls	r5, r4, #1
 80002f6:	0a7b      	lsrs	r3, r7, #9
 80002f8:	0f57      	lsrs	r7, r2, #29
 80002fa:	431f      	orrs	r7, r3
 80002fc:	0d6d      	lsrs	r5, r5, #21
 80002fe:	0fe4      	lsrs	r4, r4, #31
 8000300:	0d76      	lsrs	r6, r6, #21
 8000302:	46a1      	mov	r9, r4
 8000304:	00c0      	lsls	r0, r0, #3
 8000306:	46b8      	mov	r8, r7
 8000308:	00d2      	lsls	r2, r2, #3
 800030a:	1bab      	subs	r3, r5, r6
 800030c:	4564      	cmp	r4, ip
 800030e:	d07b      	beq.n	8000408 <__aeabi_dadd+0x130>
 8000310:	2b00      	cmp	r3, #0
 8000312:	dd5f      	ble.n	80003d4 <__aeabi_dadd+0xfc>
 8000314:	2e00      	cmp	r6, #0
 8000316:	d000      	beq.n	800031a <__aeabi_dadd+0x42>
 8000318:	e0a4      	b.n	8000464 <__aeabi_dadd+0x18c>
 800031a:	003e      	movs	r6, r7
 800031c:	4316      	orrs	r6, r2
 800031e:	d100      	bne.n	8000322 <__aeabi_dadd+0x4a>
 8000320:	e112      	b.n	8000548 <__aeabi_dadd+0x270>
 8000322:	1e5e      	subs	r6, r3, #1
 8000324:	2e00      	cmp	r6, #0
 8000326:	d000      	beq.n	800032a <__aeabi_dadd+0x52>
 8000328:	e19e      	b.n	8000668 <__aeabi_dadd+0x390>
 800032a:	1a87      	subs	r7, r0, r2
 800032c:	4643      	mov	r3, r8
 800032e:	42b8      	cmp	r0, r7
 8000330:	4180      	sbcs	r0, r0
 8000332:	2501      	movs	r5, #1
 8000334:	1ac9      	subs	r1, r1, r3
 8000336:	4240      	negs	r0, r0
 8000338:	1a09      	subs	r1, r1, r0
 800033a:	020b      	lsls	r3, r1, #8
 800033c:	d400      	bmi.n	8000340 <__aeabi_dadd+0x68>
 800033e:	e131      	b.n	80005a4 <__aeabi_dadd+0x2cc>
 8000340:	0249      	lsls	r1, r1, #9
 8000342:	0a4e      	lsrs	r6, r1, #9
 8000344:	2e00      	cmp	r6, #0
 8000346:	d100      	bne.n	800034a <__aeabi_dadd+0x72>
 8000348:	e16e      	b.n	8000628 <__aeabi_dadd+0x350>
 800034a:	0030      	movs	r0, r6
 800034c:	f001 fd28 	bl	8001da0 <__clzsi2>
 8000350:	0003      	movs	r3, r0
 8000352:	3b08      	subs	r3, #8
 8000354:	2b1f      	cmp	r3, #31
 8000356:	dd00      	ble.n	800035a <__aeabi_dadd+0x82>
 8000358:	e161      	b.n	800061e <__aeabi_dadd+0x346>
 800035a:	2220      	movs	r2, #32
 800035c:	0039      	movs	r1, r7
 800035e:	1ad2      	subs	r2, r2, r3
 8000360:	409e      	lsls	r6, r3
 8000362:	40d1      	lsrs	r1, r2
 8000364:	409f      	lsls	r7, r3
 8000366:	430e      	orrs	r6, r1
 8000368:	429d      	cmp	r5, r3
 800036a:	dd00      	ble.n	800036e <__aeabi_dadd+0x96>
 800036c:	e151      	b.n	8000612 <__aeabi_dadd+0x33a>
 800036e:	1b5d      	subs	r5, r3, r5
 8000370:	1c6b      	adds	r3, r5, #1
 8000372:	2b1f      	cmp	r3, #31
 8000374:	dd00      	ble.n	8000378 <__aeabi_dadd+0xa0>
 8000376:	e17c      	b.n	8000672 <__aeabi_dadd+0x39a>
 8000378:	2120      	movs	r1, #32
 800037a:	1ac9      	subs	r1, r1, r3
 800037c:	003d      	movs	r5, r7
 800037e:	0030      	movs	r0, r6
 8000380:	408f      	lsls	r7, r1
 8000382:	4088      	lsls	r0, r1
 8000384:	40dd      	lsrs	r5, r3
 8000386:	1e79      	subs	r1, r7, #1
 8000388:	418f      	sbcs	r7, r1
 800038a:	0031      	movs	r1, r6
 800038c:	2207      	movs	r2, #7
 800038e:	4328      	orrs	r0, r5
 8000390:	40d9      	lsrs	r1, r3
 8000392:	2500      	movs	r5, #0
 8000394:	4307      	orrs	r7, r0
 8000396:	403a      	ands	r2, r7
 8000398:	2a00      	cmp	r2, #0
 800039a:	d009      	beq.n	80003b0 <__aeabi_dadd+0xd8>
 800039c:	230f      	movs	r3, #15
 800039e:	403b      	ands	r3, r7
 80003a0:	2b04      	cmp	r3, #4
 80003a2:	d005      	beq.n	80003b0 <__aeabi_dadd+0xd8>
 80003a4:	1d3b      	adds	r3, r7, #4
 80003a6:	42bb      	cmp	r3, r7
 80003a8:	41bf      	sbcs	r7, r7
 80003aa:	427f      	negs	r7, r7
 80003ac:	19c9      	adds	r1, r1, r7
 80003ae:	001f      	movs	r7, r3
 80003b0:	020b      	lsls	r3, r1, #8
 80003b2:	d400      	bmi.n	80003b6 <__aeabi_dadd+0xde>
 80003b4:	e226      	b.n	8000804 <__aeabi_dadd+0x52c>
 80003b6:	1c6a      	adds	r2, r5, #1
 80003b8:	4bc6      	ldr	r3, [pc, #792]	; (80006d4 <__aeabi_dadd+0x3fc>)
 80003ba:	0555      	lsls	r5, r2, #21
 80003bc:	0d6d      	lsrs	r5, r5, #21
 80003be:	429a      	cmp	r2, r3
 80003c0:	d100      	bne.n	80003c4 <__aeabi_dadd+0xec>
 80003c2:	e106      	b.n	80005d2 <__aeabi_dadd+0x2fa>
 80003c4:	4ac4      	ldr	r2, [pc, #784]	; (80006d8 <__aeabi_dadd+0x400>)
 80003c6:	08ff      	lsrs	r7, r7, #3
 80003c8:	400a      	ands	r2, r1
 80003ca:	0753      	lsls	r3, r2, #29
 80003cc:	0252      	lsls	r2, r2, #9
 80003ce:	433b      	orrs	r3, r7
 80003d0:	0b12      	lsrs	r2, r2, #12
 80003d2:	e08e      	b.n	80004f2 <__aeabi_dadd+0x21a>
 80003d4:	2b00      	cmp	r3, #0
 80003d6:	d000      	beq.n	80003da <__aeabi_dadd+0x102>
 80003d8:	e0b8      	b.n	800054c <__aeabi_dadd+0x274>
 80003da:	1c6b      	adds	r3, r5, #1
 80003dc:	055b      	lsls	r3, r3, #21
 80003de:	0d5b      	lsrs	r3, r3, #21
 80003e0:	2b01      	cmp	r3, #1
 80003e2:	dc00      	bgt.n	80003e6 <__aeabi_dadd+0x10e>
 80003e4:	e130      	b.n	8000648 <__aeabi_dadd+0x370>
 80003e6:	1a87      	subs	r7, r0, r2
 80003e8:	4643      	mov	r3, r8
 80003ea:	42b8      	cmp	r0, r7
 80003ec:	41b6      	sbcs	r6, r6
 80003ee:	1acb      	subs	r3, r1, r3
 80003f0:	4276      	negs	r6, r6
 80003f2:	1b9e      	subs	r6, r3, r6
 80003f4:	0233      	lsls	r3, r6, #8
 80003f6:	d500      	bpl.n	80003fa <__aeabi_dadd+0x122>
 80003f8:	e14c      	b.n	8000694 <__aeabi_dadd+0x3bc>
 80003fa:	003b      	movs	r3, r7
 80003fc:	4333      	orrs	r3, r6
 80003fe:	d1a1      	bne.n	8000344 <__aeabi_dadd+0x6c>
 8000400:	2200      	movs	r2, #0
 8000402:	2400      	movs	r4, #0
 8000404:	2500      	movs	r5, #0
 8000406:	e070      	b.n	80004ea <__aeabi_dadd+0x212>
 8000408:	2b00      	cmp	r3, #0
 800040a:	dc00      	bgt.n	800040e <__aeabi_dadd+0x136>
 800040c:	e0e5      	b.n	80005da <__aeabi_dadd+0x302>
 800040e:	2e00      	cmp	r6, #0
 8000410:	d100      	bne.n	8000414 <__aeabi_dadd+0x13c>
 8000412:	e083      	b.n	800051c <__aeabi_dadd+0x244>
 8000414:	4eaf      	ldr	r6, [pc, #700]	; (80006d4 <__aeabi_dadd+0x3fc>)
 8000416:	42b5      	cmp	r5, r6
 8000418:	d060      	beq.n	80004dc <__aeabi_dadd+0x204>
 800041a:	2680      	movs	r6, #128	; 0x80
 800041c:	0436      	lsls	r6, r6, #16
 800041e:	4337      	orrs	r7, r6
 8000420:	46b8      	mov	r8, r7
 8000422:	2b38      	cmp	r3, #56	; 0x38
 8000424:	dc00      	bgt.n	8000428 <__aeabi_dadd+0x150>
 8000426:	e13e      	b.n	80006a6 <__aeabi_dadd+0x3ce>
 8000428:	4643      	mov	r3, r8
 800042a:	4313      	orrs	r3, r2
 800042c:	001f      	movs	r7, r3
 800042e:	1e7a      	subs	r2, r7, #1
 8000430:	4197      	sbcs	r7, r2
 8000432:	183f      	adds	r7, r7, r0
 8000434:	4287      	cmp	r7, r0
 8000436:	4180      	sbcs	r0, r0
 8000438:	4240      	negs	r0, r0
 800043a:	1809      	adds	r1, r1, r0
 800043c:	020b      	lsls	r3, r1, #8
 800043e:	d400      	bmi.n	8000442 <__aeabi_dadd+0x16a>
 8000440:	e0b0      	b.n	80005a4 <__aeabi_dadd+0x2cc>
 8000442:	4ba4      	ldr	r3, [pc, #656]	; (80006d4 <__aeabi_dadd+0x3fc>)
 8000444:	3501      	adds	r5, #1
 8000446:	429d      	cmp	r5, r3
 8000448:	d100      	bne.n	800044c <__aeabi_dadd+0x174>
 800044a:	e0c3      	b.n	80005d4 <__aeabi_dadd+0x2fc>
 800044c:	4aa2      	ldr	r2, [pc, #648]	; (80006d8 <__aeabi_dadd+0x400>)
 800044e:	087b      	lsrs	r3, r7, #1
 8000450:	400a      	ands	r2, r1
 8000452:	2101      	movs	r1, #1
 8000454:	400f      	ands	r7, r1
 8000456:	431f      	orrs	r7, r3
 8000458:	0851      	lsrs	r1, r2, #1
 800045a:	07d3      	lsls	r3, r2, #31
 800045c:	2207      	movs	r2, #7
 800045e:	431f      	orrs	r7, r3
 8000460:	403a      	ands	r2, r7
 8000462:	e799      	b.n	8000398 <__aeabi_dadd+0xc0>
 8000464:	4e9b      	ldr	r6, [pc, #620]	; (80006d4 <__aeabi_dadd+0x3fc>)
 8000466:	42b5      	cmp	r5, r6
 8000468:	d038      	beq.n	80004dc <__aeabi_dadd+0x204>
 800046a:	2680      	movs	r6, #128	; 0x80
 800046c:	0436      	lsls	r6, r6, #16
 800046e:	4337      	orrs	r7, r6
 8000470:	46b8      	mov	r8, r7
 8000472:	2b38      	cmp	r3, #56	; 0x38
 8000474:	dd00      	ble.n	8000478 <__aeabi_dadd+0x1a0>
 8000476:	e0dc      	b.n	8000632 <__aeabi_dadd+0x35a>
 8000478:	2b1f      	cmp	r3, #31
 800047a:	dc00      	bgt.n	800047e <__aeabi_dadd+0x1a6>
 800047c:	e130      	b.n	80006e0 <__aeabi_dadd+0x408>
 800047e:	001e      	movs	r6, r3
 8000480:	4647      	mov	r7, r8
 8000482:	3e20      	subs	r6, #32
 8000484:	40f7      	lsrs	r7, r6
 8000486:	46bc      	mov	ip, r7
 8000488:	2b20      	cmp	r3, #32
 800048a:	d004      	beq.n	8000496 <__aeabi_dadd+0x1be>
 800048c:	2640      	movs	r6, #64	; 0x40
 800048e:	1af3      	subs	r3, r6, r3
 8000490:	4646      	mov	r6, r8
 8000492:	409e      	lsls	r6, r3
 8000494:	4332      	orrs	r2, r6
 8000496:	0017      	movs	r7, r2
 8000498:	4663      	mov	r3, ip
 800049a:	1e7a      	subs	r2, r7, #1
 800049c:	4197      	sbcs	r7, r2
 800049e:	431f      	orrs	r7, r3
 80004a0:	e0cc      	b.n	800063c <__aeabi_dadd+0x364>
 80004a2:	2b00      	cmp	r3, #0
 80004a4:	d100      	bne.n	80004a8 <__aeabi_dadd+0x1d0>
 80004a6:	e204      	b.n	80008b2 <__aeabi_dadd+0x5da>
 80004a8:	4643      	mov	r3, r8
 80004aa:	4313      	orrs	r3, r2
 80004ac:	d100      	bne.n	80004b0 <__aeabi_dadd+0x1d8>
 80004ae:	e159      	b.n	8000764 <__aeabi_dadd+0x48c>
 80004b0:	074b      	lsls	r3, r1, #29
 80004b2:	08c0      	lsrs	r0, r0, #3
 80004b4:	4318      	orrs	r0, r3
 80004b6:	2380      	movs	r3, #128	; 0x80
 80004b8:	08c9      	lsrs	r1, r1, #3
 80004ba:	031b      	lsls	r3, r3, #12
 80004bc:	4219      	tst	r1, r3
 80004be:	d008      	beq.n	80004d2 <__aeabi_dadd+0x1fa>
 80004c0:	4645      	mov	r5, r8
 80004c2:	08ed      	lsrs	r5, r5, #3
 80004c4:	421d      	tst	r5, r3
 80004c6:	d104      	bne.n	80004d2 <__aeabi_dadd+0x1fa>
 80004c8:	4643      	mov	r3, r8
 80004ca:	08d0      	lsrs	r0, r2, #3
 80004cc:	0759      	lsls	r1, r3, #29
 80004ce:	4308      	orrs	r0, r1
 80004d0:	0029      	movs	r1, r5
 80004d2:	0f42      	lsrs	r2, r0, #29
 80004d4:	00c9      	lsls	r1, r1, #3
 80004d6:	4d7f      	ldr	r5, [pc, #508]	; (80006d4 <__aeabi_dadd+0x3fc>)
 80004d8:	4311      	orrs	r1, r2
 80004da:	00c0      	lsls	r0, r0, #3
 80004dc:	074b      	lsls	r3, r1, #29
 80004de:	08ca      	lsrs	r2, r1, #3
 80004e0:	497c      	ldr	r1, [pc, #496]	; (80006d4 <__aeabi_dadd+0x3fc>)
 80004e2:	08c0      	lsrs	r0, r0, #3
 80004e4:	4303      	orrs	r3, r0
 80004e6:	428d      	cmp	r5, r1
 80004e8:	d068      	beq.n	80005bc <__aeabi_dadd+0x2e4>
 80004ea:	0312      	lsls	r2, r2, #12
 80004ec:	056d      	lsls	r5, r5, #21
 80004ee:	0b12      	lsrs	r2, r2, #12
 80004f0:	0d6d      	lsrs	r5, r5, #21
 80004f2:	2100      	movs	r1, #0
 80004f4:	0312      	lsls	r2, r2, #12
 80004f6:	0018      	movs	r0, r3
 80004f8:	0b13      	lsrs	r3, r2, #12
 80004fa:	0d0a      	lsrs	r2, r1, #20
 80004fc:	0512      	lsls	r2, r2, #20
 80004fe:	431a      	orrs	r2, r3
 8000500:	4b76      	ldr	r3, [pc, #472]	; (80006dc <__aeabi_dadd+0x404>)
 8000502:	052d      	lsls	r5, r5, #20
 8000504:	4013      	ands	r3, r2
 8000506:	432b      	orrs	r3, r5
 8000508:	005b      	lsls	r3, r3, #1
 800050a:	07e4      	lsls	r4, r4, #31
 800050c:	085b      	lsrs	r3, r3, #1
 800050e:	4323      	orrs	r3, r4
 8000510:	0019      	movs	r1, r3
 8000512:	bc1c      	pop	{r2, r3, r4}
 8000514:	4690      	mov	r8, r2
 8000516:	4699      	mov	r9, r3
 8000518:	46a2      	mov	sl, r4
 800051a:	bdf0      	pop	{r4, r5, r6, r7, pc}
 800051c:	003e      	movs	r6, r7
 800051e:	4316      	orrs	r6, r2
 8000520:	d012      	beq.n	8000548 <__aeabi_dadd+0x270>
 8000522:	1e5e      	subs	r6, r3, #1
 8000524:	2e00      	cmp	r6, #0
 8000526:	d000      	beq.n	800052a <__aeabi_dadd+0x252>
 8000528:	e100      	b.n	800072c <__aeabi_dadd+0x454>
 800052a:	1887      	adds	r7, r0, r2
 800052c:	4287      	cmp	r7, r0
 800052e:	4180      	sbcs	r0, r0
 8000530:	4441      	add	r1, r8
 8000532:	4240      	negs	r0, r0
 8000534:	1809      	adds	r1, r1, r0
 8000536:	2501      	movs	r5, #1
 8000538:	020b      	lsls	r3, r1, #8
 800053a:	d533      	bpl.n	80005a4 <__aeabi_dadd+0x2cc>
 800053c:	2502      	movs	r5, #2
 800053e:	e785      	b.n	800044c <__aeabi_dadd+0x174>
 8000540:	4664      	mov	r4, ip
 8000542:	0033      	movs	r3, r6
 8000544:	4641      	mov	r1, r8
 8000546:	0010      	movs	r0, r2
 8000548:	001d      	movs	r5, r3
 800054a:	e7c7      	b.n	80004dc <__aeabi_dadd+0x204>
 800054c:	2d00      	cmp	r5, #0
 800054e:	d000      	beq.n	8000552 <__aeabi_dadd+0x27a>
 8000550:	e0da      	b.n	8000708 <__aeabi_dadd+0x430>
 8000552:	000c      	movs	r4, r1
 8000554:	4304      	orrs	r4, r0
 8000556:	d0f3      	beq.n	8000540 <__aeabi_dadd+0x268>
 8000558:	1c5c      	adds	r4, r3, #1
 800055a:	d100      	bne.n	800055e <__aeabi_dadd+0x286>
 800055c:	e19f      	b.n	800089e <__aeabi_dadd+0x5c6>
 800055e:	4c5d      	ldr	r4, [pc, #372]	; (80006d4 <__aeabi_dadd+0x3fc>)
 8000560:	42a6      	cmp	r6, r4
 8000562:	d100      	bne.n	8000566 <__aeabi_dadd+0x28e>
 8000564:	e12f      	b.n	80007c6 <__aeabi_dadd+0x4ee>
 8000566:	43db      	mvns	r3, r3
 8000568:	2b38      	cmp	r3, #56	; 0x38
 800056a:	dd00      	ble.n	800056e <__aeabi_dadd+0x296>
 800056c:	e166      	b.n	800083c <__aeabi_dadd+0x564>
 800056e:	2b1f      	cmp	r3, #31
 8000570:	dd00      	ble.n	8000574 <__aeabi_dadd+0x29c>
 8000572:	e183      	b.n	800087c <__aeabi_dadd+0x5a4>
 8000574:	2420      	movs	r4, #32
 8000576:	0005      	movs	r5, r0
 8000578:	1ae4      	subs	r4, r4, r3
 800057a:	000f      	movs	r7, r1
 800057c:	40dd      	lsrs	r5, r3
 800057e:	40d9      	lsrs	r1, r3
 8000580:	40a0      	lsls	r0, r4
 8000582:	4643      	mov	r3, r8
 8000584:	40a7      	lsls	r7, r4
 8000586:	1a5b      	subs	r3, r3, r1
 8000588:	1e44      	subs	r4, r0, #1
 800058a:	41a0      	sbcs	r0, r4
 800058c:	4698      	mov	r8, r3
 800058e:	432f      	orrs	r7, r5
 8000590:	4338      	orrs	r0, r7
 8000592:	1a17      	subs	r7, r2, r0
 8000594:	42ba      	cmp	r2, r7
 8000596:	4192      	sbcs	r2, r2
 8000598:	4643      	mov	r3, r8
 800059a:	4252      	negs	r2, r2
 800059c:	1a99      	subs	r1, r3, r2
 800059e:	4664      	mov	r4, ip
 80005a0:	0035      	movs	r5, r6
 80005a2:	e6ca      	b.n	800033a <__aeabi_dadd+0x62>
 80005a4:	2207      	movs	r2, #7
 80005a6:	403a      	ands	r2, r7
 80005a8:	2a00      	cmp	r2, #0
 80005aa:	d000      	beq.n	80005ae <__aeabi_dadd+0x2d6>
 80005ac:	e6f6      	b.n	800039c <__aeabi_dadd+0xc4>
 80005ae:	074b      	lsls	r3, r1, #29
 80005b0:	08ca      	lsrs	r2, r1, #3
 80005b2:	4948      	ldr	r1, [pc, #288]	; (80006d4 <__aeabi_dadd+0x3fc>)
 80005b4:	08ff      	lsrs	r7, r7, #3
 80005b6:	433b      	orrs	r3, r7
 80005b8:	428d      	cmp	r5, r1
 80005ba:	d196      	bne.n	80004ea <__aeabi_dadd+0x212>
 80005bc:	0019      	movs	r1, r3
 80005be:	4311      	orrs	r1, r2
 80005c0:	d100      	bne.n	80005c4 <__aeabi_dadd+0x2ec>
 80005c2:	e19e      	b.n	8000902 <__aeabi_dadd+0x62a>
 80005c4:	2180      	movs	r1, #128	; 0x80
 80005c6:	0309      	lsls	r1, r1, #12
 80005c8:	430a      	orrs	r2, r1
 80005ca:	0312      	lsls	r2, r2, #12
 80005cc:	0b12      	lsrs	r2, r2, #12
 80005ce:	4d41      	ldr	r5, [pc, #260]	; (80006d4 <__aeabi_dadd+0x3fc>)
 80005d0:	e78f      	b.n	80004f2 <__aeabi_dadd+0x21a>
 80005d2:	0015      	movs	r5, r2
 80005d4:	2200      	movs	r2, #0
 80005d6:	2300      	movs	r3, #0
 80005d8:	e78b      	b.n	80004f2 <__aeabi_dadd+0x21a>
 80005da:	2b00      	cmp	r3, #0
 80005dc:	d000      	beq.n	80005e0 <__aeabi_dadd+0x308>
 80005de:	e0c7      	b.n	8000770 <__aeabi_dadd+0x498>
 80005e0:	1c6b      	adds	r3, r5, #1
 80005e2:	055f      	lsls	r7, r3, #21
 80005e4:	0d7f      	lsrs	r7, r7, #21
 80005e6:	2f01      	cmp	r7, #1
 80005e8:	dc00      	bgt.n	80005ec <__aeabi_dadd+0x314>
 80005ea:	e0f1      	b.n	80007d0 <__aeabi_dadd+0x4f8>
 80005ec:	4d39      	ldr	r5, [pc, #228]	; (80006d4 <__aeabi_dadd+0x3fc>)
 80005ee:	42ab      	cmp	r3, r5
 80005f0:	d100      	bne.n	80005f4 <__aeabi_dadd+0x31c>
 80005f2:	e0b9      	b.n	8000768 <__aeabi_dadd+0x490>
 80005f4:	1885      	adds	r5, r0, r2
 80005f6:	000a      	movs	r2, r1
 80005f8:	4285      	cmp	r5, r0
 80005fa:	4189      	sbcs	r1, r1
 80005fc:	4442      	add	r2, r8
 80005fe:	4249      	negs	r1, r1
 8000600:	1851      	adds	r1, r2, r1
 8000602:	2207      	movs	r2, #7
 8000604:	07cf      	lsls	r7, r1, #31
 8000606:	086d      	lsrs	r5, r5, #1
 8000608:	432f      	orrs	r7, r5
 800060a:	0849      	lsrs	r1, r1, #1
 800060c:	403a      	ands	r2, r7
 800060e:	001d      	movs	r5, r3
 8000610:	e6c2      	b.n	8000398 <__aeabi_dadd+0xc0>
 8000612:	2207      	movs	r2, #7
 8000614:	4930      	ldr	r1, [pc, #192]	; (80006d8 <__aeabi_dadd+0x400>)
 8000616:	1aed      	subs	r5, r5, r3
 8000618:	4031      	ands	r1, r6
 800061a:	403a      	ands	r2, r7
 800061c:	e6bc      	b.n	8000398 <__aeabi_dadd+0xc0>
 800061e:	003e      	movs	r6, r7
 8000620:	3828      	subs	r0, #40	; 0x28
 8000622:	4086      	lsls	r6, r0
 8000624:	2700      	movs	r7, #0
 8000626:	e69f      	b.n	8000368 <__aeabi_dadd+0x90>
 8000628:	0038      	movs	r0, r7
 800062a:	f001 fbb9 	bl	8001da0 <__clzsi2>
 800062e:	3020      	adds	r0, #32
 8000630:	e68e      	b.n	8000350 <__aeabi_dadd+0x78>
 8000632:	4643      	mov	r3, r8
 8000634:	4313      	orrs	r3, r2
 8000636:	001f      	movs	r7, r3
 8000638:	1e7a      	subs	r2, r7, #1
 800063a:	4197      	sbcs	r7, r2
 800063c:	1bc7      	subs	r7, r0, r7
 800063e:	42b8      	cmp	r0, r7
 8000640:	4180      	sbcs	r0, r0
 8000642:	4240      	negs	r0, r0
 8000644:	1a09      	subs	r1, r1, r0
 8000646:	e678      	b.n	800033a <__aeabi_dadd+0x62>
 8000648:	000e      	movs	r6, r1
 800064a:	003b      	movs	r3, r7
 800064c:	4306      	orrs	r6, r0
 800064e:	4313      	orrs	r3, r2
 8000650:	2d00      	cmp	r5, #0
 8000652:	d161      	bne.n	8000718 <__aeabi_dadd+0x440>
 8000654:	2e00      	cmp	r6, #0
 8000656:	d000      	beq.n	800065a <__aeabi_dadd+0x382>
 8000658:	e0f4      	b.n	8000844 <__aeabi_dadd+0x56c>
 800065a:	2b00      	cmp	r3, #0
 800065c:	d100      	bne.n	8000660 <__aeabi_dadd+0x388>
 800065e:	e11b      	b.n	8000898 <__aeabi_dadd+0x5c0>
 8000660:	4664      	mov	r4, ip
 8000662:	0039      	movs	r1, r7
 8000664:	0010      	movs	r0, r2
 8000666:	e739      	b.n	80004dc <__aeabi_dadd+0x204>
 8000668:	4f1a      	ldr	r7, [pc, #104]	; (80006d4 <__aeabi_dadd+0x3fc>)
 800066a:	42bb      	cmp	r3, r7
 800066c:	d07a      	beq.n	8000764 <__aeabi_dadd+0x48c>
 800066e:	0033      	movs	r3, r6
 8000670:	e6ff      	b.n	8000472 <__aeabi_dadd+0x19a>
 8000672:	0030      	movs	r0, r6
 8000674:	3d1f      	subs	r5, #31
 8000676:	40e8      	lsrs	r0, r5
 8000678:	2b20      	cmp	r3, #32
 800067a:	d003      	beq.n	8000684 <__aeabi_dadd+0x3ac>
 800067c:	2140      	movs	r1, #64	; 0x40
 800067e:	1acb      	subs	r3, r1, r3
 8000680:	409e      	lsls	r6, r3
 8000682:	4337      	orrs	r7, r6
 8000684:	1e7b      	subs	r3, r7, #1
 8000686:	419f      	sbcs	r7, r3
 8000688:	2207      	movs	r2, #7
 800068a:	4307      	orrs	r7, r0
 800068c:	403a      	ands	r2, r7
 800068e:	2100      	movs	r1, #0
 8000690:	2500      	movs	r5, #0
 8000692:	e789      	b.n	80005a8 <__aeabi_dadd+0x2d0>
 8000694:	1a17      	subs	r7, r2, r0
 8000696:	4643      	mov	r3, r8
 8000698:	42ba      	cmp	r2, r7
 800069a:	41b6      	sbcs	r6, r6
 800069c:	1a59      	subs	r1, r3, r1
 800069e:	4276      	negs	r6, r6
 80006a0:	1b8e      	subs	r6, r1, r6
 80006a2:	4664      	mov	r4, ip
 80006a4:	e64e      	b.n	8000344 <__aeabi_dadd+0x6c>
 80006a6:	2b1f      	cmp	r3, #31
 80006a8:	dd00      	ble.n	80006ac <__aeabi_dadd+0x3d4>
 80006aa:	e0ad      	b.n	8000808 <__aeabi_dadd+0x530>
 80006ac:	2620      	movs	r6, #32
 80006ae:	4647      	mov	r7, r8
 80006b0:	1af6      	subs	r6, r6, r3
 80006b2:	40b7      	lsls	r7, r6
 80006b4:	46b9      	mov	r9, r7
 80006b6:	0017      	movs	r7, r2
 80006b8:	46b2      	mov	sl, r6
 80006ba:	40df      	lsrs	r7, r3
 80006bc:	464e      	mov	r6, r9
 80006be:	433e      	orrs	r6, r7
 80006c0:	0037      	movs	r7, r6
 80006c2:	4656      	mov	r6, sl
 80006c4:	40b2      	lsls	r2, r6
 80006c6:	1e56      	subs	r6, r2, #1
 80006c8:	41b2      	sbcs	r2, r6
 80006ca:	4317      	orrs	r7, r2
 80006cc:	4642      	mov	r2, r8
 80006ce:	40da      	lsrs	r2, r3
 80006d0:	1889      	adds	r1, r1, r2
 80006d2:	e6ae      	b.n	8000432 <__aeabi_dadd+0x15a>
 80006d4:	000007ff 	.word	0x000007ff
 80006d8:	ff7fffff 	.word	0xff7fffff
 80006dc:	800fffff 	.word	0x800fffff
 80006e0:	2620      	movs	r6, #32
 80006e2:	4647      	mov	r7, r8
 80006e4:	1af6      	subs	r6, r6, r3
 80006e6:	40b7      	lsls	r7, r6
 80006e8:	46b9      	mov	r9, r7
 80006ea:	0017      	movs	r7, r2
 80006ec:	46b2      	mov	sl, r6
 80006ee:	40df      	lsrs	r7, r3
 80006f0:	464e      	mov	r6, r9
 80006f2:	433e      	orrs	r6, r7
 80006f4:	0037      	movs	r7, r6
 80006f6:	4656      	mov	r6, sl
 80006f8:	40b2      	lsls	r2, r6
 80006fa:	1e56      	subs	r6, r2, #1
 80006fc:	41b2      	sbcs	r2, r6
 80006fe:	4317      	orrs	r7, r2
 8000700:	4642      	mov	r2, r8
 8000702:	40da      	lsrs	r2, r3
 8000704:	1a89      	subs	r1, r1, r2
 8000706:	e799      	b.n	800063c <__aeabi_dadd+0x364>
 8000708:	4c7f      	ldr	r4, [pc, #508]	; (8000908 <__aeabi_dadd+0x630>)
 800070a:	42a6      	cmp	r6, r4
 800070c:	d05b      	beq.n	80007c6 <__aeabi_dadd+0x4ee>
 800070e:	2480      	movs	r4, #128	; 0x80
 8000710:	0424      	lsls	r4, r4, #16
 8000712:	425b      	negs	r3, r3
 8000714:	4321      	orrs	r1, r4
 8000716:	e727      	b.n	8000568 <__aeabi_dadd+0x290>
 8000718:	2e00      	cmp	r6, #0
 800071a:	d10c      	bne.n	8000736 <__aeabi_dadd+0x45e>
 800071c:	2b00      	cmp	r3, #0
 800071e:	d100      	bne.n	8000722 <__aeabi_dadd+0x44a>
 8000720:	e0cb      	b.n	80008ba <__aeabi_dadd+0x5e2>
 8000722:	4664      	mov	r4, ip
 8000724:	0039      	movs	r1, r7
 8000726:	0010      	movs	r0, r2
 8000728:	4d77      	ldr	r5, [pc, #476]	; (8000908 <__aeabi_dadd+0x630>)
 800072a:	e6d7      	b.n	80004dc <__aeabi_dadd+0x204>
 800072c:	4f76      	ldr	r7, [pc, #472]	; (8000908 <__aeabi_dadd+0x630>)
 800072e:	42bb      	cmp	r3, r7
 8000730:	d018      	beq.n	8000764 <__aeabi_dadd+0x48c>
 8000732:	0033      	movs	r3, r6
 8000734:	e675      	b.n	8000422 <__aeabi_dadd+0x14a>
 8000736:	2b00      	cmp	r3, #0
 8000738:	d014      	beq.n	8000764 <__aeabi_dadd+0x48c>
 800073a:	074b      	lsls	r3, r1, #29
 800073c:	08c0      	lsrs	r0, r0, #3
 800073e:	4318      	orrs	r0, r3
 8000740:	2380      	movs	r3, #128	; 0x80
 8000742:	08c9      	lsrs	r1, r1, #3
 8000744:	031b      	lsls	r3, r3, #12
 8000746:	4219      	tst	r1, r3
 8000748:	d007      	beq.n	800075a <__aeabi_dadd+0x482>
 800074a:	08fc      	lsrs	r4, r7, #3
 800074c:	421c      	tst	r4, r3
 800074e:	d104      	bne.n	800075a <__aeabi_dadd+0x482>
 8000750:	0779      	lsls	r1, r7, #29
 8000752:	08d0      	lsrs	r0, r2, #3
 8000754:	4308      	orrs	r0, r1
 8000756:	46e1      	mov	r9, ip
 8000758:	0021      	movs	r1, r4
 800075a:	464c      	mov	r4, r9
 800075c:	0f42      	lsrs	r2, r0, #29
 800075e:	00c9      	lsls	r1, r1, #3
 8000760:	4311      	orrs	r1, r2
 8000762:	00c0      	lsls	r0, r0, #3
 8000764:	4d68      	ldr	r5, [pc, #416]	; (8000908 <__aeabi_dadd+0x630>)
 8000766:	e6b9      	b.n	80004dc <__aeabi_dadd+0x204>
 8000768:	001d      	movs	r5, r3
 800076a:	2200      	movs	r2, #0
 800076c:	2300      	movs	r3, #0
 800076e:	e6c0      	b.n	80004f2 <__aeabi_dadd+0x21a>
 8000770:	2d00      	cmp	r5, #0
 8000772:	d15b      	bne.n	800082c <__aeabi_dadd+0x554>
 8000774:	000d      	movs	r5, r1
 8000776:	4305      	orrs	r5, r0
 8000778:	d100      	bne.n	800077c <__aeabi_dadd+0x4a4>
 800077a:	e6e2      	b.n	8000542 <__aeabi_dadd+0x26a>
 800077c:	1c5d      	adds	r5, r3, #1
 800077e:	d100      	bne.n	8000782 <__aeabi_dadd+0x4aa>
 8000780:	e0b0      	b.n	80008e4 <__aeabi_dadd+0x60c>
 8000782:	4d61      	ldr	r5, [pc, #388]	; (8000908 <__aeabi_dadd+0x630>)
 8000784:	42ae      	cmp	r6, r5
 8000786:	d01f      	beq.n	80007c8 <__aeabi_dadd+0x4f0>
 8000788:	43db      	mvns	r3, r3
 800078a:	2b38      	cmp	r3, #56	; 0x38
 800078c:	dc71      	bgt.n	8000872 <__aeabi_dadd+0x59a>
 800078e:	2b1f      	cmp	r3, #31
 8000790:	dd00      	ble.n	8000794 <__aeabi_dadd+0x4bc>
 8000792:	e096      	b.n	80008c2 <__aeabi_dadd+0x5ea>
 8000794:	2520      	movs	r5, #32
 8000796:	000f      	movs	r7, r1
 8000798:	1aed      	subs	r5, r5, r3
 800079a:	40af      	lsls	r7, r5
 800079c:	46b9      	mov	r9, r7
 800079e:	0007      	movs	r7, r0
 80007a0:	46aa      	mov	sl, r5
 80007a2:	40df      	lsrs	r7, r3
 80007a4:	464d      	mov	r5, r9
 80007a6:	433d      	orrs	r5, r7
 80007a8:	002f      	movs	r7, r5
 80007aa:	4655      	mov	r5, sl
 80007ac:	40a8      	lsls	r0, r5
 80007ae:	40d9      	lsrs	r1, r3
 80007b0:	1e45      	subs	r5, r0, #1
 80007b2:	41a8      	sbcs	r0, r5
 80007b4:	4488      	add	r8, r1
 80007b6:	4307      	orrs	r7, r0
 80007b8:	18bf      	adds	r7, r7, r2
 80007ba:	4297      	cmp	r7, r2
 80007bc:	4192      	sbcs	r2, r2
 80007be:	4251      	negs	r1, r2
 80007c0:	4441      	add	r1, r8
 80007c2:	0035      	movs	r5, r6
 80007c4:	e63a      	b.n	800043c <__aeabi_dadd+0x164>
 80007c6:	4664      	mov	r4, ip
 80007c8:	0035      	movs	r5, r6
 80007ca:	4641      	mov	r1, r8
 80007cc:	0010      	movs	r0, r2
 80007ce:	e685      	b.n	80004dc <__aeabi_dadd+0x204>
 80007d0:	000b      	movs	r3, r1
 80007d2:	4303      	orrs	r3, r0
 80007d4:	2d00      	cmp	r5, #0
 80007d6:	d000      	beq.n	80007da <__aeabi_dadd+0x502>
 80007d8:	e663      	b.n	80004a2 <__aeabi_dadd+0x1ca>
 80007da:	2b00      	cmp	r3, #0
 80007dc:	d0f5      	beq.n	80007ca <__aeabi_dadd+0x4f2>
 80007de:	4643      	mov	r3, r8
 80007e0:	4313      	orrs	r3, r2
 80007e2:	d100      	bne.n	80007e6 <__aeabi_dadd+0x50e>
 80007e4:	e67a      	b.n	80004dc <__aeabi_dadd+0x204>
 80007e6:	1887      	adds	r7, r0, r2
 80007e8:	4287      	cmp	r7, r0
 80007ea:	4180      	sbcs	r0, r0
 80007ec:	2207      	movs	r2, #7
 80007ee:	4441      	add	r1, r8
 80007f0:	4240      	negs	r0, r0
 80007f2:	1809      	adds	r1, r1, r0
 80007f4:	403a      	ands	r2, r7
 80007f6:	020b      	lsls	r3, r1, #8
 80007f8:	d400      	bmi.n	80007fc <__aeabi_dadd+0x524>
 80007fa:	e6d5      	b.n	80005a8 <__aeabi_dadd+0x2d0>
 80007fc:	4b43      	ldr	r3, [pc, #268]	; (800090c <__aeabi_dadd+0x634>)
 80007fe:	3501      	adds	r5, #1
 8000800:	4019      	ands	r1, r3
 8000802:	e5c9      	b.n	8000398 <__aeabi_dadd+0xc0>
 8000804:	0038      	movs	r0, r7
 8000806:	e669      	b.n	80004dc <__aeabi_dadd+0x204>
 8000808:	001e      	movs	r6, r3
 800080a:	4647      	mov	r7, r8
 800080c:	3e20      	subs	r6, #32
 800080e:	40f7      	lsrs	r7, r6
 8000810:	46bc      	mov	ip, r7
 8000812:	2b20      	cmp	r3, #32
 8000814:	d004      	beq.n	8000820 <__aeabi_dadd+0x548>
 8000816:	2640      	movs	r6, #64	; 0x40
 8000818:	1af3      	subs	r3, r6, r3
 800081a:	4646      	mov	r6, r8
 800081c:	409e      	lsls	r6, r3
 800081e:	4332      	orrs	r2, r6
 8000820:	0017      	movs	r7, r2
 8000822:	4663      	mov	r3, ip
 8000824:	1e7a      	subs	r2, r7, #1
 8000826:	4197      	sbcs	r7, r2
 8000828:	431f      	orrs	r7, r3
 800082a:	e602      	b.n	8000432 <__aeabi_dadd+0x15a>
 800082c:	4d36      	ldr	r5, [pc, #216]	; (8000908 <__aeabi_dadd+0x630>)
 800082e:	42ae      	cmp	r6, r5
 8000830:	d0ca      	beq.n	80007c8 <__aeabi_dadd+0x4f0>
 8000832:	2580      	movs	r5, #128	; 0x80
 8000834:	042d      	lsls	r5, r5, #16
 8000836:	425b      	negs	r3, r3
 8000838:	4329      	orrs	r1, r5
 800083a:	e7a6      	b.n	800078a <__aeabi_dadd+0x4b2>
 800083c:	4308      	orrs	r0, r1
 800083e:	1e41      	subs	r1, r0, #1
 8000840:	4188      	sbcs	r0, r1
 8000842:	e6a6      	b.n	8000592 <__aeabi_dadd+0x2ba>
 8000844:	2b00      	cmp	r3, #0
 8000846:	d100      	bne.n	800084a <__aeabi_dadd+0x572>
 8000848:	e648      	b.n	80004dc <__aeabi_dadd+0x204>
 800084a:	1a87      	subs	r7, r0, r2
 800084c:	4643      	mov	r3, r8
 800084e:	42b8      	cmp	r0, r7
 8000850:	41b6      	sbcs	r6, r6
 8000852:	1acb      	subs	r3, r1, r3
 8000854:	4276      	negs	r6, r6
 8000856:	1b9e      	subs	r6, r3, r6
 8000858:	0233      	lsls	r3, r6, #8
 800085a:	d54b      	bpl.n	80008f4 <__aeabi_dadd+0x61c>
 800085c:	1a17      	subs	r7, r2, r0
 800085e:	4643      	mov	r3, r8
 8000860:	42ba      	cmp	r2, r7
 8000862:	4192      	sbcs	r2, r2
 8000864:	1a59      	subs	r1, r3, r1
 8000866:	4252      	negs	r2, r2
 8000868:	1a89      	subs	r1, r1, r2
 800086a:	2207      	movs	r2, #7
 800086c:	4664      	mov	r4, ip
 800086e:	403a      	ands	r2, r7
 8000870:	e592      	b.n	8000398 <__aeabi_dadd+0xc0>
 8000872:	4301      	orrs	r1, r0
 8000874:	000f      	movs	r7, r1
 8000876:	1e79      	subs	r1, r7, #1
 8000878:	418f      	sbcs	r7, r1
 800087a:	e79d      	b.n	80007b8 <__aeabi_dadd+0x4e0>
 800087c:	001c      	movs	r4, r3
 800087e:	000f      	movs	r7, r1
 8000880:	3c20      	subs	r4, #32
 8000882:	40e7      	lsrs	r7, r4
 8000884:	2b20      	cmp	r3, #32
 8000886:	d003      	beq.n	8000890 <__aeabi_dadd+0x5b8>
 8000888:	2440      	movs	r4, #64	; 0x40
 800088a:	1ae3      	subs	r3, r4, r3
 800088c:	4099      	lsls	r1, r3
 800088e:	4308      	orrs	r0, r1
 8000890:	1e41      	subs	r1, r0, #1
 8000892:	4188      	sbcs	r0, r1
 8000894:	4338      	orrs	r0, r7
 8000896:	e67c      	b.n	8000592 <__aeabi_dadd+0x2ba>
 8000898:	2200      	movs	r2, #0
 800089a:	2400      	movs	r4, #0
 800089c:	e625      	b.n	80004ea <__aeabi_dadd+0x212>
 800089e:	1a17      	subs	r7, r2, r0
 80008a0:	4643      	mov	r3, r8
 80008a2:	42ba      	cmp	r2, r7
 80008a4:	4192      	sbcs	r2, r2
 80008a6:	1a59      	subs	r1, r3, r1
 80008a8:	4252      	negs	r2, r2
 80008aa:	1a89      	subs	r1, r1, r2
 80008ac:	4664      	mov	r4, ip
 80008ae:	0035      	movs	r5, r6
 80008b0:	e543      	b.n	800033a <__aeabi_dadd+0x62>
 80008b2:	4641      	mov	r1, r8
 80008b4:	0010      	movs	r0, r2
 80008b6:	4d14      	ldr	r5, [pc, #80]	; (8000908 <__aeabi_dadd+0x630>)
 80008b8:	e610      	b.n	80004dc <__aeabi_dadd+0x204>
 80008ba:	2280      	movs	r2, #128	; 0x80
 80008bc:	2400      	movs	r4, #0
 80008be:	0312      	lsls	r2, r2, #12
 80008c0:	e680      	b.n	80005c4 <__aeabi_dadd+0x2ec>
 80008c2:	001d      	movs	r5, r3
 80008c4:	000f      	movs	r7, r1
 80008c6:	3d20      	subs	r5, #32
 80008c8:	40ef      	lsrs	r7, r5
 80008ca:	46bc      	mov	ip, r7
 80008cc:	2b20      	cmp	r3, #32
 80008ce:	d003      	beq.n	80008d8 <__aeabi_dadd+0x600>
 80008d0:	2540      	movs	r5, #64	; 0x40
 80008d2:	1aeb      	subs	r3, r5, r3
 80008d4:	4099      	lsls	r1, r3
 80008d6:	4308      	orrs	r0, r1
 80008d8:	0007      	movs	r7, r0
 80008da:	4663      	mov	r3, ip
 80008dc:	1e78      	subs	r0, r7, #1
 80008de:	4187      	sbcs	r7, r0
 80008e0:	431f      	orrs	r7, r3
 80008e2:	e769      	b.n	80007b8 <__aeabi_dadd+0x4e0>
 80008e4:	1887      	adds	r7, r0, r2
 80008e6:	4297      	cmp	r7, r2
 80008e8:	419b      	sbcs	r3, r3
 80008ea:	4441      	add	r1, r8
 80008ec:	425b      	negs	r3, r3
 80008ee:	18c9      	adds	r1, r1, r3
 80008f0:	0035      	movs	r5, r6
 80008f2:	e5a3      	b.n	800043c <__aeabi_dadd+0x164>
 80008f4:	003b      	movs	r3, r7
 80008f6:	4333      	orrs	r3, r6
 80008f8:	d0ce      	beq.n	8000898 <__aeabi_dadd+0x5c0>
 80008fa:	2207      	movs	r2, #7
 80008fc:	0031      	movs	r1, r6
 80008fe:	403a      	ands	r2, r7
 8000900:	e652      	b.n	80005a8 <__aeabi_dadd+0x2d0>
 8000902:	2300      	movs	r3, #0
 8000904:	001a      	movs	r2, r3
 8000906:	e5f4      	b.n	80004f2 <__aeabi_dadd+0x21a>
 8000908:	000007ff 	.word	0x000007ff
 800090c:	ff7fffff 	.word	0xff7fffff

08000910 <__aeabi_ddiv>:
 8000910:	b5f0      	push	{r4, r5, r6, r7, lr}
 8000912:	4657      	mov	r7, sl
 8000914:	46de      	mov	lr, fp
 8000916:	464e      	mov	r6, r9
 8000918:	4645      	mov	r5, r8
 800091a:	b5e0      	push	{r5, r6, r7, lr}
 800091c:	4683      	mov	fp, r0
 800091e:	0007      	movs	r7, r0
 8000920:	030e      	lsls	r6, r1, #12
 8000922:	0048      	lsls	r0, r1, #1
 8000924:	b085      	sub	sp, #20
 8000926:	4692      	mov	sl, r2
 8000928:	001c      	movs	r4, r3
 800092a:	0b36      	lsrs	r6, r6, #12
 800092c:	0d40      	lsrs	r0, r0, #21
 800092e:	0fcd      	lsrs	r5, r1, #31
 8000930:	2800      	cmp	r0, #0
 8000932:	d100      	bne.n	8000936 <__aeabi_ddiv+0x26>
 8000934:	e09d      	b.n	8000a72 <__aeabi_ddiv+0x162>
 8000936:	4b95      	ldr	r3, [pc, #596]	; (8000b8c <__aeabi_ddiv+0x27c>)
 8000938:	4298      	cmp	r0, r3
 800093a:	d039      	beq.n	80009b0 <__aeabi_ddiv+0xa0>
 800093c:	2380      	movs	r3, #128	; 0x80
 800093e:	00f6      	lsls	r6, r6, #3
 8000940:	041b      	lsls	r3, r3, #16
 8000942:	431e      	orrs	r6, r3
 8000944:	4a92      	ldr	r2, [pc, #584]	; (8000b90 <__aeabi_ddiv+0x280>)
 8000946:	0f7b      	lsrs	r3, r7, #29
 8000948:	4333      	orrs	r3, r6
 800094a:	4699      	mov	r9, r3
 800094c:	4694      	mov	ip, r2
 800094e:	0003      	movs	r3, r0
 8000950:	4463      	add	r3, ip
 8000952:	9300      	str	r3, [sp, #0]
 8000954:	2300      	movs	r3, #0
 8000956:	2600      	movs	r6, #0
 8000958:	00ff      	lsls	r7, r7, #3
 800095a:	9302      	str	r3, [sp, #8]
 800095c:	0323      	lsls	r3, r4, #12
 800095e:	0b1b      	lsrs	r3, r3, #12
 8000960:	4698      	mov	r8, r3
 8000962:	0063      	lsls	r3, r4, #1
 8000964:	0fe4      	lsrs	r4, r4, #31
 8000966:	4652      	mov	r2, sl
 8000968:	0d5b      	lsrs	r3, r3, #21
 800096a:	9401      	str	r4, [sp, #4]
 800096c:	d100      	bne.n	8000970 <__aeabi_ddiv+0x60>
 800096e:	e0b3      	b.n	8000ad8 <__aeabi_ddiv+0x1c8>
 8000970:	4986      	ldr	r1, [pc, #536]	; (8000b8c <__aeabi_ddiv+0x27c>)
 8000972:	428b      	cmp	r3, r1
 8000974:	d100      	bne.n	8000978 <__aeabi_ddiv+0x68>
 8000976:	e09e      	b.n	8000ab6 <__aeabi_ddiv+0x1a6>
 8000978:	4642      	mov	r2, r8
 800097a:	00d1      	lsls	r1, r2, #3
 800097c:	2280      	movs	r2, #128	; 0x80
 800097e:	0412      	lsls	r2, r2, #16
 8000980:	430a      	orrs	r2, r1
 8000982:	4651      	mov	r1, sl
 8000984:	0f49      	lsrs	r1, r1, #29
 8000986:	4311      	orrs	r1, r2
 8000988:	468b      	mov	fp, r1
 800098a:	4981      	ldr	r1, [pc, #516]	; (8000b90 <__aeabi_ddiv+0x280>)
 800098c:	4652      	mov	r2, sl
 800098e:	468c      	mov	ip, r1
 8000990:	9900      	ldr	r1, [sp, #0]
 8000992:	4463      	add	r3, ip
 8000994:	1acb      	subs	r3, r1, r3
 8000996:	2100      	movs	r1, #0
 8000998:	00d2      	lsls	r2, r2, #3
 800099a:	9300      	str	r3, [sp, #0]
 800099c:	002b      	movs	r3, r5
 800099e:	4063      	eors	r3, r4
 80009a0:	469a      	mov	sl, r3
 80009a2:	2e0f      	cmp	r6, #15
 80009a4:	d900      	bls.n	80009a8 <__aeabi_ddiv+0x98>
 80009a6:	e105      	b.n	8000bb4 <__aeabi_ddiv+0x2a4>
 80009a8:	4b7a      	ldr	r3, [pc, #488]	; (8000b94 <__aeabi_ddiv+0x284>)
 80009aa:	00b6      	lsls	r6, r6, #2
 80009ac:	599b      	ldr	r3, [r3, r6]
 80009ae:	469f      	mov	pc, r3
 80009b0:	465b      	mov	r3, fp
 80009b2:	4333      	orrs	r3, r6
 80009b4:	4699      	mov	r9, r3
 80009b6:	d000      	beq.n	80009ba <__aeabi_ddiv+0xaa>
 80009b8:	e0b8      	b.n	8000b2c <__aeabi_ddiv+0x21c>
 80009ba:	2302      	movs	r3, #2
 80009bc:	2608      	movs	r6, #8
 80009be:	2700      	movs	r7, #0
 80009c0:	9000      	str	r0, [sp, #0]
 80009c2:	9302      	str	r3, [sp, #8]
 80009c4:	e7ca      	b.n	800095c <__aeabi_ddiv+0x4c>
 80009c6:	46cb      	mov	fp, r9
 80009c8:	003a      	movs	r2, r7
 80009ca:	9902      	ldr	r1, [sp, #8]
 80009cc:	9501      	str	r5, [sp, #4]
 80009ce:	9b01      	ldr	r3, [sp, #4]
 80009d0:	469a      	mov	sl, r3
 80009d2:	2902      	cmp	r1, #2
 80009d4:	d027      	beq.n	8000a26 <__aeabi_ddiv+0x116>
 80009d6:	2903      	cmp	r1, #3
 80009d8:	d100      	bne.n	80009dc <__aeabi_ddiv+0xcc>
 80009da:	e280      	b.n	8000ede <__aeabi_ddiv+0x5ce>
 80009dc:	2901      	cmp	r1, #1
 80009de:	d044      	beq.n	8000a6a <__aeabi_ddiv+0x15a>
 80009e0:	496d      	ldr	r1, [pc, #436]	; (8000b98 <__aeabi_ddiv+0x288>)
 80009e2:	9b00      	ldr	r3, [sp, #0]
 80009e4:	468c      	mov	ip, r1
 80009e6:	4463      	add	r3, ip
 80009e8:	001c      	movs	r4, r3
 80009ea:	2c00      	cmp	r4, #0
 80009ec:	dd38      	ble.n	8000a60 <__aeabi_ddiv+0x150>
 80009ee:	0753      	lsls	r3, r2, #29
 80009f0:	d000      	beq.n	80009f4 <__aeabi_ddiv+0xe4>
 80009f2:	e213      	b.n	8000e1c <__aeabi_ddiv+0x50c>
 80009f4:	08d2      	lsrs	r2, r2, #3
 80009f6:	465b      	mov	r3, fp
 80009f8:	01db      	lsls	r3, r3, #7
 80009fa:	d509      	bpl.n	8000a10 <__aeabi_ddiv+0x100>
 80009fc:	4659      	mov	r1, fp
 80009fe:	4b67      	ldr	r3, [pc, #412]	; (8000b9c <__aeabi_ddiv+0x28c>)
 8000a00:	4019      	ands	r1, r3
 8000a02:	468b      	mov	fp, r1
 8000a04:	2180      	movs	r1, #128	; 0x80
 8000a06:	00c9      	lsls	r1, r1, #3
 8000a08:	468c      	mov	ip, r1
 8000a0a:	9b00      	ldr	r3, [sp, #0]
 8000a0c:	4463      	add	r3, ip
 8000a0e:	001c      	movs	r4, r3
 8000a10:	4b63      	ldr	r3, [pc, #396]	; (8000ba0 <__aeabi_ddiv+0x290>)
 8000a12:	429c      	cmp	r4, r3
 8000a14:	dc07      	bgt.n	8000a26 <__aeabi_ddiv+0x116>
 8000a16:	465b      	mov	r3, fp
 8000a18:	0564      	lsls	r4, r4, #21
 8000a1a:	075f      	lsls	r7, r3, #29
 8000a1c:	025b      	lsls	r3, r3, #9
 8000a1e:	4317      	orrs	r7, r2
 8000a20:	0b1b      	lsrs	r3, r3, #12
 8000a22:	0d62      	lsrs	r2, r4, #21
 8000a24:	e002      	b.n	8000a2c <__aeabi_ddiv+0x11c>
 8000a26:	2300      	movs	r3, #0
 8000a28:	2700      	movs	r7, #0
 8000a2a:	4a58      	ldr	r2, [pc, #352]	; (8000b8c <__aeabi_ddiv+0x27c>)
 8000a2c:	2100      	movs	r1, #0
 8000a2e:	031b      	lsls	r3, r3, #12
 8000a30:	0b1c      	lsrs	r4, r3, #12
 8000a32:	0d0b      	lsrs	r3, r1, #20
 8000a34:	051b      	lsls	r3, r3, #20
 8000a36:	4323      	orrs	r3, r4
 8000a38:	0514      	lsls	r4, r2, #20
 8000a3a:	4a5a      	ldr	r2, [pc, #360]	; (8000ba4 <__aeabi_ddiv+0x294>)
 8000a3c:	0038      	movs	r0, r7
 8000a3e:	4013      	ands	r3, r2
 8000a40:	431c      	orrs	r4, r3
 8000a42:	4653      	mov	r3, sl
 8000a44:	0064      	lsls	r4, r4, #1
 8000a46:	07db      	lsls	r3, r3, #31
 8000a48:	0864      	lsrs	r4, r4, #1
 8000a4a:	431c      	orrs	r4, r3
 8000a4c:	0021      	movs	r1, r4
 8000a4e:	b005      	add	sp, #20
 8000a50:	bc3c      	pop	{r2, r3, r4, r5}
 8000a52:	4690      	mov	r8, r2
 8000a54:	4699      	mov	r9, r3
 8000a56:	46a2      	mov	sl, r4
 8000a58:	46ab      	mov	fp, r5
 8000a5a:	bdf0      	pop	{r4, r5, r6, r7, pc}
 8000a5c:	2201      	movs	r2, #1
 8000a5e:	4252      	negs	r2, r2
 8000a60:	2301      	movs	r3, #1
 8000a62:	1b1b      	subs	r3, r3, r4
 8000a64:	2b38      	cmp	r3, #56	; 0x38
 8000a66:	dc00      	bgt.n	8000a6a <__aeabi_ddiv+0x15a>
 8000a68:	e1ad      	b.n	8000dc6 <__aeabi_ddiv+0x4b6>
 8000a6a:	2200      	movs	r2, #0
 8000a6c:	2300      	movs	r3, #0
 8000a6e:	2700      	movs	r7, #0
 8000a70:	e7dc      	b.n	8000a2c <__aeabi_ddiv+0x11c>
 8000a72:	465b      	mov	r3, fp
 8000a74:	4333      	orrs	r3, r6
 8000a76:	4699      	mov	r9, r3
 8000a78:	d05e      	beq.n	8000b38 <__aeabi_ddiv+0x228>
 8000a7a:	2e00      	cmp	r6, #0
 8000a7c:	d100      	bne.n	8000a80 <__aeabi_ddiv+0x170>
 8000a7e:	e18a      	b.n	8000d96 <__aeabi_ddiv+0x486>
 8000a80:	0030      	movs	r0, r6
 8000a82:	f001 f98d 	bl	8001da0 <__clzsi2>
 8000a86:	0003      	movs	r3, r0
 8000a88:	3b0b      	subs	r3, #11
 8000a8a:	2b1c      	cmp	r3, #28
 8000a8c:	dd00      	ble.n	8000a90 <__aeabi_ddiv+0x180>
 8000a8e:	e17b      	b.n	8000d88 <__aeabi_ddiv+0x478>
 8000a90:	221d      	movs	r2, #29
 8000a92:	1ad3      	subs	r3, r2, r3
 8000a94:	465a      	mov	r2, fp
 8000a96:	0001      	movs	r1, r0
 8000a98:	40da      	lsrs	r2, r3
 8000a9a:	3908      	subs	r1, #8
 8000a9c:	408e      	lsls	r6, r1
 8000a9e:	0013      	movs	r3, r2
 8000aa0:	465f      	mov	r7, fp
 8000aa2:	4333      	orrs	r3, r6
 8000aa4:	4699      	mov	r9, r3
 8000aa6:	408f      	lsls	r7, r1
 8000aa8:	4b3f      	ldr	r3, [pc, #252]	; (8000ba8 <__aeabi_ddiv+0x298>)
 8000aaa:	2600      	movs	r6, #0
 8000aac:	1a1b      	subs	r3, r3, r0
 8000aae:	9300      	str	r3, [sp, #0]
 8000ab0:	2300      	movs	r3, #0
 8000ab2:	9302      	str	r3, [sp, #8]
 8000ab4:	e752      	b.n	800095c <__aeabi_ddiv+0x4c>
 8000ab6:	4641      	mov	r1, r8
 8000ab8:	4653      	mov	r3, sl
 8000aba:	430b      	orrs	r3, r1
 8000abc:	493b      	ldr	r1, [pc, #236]	; (8000bac <__aeabi_ddiv+0x29c>)
 8000abe:	469b      	mov	fp, r3
 8000ac0:	468c      	mov	ip, r1
 8000ac2:	9b00      	ldr	r3, [sp, #0]
 8000ac4:	4463      	add	r3, ip
 8000ac6:	9300      	str	r3, [sp, #0]
 8000ac8:	465b      	mov	r3, fp
 8000aca:	2b00      	cmp	r3, #0
 8000acc:	d13b      	bne.n	8000b46 <__aeabi_ddiv+0x236>
 8000ace:	2302      	movs	r3, #2
 8000ad0:	2200      	movs	r2, #0
 8000ad2:	431e      	orrs	r6, r3
 8000ad4:	2102      	movs	r1, #2
 8000ad6:	e761      	b.n	800099c <__aeabi_ddiv+0x8c>
 8000ad8:	4643      	mov	r3, r8
 8000ada:	4313      	orrs	r3, r2
 8000adc:	469b      	mov	fp, r3
 8000ade:	d037      	beq.n	8000b50 <__aeabi_ddiv+0x240>
 8000ae0:	4643      	mov	r3, r8
 8000ae2:	2b00      	cmp	r3, #0
 8000ae4:	d100      	bne.n	8000ae8 <__aeabi_ddiv+0x1d8>
 8000ae6:	e162      	b.n	8000dae <__aeabi_ddiv+0x49e>
 8000ae8:	4640      	mov	r0, r8
 8000aea:	f001 f959 	bl	8001da0 <__clzsi2>
 8000aee:	0003      	movs	r3, r0
 8000af0:	3b0b      	subs	r3, #11
 8000af2:	2b1c      	cmp	r3, #28
 8000af4:	dd00      	ble.n	8000af8 <__aeabi_ddiv+0x1e8>
 8000af6:	e153      	b.n	8000da0 <__aeabi_ddiv+0x490>
 8000af8:	0002      	movs	r2, r0
 8000afa:	4641      	mov	r1, r8
 8000afc:	3a08      	subs	r2, #8
 8000afe:	4091      	lsls	r1, r2
 8000b00:	4688      	mov	r8, r1
 8000b02:	211d      	movs	r1, #29
 8000b04:	1acb      	subs	r3, r1, r3
 8000b06:	4651      	mov	r1, sl
 8000b08:	40d9      	lsrs	r1, r3
 8000b0a:	000b      	movs	r3, r1
 8000b0c:	4641      	mov	r1, r8
 8000b0e:	430b      	orrs	r3, r1
 8000b10:	469b      	mov	fp, r3
 8000b12:	4653      	mov	r3, sl
 8000b14:	4093      	lsls	r3, r2
 8000b16:	001a      	movs	r2, r3
 8000b18:	9b00      	ldr	r3, [sp, #0]
 8000b1a:	4925      	ldr	r1, [pc, #148]	; (8000bb0 <__aeabi_ddiv+0x2a0>)
 8000b1c:	469c      	mov	ip, r3
 8000b1e:	4460      	add	r0, ip
 8000b20:	0003      	movs	r3, r0
 8000b22:	468c      	mov	ip, r1
 8000b24:	4463      	add	r3, ip
 8000b26:	9300      	str	r3, [sp, #0]
 8000b28:	2100      	movs	r1, #0
 8000b2a:	e737      	b.n	800099c <__aeabi_ddiv+0x8c>
 8000b2c:	2303      	movs	r3, #3
 8000b2e:	46b1      	mov	r9, r6
 8000b30:	9000      	str	r0, [sp, #0]
 8000b32:	260c      	movs	r6, #12
 8000b34:	9302      	str	r3, [sp, #8]
 8000b36:	e711      	b.n	800095c <__aeabi_ddiv+0x4c>
 8000b38:	2300      	movs	r3, #0
 8000b3a:	9300      	str	r3, [sp, #0]
 8000b3c:	3301      	adds	r3, #1
 8000b3e:	2604      	movs	r6, #4
 8000b40:	2700      	movs	r7, #0
 8000b42:	9302      	str	r3, [sp, #8]
 8000b44:	e70a      	b.n	800095c <__aeabi_ddiv+0x4c>
 8000b46:	2303      	movs	r3, #3
 8000b48:	46c3      	mov	fp, r8
 8000b4a:	431e      	orrs	r6, r3
 8000b4c:	2103      	movs	r1, #3
 8000b4e:	e725      	b.n	800099c <__aeabi_ddiv+0x8c>
 8000b50:	3301      	adds	r3, #1
 8000b52:	431e      	orrs	r6, r3
 8000b54:	2200      	movs	r2, #0
 8000b56:	2101      	movs	r1, #1
 8000b58:	e720      	b.n	800099c <__aeabi_ddiv+0x8c>
 8000b5a:	2300      	movs	r3, #0
 8000b5c:	469a      	mov	sl, r3
 8000b5e:	2380      	movs	r3, #128	; 0x80
 8000b60:	2700      	movs	r7, #0
 8000b62:	031b      	lsls	r3, r3, #12
 8000b64:	4a09      	ldr	r2, [pc, #36]	; (8000b8c <__aeabi_ddiv+0x27c>)
 8000b66:	e761      	b.n	8000a2c <__aeabi_ddiv+0x11c>
 8000b68:	2380      	movs	r3, #128	; 0x80
 8000b6a:	4649      	mov	r1, r9
 8000b6c:	031b      	lsls	r3, r3, #12
 8000b6e:	4219      	tst	r1, r3
 8000b70:	d100      	bne.n	8000b74 <__aeabi_ddiv+0x264>
 8000b72:	e0e2      	b.n	8000d3a <__aeabi_ddiv+0x42a>
 8000b74:	4659      	mov	r1, fp
 8000b76:	4219      	tst	r1, r3
 8000b78:	d000      	beq.n	8000b7c <__aeabi_ddiv+0x26c>
 8000b7a:	e0de      	b.n	8000d3a <__aeabi_ddiv+0x42a>
 8000b7c:	430b      	orrs	r3, r1
 8000b7e:	031b      	lsls	r3, r3, #12
 8000b80:	0017      	movs	r7, r2
 8000b82:	0b1b      	lsrs	r3, r3, #12
 8000b84:	46a2      	mov	sl, r4
 8000b86:	4a01      	ldr	r2, [pc, #4]	; (8000b8c <__aeabi_ddiv+0x27c>)
 8000b88:	e750      	b.n	8000a2c <__aeabi_ddiv+0x11c>
 8000b8a:	46c0      	nop			; (mov r8, r8)
 8000b8c:	000007ff 	.word	0x000007ff
 8000b90:	fffffc01 	.word	0xfffffc01
 8000b94:	080043c4 	.word	0x080043c4
 8000b98:	000003ff 	.word	0x000003ff
 8000b9c:	feffffff 	.word	0xfeffffff
 8000ba0:	000007fe 	.word	0x000007fe
 8000ba4:	800fffff 	.word	0x800fffff
 8000ba8:	fffffc0d 	.word	0xfffffc0d
 8000bac:	fffff801 	.word	0xfffff801
 8000bb0:	000003f3 	.word	0x000003f3
 8000bb4:	45d9      	cmp	r9, fp
 8000bb6:	d900      	bls.n	8000bba <__aeabi_ddiv+0x2aa>
 8000bb8:	e0cb      	b.n	8000d52 <__aeabi_ddiv+0x442>
 8000bba:	d100      	bne.n	8000bbe <__aeabi_ddiv+0x2ae>
 8000bbc:	e0c6      	b.n	8000d4c <__aeabi_ddiv+0x43c>
 8000bbe:	003c      	movs	r4, r7
 8000bc0:	4648      	mov	r0, r9
 8000bc2:	2700      	movs	r7, #0
 8000bc4:	9b00      	ldr	r3, [sp, #0]
 8000bc6:	3b01      	subs	r3, #1
 8000bc8:	9300      	str	r3, [sp, #0]
 8000bca:	465b      	mov	r3, fp
 8000bcc:	0e16      	lsrs	r6, r2, #24
 8000bce:	021b      	lsls	r3, r3, #8
 8000bd0:	431e      	orrs	r6, r3
 8000bd2:	0213      	lsls	r3, r2, #8
 8000bd4:	4698      	mov	r8, r3
 8000bd6:	0433      	lsls	r3, r6, #16
 8000bd8:	0c1b      	lsrs	r3, r3, #16
 8000bda:	4699      	mov	r9, r3
 8000bdc:	0c31      	lsrs	r1, r6, #16
 8000bde:	9101      	str	r1, [sp, #4]
 8000be0:	f7ff fb18 	bl	8000214 <__aeabi_uidivmod>
 8000be4:	464a      	mov	r2, r9
 8000be6:	4342      	muls	r2, r0
 8000be8:	040b      	lsls	r3, r1, #16
 8000bea:	0c21      	lsrs	r1, r4, #16
 8000bec:	0005      	movs	r5, r0
 8000bee:	4319      	orrs	r1, r3
 8000bf0:	428a      	cmp	r2, r1
 8000bf2:	d907      	bls.n	8000c04 <__aeabi_ddiv+0x2f4>
 8000bf4:	1989      	adds	r1, r1, r6
 8000bf6:	3d01      	subs	r5, #1
 8000bf8:	428e      	cmp	r6, r1
 8000bfa:	d803      	bhi.n	8000c04 <__aeabi_ddiv+0x2f4>
 8000bfc:	428a      	cmp	r2, r1
 8000bfe:	d901      	bls.n	8000c04 <__aeabi_ddiv+0x2f4>
 8000c00:	1e85      	subs	r5, r0, #2
 8000c02:	1989      	adds	r1, r1, r6
 8000c04:	1a88      	subs	r0, r1, r2
 8000c06:	9901      	ldr	r1, [sp, #4]
 8000c08:	f7ff fb04 	bl	8000214 <__aeabi_uidivmod>
 8000c0c:	0409      	lsls	r1, r1, #16
 8000c0e:	468c      	mov	ip, r1
 8000c10:	464a      	mov	r2, r9
 8000c12:	0421      	lsls	r1, r4, #16
 8000c14:	4664      	mov	r4, ip
 8000c16:	4342      	muls	r2, r0
 8000c18:	0c09      	lsrs	r1, r1, #16
 8000c1a:	0003      	movs	r3, r0
 8000c1c:	4321      	orrs	r1, r4
 8000c1e:	428a      	cmp	r2, r1
 8000c20:	d904      	bls.n	8000c2c <__aeabi_ddiv+0x31c>
 8000c22:	1989      	adds	r1, r1, r6
 8000c24:	3b01      	subs	r3, #1
 8000c26:	428e      	cmp	r6, r1
 8000c28:	d800      	bhi.n	8000c2c <__aeabi_ddiv+0x31c>
 8000c2a:	e0f1      	b.n	8000e10 <__aeabi_ddiv+0x500>
 8000c2c:	042d      	lsls	r5, r5, #16
 8000c2e:	431d      	orrs	r5, r3
 8000c30:	46ab      	mov	fp, r5
 8000c32:	4643      	mov	r3, r8
 8000c34:	1a89      	subs	r1, r1, r2
 8000c36:	4642      	mov	r2, r8
 8000c38:	0c28      	lsrs	r0, r5, #16
 8000c3a:	0412      	lsls	r2, r2, #16
 8000c3c:	0c1d      	lsrs	r5, r3, #16
 8000c3e:	465b      	mov	r3, fp
 8000c40:	0c14      	lsrs	r4, r2, #16
 8000c42:	0022      	movs	r2, r4
 8000c44:	041b      	lsls	r3, r3, #16
 8000c46:	0c1b      	lsrs	r3, r3, #16
 8000c48:	435a      	muls	r2, r3
 8000c4a:	9403      	str	r4, [sp, #12]
 8000c4c:	436b      	muls	r3, r5
 8000c4e:	4344      	muls	r4, r0
 8000c50:	9502      	str	r5, [sp, #8]
 8000c52:	4368      	muls	r0, r5
 8000c54:	191b      	adds	r3, r3, r4
 8000c56:	0c15      	lsrs	r5, r2, #16
 8000c58:	18eb      	adds	r3, r5, r3
 8000c5a:	429c      	cmp	r4, r3
 8000c5c:	d903      	bls.n	8000c66 <__aeabi_ddiv+0x356>
 8000c5e:	2480      	movs	r4, #128	; 0x80
 8000c60:	0264      	lsls	r4, r4, #9
 8000c62:	46a4      	mov	ip, r4
 8000c64:	4460      	add	r0, ip
 8000c66:	0c1c      	lsrs	r4, r3, #16
 8000c68:	0415      	lsls	r5, r2, #16
 8000c6a:	041b      	lsls	r3, r3, #16
 8000c6c:	0c2d      	lsrs	r5, r5, #16
 8000c6e:	1820      	adds	r0, r4, r0
 8000c70:	195d      	adds	r5, r3, r5
 8000c72:	4281      	cmp	r1, r0
 8000c74:	d377      	bcc.n	8000d66 <__aeabi_ddiv+0x456>
 8000c76:	d073      	beq.n	8000d60 <__aeabi_ddiv+0x450>
 8000c78:	1a0c      	subs	r4, r1, r0
 8000c7a:	4aa2      	ldr	r2, [pc, #648]	; (8000f04 <__aeabi_ddiv+0x5f4>)
 8000c7c:	1b7d      	subs	r5, r7, r5
 8000c7e:	42af      	cmp	r7, r5
 8000c80:	41bf      	sbcs	r7, r7
 8000c82:	4694      	mov	ip, r2
 8000c84:	9b00      	ldr	r3, [sp, #0]
 8000c86:	427f      	negs	r7, r7
 8000c88:	4463      	add	r3, ip
 8000c8a:	1be0      	subs	r0, r4, r7
 8000c8c:	001c      	movs	r4, r3
 8000c8e:	4286      	cmp	r6, r0
 8000c90:	d100      	bne.n	8000c94 <__aeabi_ddiv+0x384>
 8000c92:	e0db      	b.n	8000e4c <__aeabi_ddiv+0x53c>
 8000c94:	9901      	ldr	r1, [sp, #4]
 8000c96:	f7ff fabd 	bl	8000214 <__aeabi_uidivmod>
 8000c9a:	464a      	mov	r2, r9
 8000c9c:	4342      	muls	r2, r0
 8000c9e:	040b      	lsls	r3, r1, #16
 8000ca0:	0c29      	lsrs	r1, r5, #16
 8000ca2:	0007      	movs	r7, r0
 8000ca4:	4319      	orrs	r1, r3
 8000ca6:	428a      	cmp	r2, r1
 8000ca8:	d907      	bls.n	8000cba <__aeabi_ddiv+0x3aa>
 8000caa:	1989      	adds	r1, r1, r6
 8000cac:	3f01      	subs	r7, #1
 8000cae:	428e      	cmp	r6, r1
 8000cb0:	d803      	bhi.n	8000cba <__aeabi_ddiv+0x3aa>
 8000cb2:	428a      	cmp	r2, r1
 8000cb4:	d901      	bls.n	8000cba <__aeabi_ddiv+0x3aa>
 8000cb6:	1e87      	subs	r7, r0, #2
 8000cb8:	1989      	adds	r1, r1, r6
 8000cba:	1a88      	subs	r0, r1, r2
 8000cbc:	9901      	ldr	r1, [sp, #4]
 8000cbe:	f7ff faa9 	bl	8000214 <__aeabi_uidivmod>
 8000cc2:	0409      	lsls	r1, r1, #16
 8000cc4:	464a      	mov	r2, r9
 8000cc6:	4689      	mov	r9, r1
 8000cc8:	0429      	lsls	r1, r5, #16
 8000cca:	464d      	mov	r5, r9
 8000ccc:	4342      	muls	r2, r0
 8000cce:	0c09      	lsrs	r1, r1, #16
 8000cd0:	0003      	movs	r3, r0
 8000cd2:	4329      	orrs	r1, r5
 8000cd4:	428a      	cmp	r2, r1
 8000cd6:	d907      	bls.n	8000ce8 <__aeabi_ddiv+0x3d8>
 8000cd8:	1989      	adds	r1, r1, r6
 8000cda:	3b01      	subs	r3, #1
 8000cdc:	428e      	cmp	r6, r1
 8000cde:	d803      	bhi.n	8000ce8 <__aeabi_ddiv+0x3d8>
 8000ce0:	428a      	cmp	r2, r1
 8000ce2:	d901      	bls.n	8000ce8 <__aeabi_ddiv+0x3d8>
 8000ce4:	1e83      	subs	r3, r0, #2
 8000ce6:	1989      	adds	r1, r1, r6
 8000ce8:	043f      	lsls	r7, r7, #16
 8000cea:	1a89      	subs	r1, r1, r2
 8000cec:	003a      	movs	r2, r7
 8000cee:	9f03      	ldr	r7, [sp, #12]
 8000cf0:	431a      	orrs	r2, r3
 8000cf2:	0038      	movs	r0, r7
 8000cf4:	0413      	lsls	r3, r2, #16
 8000cf6:	0c1b      	lsrs	r3, r3, #16
 8000cf8:	4358      	muls	r0, r3
 8000cfa:	4681      	mov	r9, r0
 8000cfc:	9802      	ldr	r0, [sp, #8]
 8000cfe:	0c15      	lsrs	r5, r2, #16
 8000d00:	436f      	muls	r7, r5
 8000d02:	4343      	muls	r3, r0
 8000d04:	4345      	muls	r5, r0
 8000d06:	4648      	mov	r0, r9
 8000d08:	0c00      	lsrs	r0, r0, #16
 8000d0a:	4684      	mov	ip, r0
 8000d0c:	19db      	adds	r3, r3, r7
 8000d0e:	4463      	add	r3, ip
 8000d10:	429f      	cmp	r7, r3
 8000d12:	d903      	bls.n	8000d1c <__aeabi_ddiv+0x40c>
 8000d14:	2080      	movs	r0, #128	; 0x80
 8000d16:	0240      	lsls	r0, r0, #9
 8000d18:	4684      	mov	ip, r0
 8000d1a:	4465      	add	r5, ip
 8000d1c:	4648      	mov	r0, r9
 8000d1e:	0c1f      	lsrs	r7, r3, #16
 8000d20:	0400      	lsls	r0, r0, #16
 8000d22:	041b      	lsls	r3, r3, #16
 8000d24:	0c00      	lsrs	r0, r0, #16
 8000d26:	197d      	adds	r5, r7, r5
 8000d28:	1818      	adds	r0, r3, r0
 8000d2a:	42a9      	cmp	r1, r5
 8000d2c:	d200      	bcs.n	8000d30 <__aeabi_ddiv+0x420>
 8000d2e:	e084      	b.n	8000e3a <__aeabi_ddiv+0x52a>
 8000d30:	d100      	bne.n	8000d34 <__aeabi_ddiv+0x424>
 8000d32:	e07f      	b.n	8000e34 <__aeabi_ddiv+0x524>
 8000d34:	2301      	movs	r3, #1
 8000d36:	431a      	orrs	r2, r3
 8000d38:	e657      	b.n	80009ea <__aeabi_ddiv+0xda>
 8000d3a:	2380      	movs	r3, #128	; 0x80
 8000d3c:	464a      	mov	r2, r9
 8000d3e:	031b      	lsls	r3, r3, #12
 8000d40:	4313      	orrs	r3, r2
 8000d42:	031b      	lsls	r3, r3, #12
 8000d44:	0b1b      	lsrs	r3, r3, #12
 8000d46:	46aa      	mov	sl, r5
 8000d48:	4a6f      	ldr	r2, [pc, #444]	; (8000f08 <__aeabi_ddiv+0x5f8>)
 8000d4a:	e66f      	b.n	8000a2c <__aeabi_ddiv+0x11c>
 8000d4c:	42ba      	cmp	r2, r7
 8000d4e:	d900      	bls.n	8000d52 <__aeabi_ddiv+0x442>
 8000d50:	e735      	b.n	8000bbe <__aeabi_ddiv+0x2ae>
 8000d52:	464b      	mov	r3, r9
 8000d54:	07dc      	lsls	r4, r3, #31
 8000d56:	0858      	lsrs	r0, r3, #1
 8000d58:	087b      	lsrs	r3, r7, #1
 8000d5a:	431c      	orrs	r4, r3
 8000d5c:	07ff      	lsls	r7, r7, #31
 8000d5e:	e734      	b.n	8000bca <__aeabi_ddiv+0x2ba>
 8000d60:	2400      	movs	r4, #0
 8000d62:	42af      	cmp	r7, r5
 8000d64:	d289      	bcs.n	8000c7a <__aeabi_ddiv+0x36a>
 8000d66:	4447      	add	r7, r8
 8000d68:	4547      	cmp	r7, r8
 8000d6a:	41a4      	sbcs	r4, r4
 8000d6c:	465b      	mov	r3, fp
 8000d6e:	4264      	negs	r4, r4
 8000d70:	19a4      	adds	r4, r4, r6
 8000d72:	1864      	adds	r4, r4, r1
 8000d74:	3b01      	subs	r3, #1
 8000d76:	42a6      	cmp	r6, r4
 8000d78:	d21e      	bcs.n	8000db8 <__aeabi_ddiv+0x4a8>
 8000d7a:	42a0      	cmp	r0, r4
 8000d7c:	d86d      	bhi.n	8000e5a <__aeabi_ddiv+0x54a>
 8000d7e:	d100      	bne.n	8000d82 <__aeabi_ddiv+0x472>
 8000d80:	e0b6      	b.n	8000ef0 <__aeabi_ddiv+0x5e0>
 8000d82:	1a24      	subs	r4, r4, r0
 8000d84:	469b      	mov	fp, r3
 8000d86:	e778      	b.n	8000c7a <__aeabi_ddiv+0x36a>
 8000d88:	0003      	movs	r3, r0
 8000d8a:	465a      	mov	r2, fp
 8000d8c:	3b28      	subs	r3, #40	; 0x28
 8000d8e:	409a      	lsls	r2, r3
 8000d90:	2700      	movs	r7, #0
 8000d92:	4691      	mov	r9, r2
 8000d94:	e688      	b.n	8000aa8 <__aeabi_ddiv+0x198>
 8000d96:	4658      	mov	r0, fp
 8000d98:	f001 f802 	bl	8001da0 <__clzsi2>
 8000d9c:	3020      	adds	r0, #32
 8000d9e:	e672      	b.n	8000a86 <__aeabi_ddiv+0x176>
 8000da0:	0003      	movs	r3, r0
 8000da2:	4652      	mov	r2, sl
 8000da4:	3b28      	subs	r3, #40	; 0x28
 8000da6:	409a      	lsls	r2, r3
 8000da8:	4693      	mov	fp, r2
 8000daa:	2200      	movs	r2, #0
 8000dac:	e6b4      	b.n	8000b18 <__aeabi_ddiv+0x208>
 8000dae:	4650      	mov	r0, sl
 8000db0:	f000 fff6 	bl	8001da0 <__clzsi2>
 8000db4:	3020      	adds	r0, #32
 8000db6:	e69a      	b.n	8000aee <__aeabi_ddiv+0x1de>
 8000db8:	42a6      	cmp	r6, r4
 8000dba:	d1e2      	bne.n	8000d82 <__aeabi_ddiv+0x472>
 8000dbc:	45b8      	cmp	r8, r7
 8000dbe:	d9dc      	bls.n	8000d7a <__aeabi_ddiv+0x46a>
 8000dc0:	1a34      	subs	r4, r6, r0
 8000dc2:	469b      	mov	fp, r3
 8000dc4:	e759      	b.n	8000c7a <__aeabi_ddiv+0x36a>
 8000dc6:	2b1f      	cmp	r3, #31
 8000dc8:	dc65      	bgt.n	8000e96 <__aeabi_ddiv+0x586>
 8000dca:	4c50      	ldr	r4, [pc, #320]	; (8000f0c <__aeabi_ddiv+0x5fc>)
 8000dcc:	9900      	ldr	r1, [sp, #0]
 8000dce:	46a4      	mov	ip, r4
 8000dd0:	465c      	mov	r4, fp
 8000dd2:	4461      	add	r1, ip
 8000dd4:	0008      	movs	r0, r1
 8000dd6:	408c      	lsls	r4, r1
 8000dd8:	0011      	movs	r1, r2
 8000dda:	4082      	lsls	r2, r0
 8000ddc:	40d9      	lsrs	r1, r3
 8000dde:	1e50      	subs	r0, r2, #1
 8000de0:	4182      	sbcs	r2, r0
 8000de2:	430c      	orrs	r4, r1
 8000de4:	4314      	orrs	r4, r2
 8000de6:	465a      	mov	r2, fp
 8000de8:	40da      	lsrs	r2, r3
 8000dea:	0013      	movs	r3, r2
 8000dec:	0762      	lsls	r2, r4, #29
 8000dee:	d009      	beq.n	8000e04 <__aeabi_ddiv+0x4f4>
 8000df0:	220f      	movs	r2, #15
 8000df2:	4022      	ands	r2, r4
 8000df4:	2a04      	cmp	r2, #4
 8000df6:	d005      	beq.n	8000e04 <__aeabi_ddiv+0x4f4>
 8000df8:	0022      	movs	r2, r4
 8000dfa:	1d14      	adds	r4, r2, #4
 8000dfc:	4294      	cmp	r4, r2
 8000dfe:	4189      	sbcs	r1, r1
 8000e00:	4249      	negs	r1, r1
 8000e02:	185b      	adds	r3, r3, r1
 8000e04:	021a      	lsls	r2, r3, #8
 8000e06:	d562      	bpl.n	8000ece <__aeabi_ddiv+0x5be>
 8000e08:	2201      	movs	r2, #1
 8000e0a:	2300      	movs	r3, #0
 8000e0c:	2700      	movs	r7, #0
 8000e0e:	e60d      	b.n	8000a2c <__aeabi_ddiv+0x11c>
 8000e10:	428a      	cmp	r2, r1
 8000e12:	d800      	bhi.n	8000e16 <__aeabi_ddiv+0x506>
 8000e14:	e70a      	b.n	8000c2c <__aeabi_ddiv+0x31c>
 8000e16:	1e83      	subs	r3, r0, #2
 8000e18:	1989      	adds	r1, r1, r6
 8000e1a:	e707      	b.n	8000c2c <__aeabi_ddiv+0x31c>
 8000e1c:	230f      	movs	r3, #15
 8000e1e:	4013      	ands	r3, r2
 8000e20:	2b04      	cmp	r3, #4
 8000e22:	d100      	bne.n	8000e26 <__aeabi_ddiv+0x516>
 8000e24:	e5e6      	b.n	80009f4 <__aeabi_ddiv+0xe4>
 8000e26:	1d17      	adds	r7, r2, #4
 8000e28:	4297      	cmp	r7, r2
 8000e2a:	4192      	sbcs	r2, r2
 8000e2c:	4253      	negs	r3, r2
 8000e2e:	449b      	add	fp, r3
 8000e30:	08fa      	lsrs	r2, r7, #3
 8000e32:	e5e0      	b.n	80009f6 <__aeabi_ddiv+0xe6>
 8000e34:	2800      	cmp	r0, #0
 8000e36:	d100      	bne.n	8000e3a <__aeabi_ddiv+0x52a>
 8000e38:	e5d7      	b.n	80009ea <__aeabi_ddiv+0xda>
 8000e3a:	1871      	adds	r1, r6, r1
 8000e3c:	1e53      	subs	r3, r2, #1
 8000e3e:	42b1      	cmp	r1, r6
 8000e40:	d327      	bcc.n	8000e92 <__aeabi_ddiv+0x582>
 8000e42:	42a9      	cmp	r1, r5
 8000e44:	d315      	bcc.n	8000e72 <__aeabi_ddiv+0x562>
 8000e46:	d058      	beq.n	8000efa <__aeabi_ddiv+0x5ea>
 8000e48:	001a      	movs	r2, r3
 8000e4a:	e773      	b.n	8000d34 <__aeabi_ddiv+0x424>
 8000e4c:	2b00      	cmp	r3, #0
 8000e4e:	dc00      	bgt.n	8000e52 <__aeabi_ddiv+0x542>
 8000e50:	e604      	b.n	8000a5c <__aeabi_ddiv+0x14c>
 8000e52:	2301      	movs	r3, #1
 8000e54:	2200      	movs	r2, #0
 8000e56:	449b      	add	fp, r3
 8000e58:	e5cd      	b.n	80009f6 <__aeabi_ddiv+0xe6>
 8000e5a:	2302      	movs	r3, #2
 8000e5c:	4447      	add	r7, r8
 8000e5e:	4547      	cmp	r7, r8
 8000e60:	4189      	sbcs	r1, r1
 8000e62:	425b      	negs	r3, r3
 8000e64:	469c      	mov	ip, r3
 8000e66:	4249      	negs	r1, r1
 8000e68:	1989      	adds	r1, r1, r6
 8000e6a:	190c      	adds	r4, r1, r4
 8000e6c:	44e3      	add	fp, ip
 8000e6e:	1a24      	subs	r4, r4, r0
 8000e70:	e703      	b.n	8000c7a <__aeabi_ddiv+0x36a>
 8000e72:	4643      	mov	r3, r8
 8000e74:	005f      	lsls	r7, r3, #1
 8000e76:	4547      	cmp	r7, r8
 8000e78:	419b      	sbcs	r3, r3
 8000e7a:	46b8      	mov	r8, r7
 8000e7c:	425b      	negs	r3, r3
 8000e7e:	199e      	adds	r6, r3, r6
 8000e80:	3a02      	subs	r2, #2
 8000e82:	1989      	adds	r1, r1, r6
 8000e84:	42a9      	cmp	r1, r5
 8000e86:	d000      	beq.n	8000e8a <__aeabi_ddiv+0x57a>
 8000e88:	e754      	b.n	8000d34 <__aeabi_ddiv+0x424>
 8000e8a:	4540      	cmp	r0, r8
 8000e8c:	d000      	beq.n	8000e90 <__aeabi_ddiv+0x580>
 8000e8e:	e751      	b.n	8000d34 <__aeabi_ddiv+0x424>
 8000e90:	e5ab      	b.n	80009ea <__aeabi_ddiv+0xda>
 8000e92:	001a      	movs	r2, r3
 8000e94:	e7f6      	b.n	8000e84 <__aeabi_ddiv+0x574>
 8000e96:	211f      	movs	r1, #31
 8000e98:	465f      	mov	r7, fp
 8000e9a:	4249      	negs	r1, r1
 8000e9c:	1b0c      	subs	r4, r1, r4
 8000e9e:	40e7      	lsrs	r7, r4
 8000ea0:	2b20      	cmp	r3, #32
 8000ea2:	d007      	beq.n	8000eb4 <__aeabi_ddiv+0x5a4>
 8000ea4:	491a      	ldr	r1, [pc, #104]	; (8000f10 <__aeabi_ddiv+0x600>)
 8000ea6:	9b00      	ldr	r3, [sp, #0]
 8000ea8:	468c      	mov	ip, r1
 8000eaa:	4463      	add	r3, ip
 8000eac:	0018      	movs	r0, r3
 8000eae:	465b      	mov	r3, fp
 8000eb0:	4083      	lsls	r3, r0
 8000eb2:	431a      	orrs	r2, r3
 8000eb4:	1e50      	subs	r0, r2, #1
 8000eb6:	4182      	sbcs	r2, r0
 8000eb8:	433a      	orrs	r2, r7
 8000eba:	2707      	movs	r7, #7
 8000ebc:	2300      	movs	r3, #0
 8000ebe:	4017      	ands	r7, r2
 8000ec0:	d009      	beq.n	8000ed6 <__aeabi_ddiv+0x5c6>
 8000ec2:	210f      	movs	r1, #15
 8000ec4:	2300      	movs	r3, #0
 8000ec6:	4011      	ands	r1, r2
 8000ec8:	0014      	movs	r4, r2
 8000eca:	2904      	cmp	r1, #4
 8000ecc:	d195      	bne.n	8000dfa <__aeabi_ddiv+0x4ea>
 8000ece:	0022      	movs	r2, r4
 8000ed0:	075f      	lsls	r7, r3, #29
 8000ed2:	025b      	lsls	r3, r3, #9
 8000ed4:	0b1b      	lsrs	r3, r3, #12
 8000ed6:	08d2      	lsrs	r2, r2, #3
 8000ed8:	4317      	orrs	r7, r2
 8000eda:	2200      	movs	r2, #0
 8000edc:	e5a6      	b.n	8000a2c <__aeabi_ddiv+0x11c>
 8000ede:	2380      	movs	r3, #128	; 0x80
 8000ee0:	4659      	mov	r1, fp
 8000ee2:	031b      	lsls	r3, r3, #12
 8000ee4:	430b      	orrs	r3, r1
 8000ee6:	031b      	lsls	r3, r3, #12
 8000ee8:	0017      	movs	r7, r2
 8000eea:	0b1b      	lsrs	r3, r3, #12
 8000eec:	4a06      	ldr	r2, [pc, #24]	; (8000f08 <__aeabi_ddiv+0x5f8>)
 8000eee:	e59d      	b.n	8000a2c <__aeabi_ddiv+0x11c>
 8000ef0:	42bd      	cmp	r5, r7
 8000ef2:	d8b2      	bhi.n	8000e5a <__aeabi_ddiv+0x54a>
 8000ef4:	469b      	mov	fp, r3
 8000ef6:	2400      	movs	r4, #0
 8000ef8:	e6bf      	b.n	8000c7a <__aeabi_ddiv+0x36a>
 8000efa:	4580      	cmp	r8, r0
 8000efc:	d3b9      	bcc.n	8000e72 <__aeabi_ddiv+0x562>
 8000efe:	001a      	movs	r2, r3
 8000f00:	e7c3      	b.n	8000e8a <__aeabi_ddiv+0x57a>
 8000f02:	46c0      	nop			; (mov r8, r8)
 8000f04:	000003ff 	.word	0x000003ff
 8000f08:	000007ff 	.word	0x000007ff
 8000f0c:	0000041e 	.word	0x0000041e
 8000f10:	0000043e 	.word	0x0000043e

08000f14 <__eqdf2>:
 8000f14:	b5f0      	push	{r4, r5, r6, r7, lr}
 8000f16:	464f      	mov	r7, r9
 8000f18:	4646      	mov	r6, r8
 8000f1a:	46d6      	mov	lr, sl
 8000f1c:	4684      	mov	ip, r0
 8000f1e:	b5c0      	push	{r6, r7, lr}
 8000f20:	4680      	mov	r8, r0
 8000f22:	4e19      	ldr	r6, [pc, #100]	; (8000f88 <__eqdf2+0x74>)
 8000f24:	0318      	lsls	r0, r3, #12
 8000f26:	030f      	lsls	r7, r1, #12
 8000f28:	004d      	lsls	r5, r1, #1
 8000f2a:	0b00      	lsrs	r0, r0, #12
 8000f2c:	005c      	lsls	r4, r3, #1
 8000f2e:	4682      	mov	sl, r0
 8000f30:	0b3f      	lsrs	r7, r7, #12
 8000f32:	0d6d      	lsrs	r5, r5, #21
 8000f34:	0fc9      	lsrs	r1, r1, #31
 8000f36:	4691      	mov	r9, r2
 8000f38:	0d64      	lsrs	r4, r4, #21
 8000f3a:	0fdb      	lsrs	r3, r3, #31
 8000f3c:	2001      	movs	r0, #1
 8000f3e:	42b5      	cmp	r5, r6
 8000f40:	d00a      	beq.n	8000f58 <__eqdf2+0x44>
 8000f42:	42b4      	cmp	r4, r6
 8000f44:	d003      	beq.n	8000f4e <__eqdf2+0x3a>
 8000f46:	42a5      	cmp	r5, r4
 8000f48:	d101      	bne.n	8000f4e <__eqdf2+0x3a>
 8000f4a:	4557      	cmp	r7, sl
 8000f4c:	d00c      	beq.n	8000f68 <__eqdf2+0x54>
 8000f4e:	bc1c      	pop	{r2, r3, r4}
 8000f50:	4690      	mov	r8, r2
 8000f52:	4699      	mov	r9, r3
 8000f54:	46a2      	mov	sl, r4
 8000f56:	bdf0      	pop	{r4, r5, r6, r7, pc}
 8000f58:	4666      	mov	r6, ip
 8000f5a:	433e      	orrs	r6, r7
 8000f5c:	d1f7      	bne.n	8000f4e <__eqdf2+0x3a>
 8000f5e:	42ac      	cmp	r4, r5
 8000f60:	d1f5      	bne.n	8000f4e <__eqdf2+0x3a>
 8000f62:	4654      	mov	r4, sl
 8000f64:	4314      	orrs	r4, r2
 8000f66:	d1f2      	bne.n	8000f4e <__eqdf2+0x3a>
 8000f68:	2001      	movs	r0, #1
 8000f6a:	45c8      	cmp	r8, r9
 8000f6c:	d1ef      	bne.n	8000f4e <__eqdf2+0x3a>
 8000f6e:	4299      	cmp	r1, r3
 8000f70:	d007      	beq.n	8000f82 <__eqdf2+0x6e>
 8000f72:	2d00      	cmp	r5, #0
 8000f74:	d1eb      	bne.n	8000f4e <__eqdf2+0x3a>
 8000f76:	4663      	mov	r3, ip
 8000f78:	431f      	orrs	r7, r3
 8000f7a:	0038      	movs	r0, r7
 8000f7c:	1e47      	subs	r7, r0, #1
 8000f7e:	41b8      	sbcs	r0, r7
 8000f80:	e7e5      	b.n	8000f4e <__eqdf2+0x3a>
 8000f82:	2000      	movs	r0, #0
 8000f84:	e7e3      	b.n	8000f4e <__eqdf2+0x3a>
 8000f86:	46c0      	nop			; (mov r8, r8)
 8000f88:	000007ff 	.word	0x000007ff

08000f8c <__gedf2>:
 8000f8c:	b5f0      	push	{r4, r5, r6, r7, lr}
 8000f8e:	464f      	mov	r7, r9
 8000f90:	4646      	mov	r6, r8
 8000f92:	46d6      	mov	lr, sl
 8000f94:	004d      	lsls	r5, r1, #1
 8000f96:	b5c0      	push	{r6, r7, lr}
 8000f98:	030e      	lsls	r6, r1, #12
 8000f9a:	0fc9      	lsrs	r1, r1, #31
 8000f9c:	468a      	mov	sl, r1
 8000f9e:	492c      	ldr	r1, [pc, #176]	; (8001050 <__gedf2+0xc4>)
 8000fa0:	031f      	lsls	r7, r3, #12
 8000fa2:	005c      	lsls	r4, r3, #1
 8000fa4:	4680      	mov	r8, r0
 8000fa6:	0b36      	lsrs	r6, r6, #12
 8000fa8:	0d6d      	lsrs	r5, r5, #21
 8000faa:	4691      	mov	r9, r2
 8000fac:	0b3f      	lsrs	r7, r7, #12
 8000fae:	0d64      	lsrs	r4, r4, #21
 8000fb0:	0fdb      	lsrs	r3, r3, #31
 8000fb2:	428d      	cmp	r5, r1
 8000fb4:	d01e      	beq.n	8000ff4 <__gedf2+0x68>
 8000fb6:	428c      	cmp	r4, r1
 8000fb8:	d016      	beq.n	8000fe8 <__gedf2+0x5c>
 8000fba:	2d00      	cmp	r5, #0
 8000fbc:	d11e      	bne.n	8000ffc <__gedf2+0x70>
 8000fbe:	4330      	orrs	r0, r6
 8000fc0:	4684      	mov	ip, r0
 8000fc2:	2c00      	cmp	r4, #0
 8000fc4:	d101      	bne.n	8000fca <__gedf2+0x3e>
 8000fc6:	433a      	orrs	r2, r7
 8000fc8:	d023      	beq.n	8001012 <__gedf2+0x86>
 8000fca:	4662      	mov	r2, ip
 8000fcc:	2a00      	cmp	r2, #0
 8000fce:	d01a      	beq.n	8001006 <__gedf2+0x7a>
 8000fd0:	459a      	cmp	sl, r3
 8000fd2:	d029      	beq.n	8001028 <__gedf2+0x9c>
 8000fd4:	4651      	mov	r1, sl
 8000fd6:	2002      	movs	r0, #2
 8000fd8:	3901      	subs	r1, #1
 8000fda:	4008      	ands	r0, r1
 8000fdc:	3801      	subs	r0, #1
 8000fde:	bc1c      	pop	{r2, r3, r4}
 8000fe0:	4690      	mov	r8, r2
 8000fe2:	4699      	mov	r9, r3
 8000fe4:	46a2      	mov	sl, r4
 8000fe6:	bdf0      	pop	{r4, r5, r6, r7, pc}
 8000fe8:	0039      	movs	r1, r7
 8000fea:	4311      	orrs	r1, r2
 8000fec:	d0e5      	beq.n	8000fba <__gedf2+0x2e>
 8000fee:	2002      	movs	r0, #2
 8000ff0:	4240      	negs	r0, r0
 8000ff2:	e7f4      	b.n	8000fde <__gedf2+0x52>
 8000ff4:	4330      	orrs	r0, r6
 8000ff6:	d1fa      	bne.n	8000fee <__gedf2+0x62>
 8000ff8:	42ac      	cmp	r4, r5
 8000ffa:	d00f      	beq.n	800101c <__gedf2+0x90>
 8000ffc:	2c00      	cmp	r4, #0
 8000ffe:	d10f      	bne.n	8001020 <__gedf2+0x94>
 8001000:	433a      	orrs	r2, r7
 8001002:	d0e7      	beq.n	8000fd4 <__gedf2+0x48>
 8001004:	e00c      	b.n	8001020 <__gedf2+0x94>
 8001006:	2201      	movs	r2, #1
 8001008:	3b01      	subs	r3, #1
 800100a:	4393      	bics	r3, r2
 800100c:	0018      	movs	r0, r3
 800100e:	3001      	adds	r0, #1
 8001010:	e7e5      	b.n	8000fde <__gedf2+0x52>
 8001012:	4663      	mov	r3, ip
 8001014:	2000      	movs	r0, #0
 8001016:	2b00      	cmp	r3, #0
 8001018:	d0e1      	beq.n	8000fde <__gedf2+0x52>
 800101a:	e7db      	b.n	8000fd4 <__gedf2+0x48>
 800101c:	433a      	orrs	r2, r7
 800101e:	d1e6      	bne.n	8000fee <__gedf2+0x62>
 8001020:	459a      	cmp	sl, r3
 8001022:	d1d7      	bne.n	8000fd4 <__gedf2+0x48>
 8001024:	42a5      	cmp	r5, r4
 8001026:	dcd5      	bgt.n	8000fd4 <__gedf2+0x48>
 8001028:	42a5      	cmp	r5, r4
 800102a:	db05      	blt.n	8001038 <__gedf2+0xac>
 800102c:	42be      	cmp	r6, r7
 800102e:	d8d1      	bhi.n	8000fd4 <__gedf2+0x48>
 8001030:	d008      	beq.n	8001044 <__gedf2+0xb8>
 8001032:	2000      	movs	r0, #0
 8001034:	42be      	cmp	r6, r7
 8001036:	d2d2      	bcs.n	8000fde <__gedf2+0x52>
 8001038:	4650      	mov	r0, sl
 800103a:	2301      	movs	r3, #1
 800103c:	3801      	subs	r0, #1
 800103e:	4398      	bics	r0, r3
 8001040:	3001      	adds	r0, #1
 8001042:	e7cc      	b.n	8000fde <__gedf2+0x52>
 8001044:	45c8      	cmp	r8, r9
 8001046:	d8c5      	bhi.n	8000fd4 <__gedf2+0x48>
 8001048:	2000      	movs	r0, #0
 800104a:	45c8      	cmp	r8, r9
 800104c:	d3f4      	bcc.n	8001038 <__gedf2+0xac>
 800104e:	e7c6      	b.n	8000fde <__gedf2+0x52>
 8001050:	000007ff 	.word	0x000007ff

08001054 <__ledf2>:
 8001054:	b5f0      	push	{r4, r5, r6, r7, lr}
 8001056:	464f      	mov	r7, r9
 8001058:	4646      	mov	r6, r8
 800105a:	46d6      	mov	lr, sl
 800105c:	004d      	lsls	r5, r1, #1
 800105e:	b5c0      	push	{r6, r7, lr}
 8001060:	030e      	lsls	r6, r1, #12
 8001062:	0fc9      	lsrs	r1, r1, #31
 8001064:	468a      	mov	sl, r1
 8001066:	492e      	ldr	r1, [pc, #184]	; (8001120 <__ledf2+0xcc>)
 8001068:	031f      	lsls	r7, r3, #12
 800106a:	005c      	lsls	r4, r3, #1
 800106c:	4680      	mov	r8, r0
 800106e:	0b36      	lsrs	r6, r6, #12
 8001070:	0d6d      	lsrs	r5, r5, #21
 8001072:	4691      	mov	r9, r2
 8001074:	0b3f      	lsrs	r7, r7, #12
 8001076:	0d64      	lsrs	r4, r4, #21
 8001078:	0fdb      	lsrs	r3, r3, #31
 800107a:	428d      	cmp	r5, r1
 800107c:	d018      	beq.n	80010b0 <__ledf2+0x5c>
 800107e:	428c      	cmp	r4, r1
 8001080:	d011      	beq.n	80010a6 <__ledf2+0x52>
 8001082:	2d00      	cmp	r5, #0
 8001084:	d118      	bne.n	80010b8 <__ledf2+0x64>
 8001086:	4330      	orrs	r0, r6
 8001088:	4684      	mov	ip, r0
 800108a:	2c00      	cmp	r4, #0
 800108c:	d11e      	bne.n	80010cc <__ledf2+0x78>
 800108e:	433a      	orrs	r2, r7
 8001090:	d11c      	bne.n	80010cc <__ledf2+0x78>
 8001092:	4663      	mov	r3, ip
 8001094:	2000      	movs	r0, #0
 8001096:	2b00      	cmp	r3, #0
 8001098:	d030      	beq.n	80010fc <__ledf2+0xa8>
 800109a:	4651      	mov	r1, sl
 800109c:	2002      	movs	r0, #2
 800109e:	3901      	subs	r1, #1
 80010a0:	4008      	ands	r0, r1
 80010a2:	3801      	subs	r0, #1
 80010a4:	e02a      	b.n	80010fc <__ledf2+0xa8>
 80010a6:	0039      	movs	r1, r7
 80010a8:	4311      	orrs	r1, r2
 80010aa:	d0ea      	beq.n	8001082 <__ledf2+0x2e>
 80010ac:	2002      	movs	r0, #2
 80010ae:	e025      	b.n	80010fc <__ledf2+0xa8>
 80010b0:	4330      	orrs	r0, r6
 80010b2:	d1fb      	bne.n	80010ac <__ledf2+0x58>
 80010b4:	42ac      	cmp	r4, r5
 80010b6:	d026      	beq.n	8001106 <__ledf2+0xb2>
 80010b8:	2c00      	cmp	r4, #0
 80010ba:	d126      	bne.n	800110a <__ledf2+0xb6>
 80010bc:	433a      	orrs	r2, r7
 80010be:	d124      	bne.n	800110a <__ledf2+0xb6>
 80010c0:	4651      	mov	r1, sl
 80010c2:	2002      	movs	r0, #2
 80010c4:	3901      	subs	r1, #1
 80010c6:	4008      	ands	r0, r1
 80010c8:	3801      	subs	r0, #1
 80010ca:	e017      	b.n	80010fc <__ledf2+0xa8>
 80010cc:	4662      	mov	r2, ip
 80010ce:	2a00      	cmp	r2, #0
 80010d0:	d00f      	beq.n	80010f2 <__ledf2+0x9e>
 80010d2:	459a      	cmp	sl, r3
 80010d4:	d1e1      	bne.n	800109a <__ledf2+0x46>
 80010d6:	42a5      	cmp	r5, r4
 80010d8:	db05      	blt.n	80010e6 <__ledf2+0x92>
 80010da:	42be      	cmp	r6, r7
 80010dc:	d8dd      	bhi.n	800109a <__ledf2+0x46>
 80010de:	d019      	beq.n	8001114 <__ledf2+0xc0>
 80010e0:	2000      	movs	r0, #0
 80010e2:	42be      	cmp	r6, r7
 80010e4:	d20a      	bcs.n	80010fc <__ledf2+0xa8>
 80010e6:	4650      	mov	r0, sl
 80010e8:	2301      	movs	r3, #1
 80010ea:	3801      	subs	r0, #1
 80010ec:	4398      	bics	r0, r3
 80010ee:	3001      	adds	r0, #1
 80010f0:	e004      	b.n	80010fc <__ledf2+0xa8>
 80010f2:	2201      	movs	r2, #1
 80010f4:	3b01      	subs	r3, #1
 80010f6:	4393      	bics	r3, r2
 80010f8:	0018      	movs	r0, r3
 80010fa:	3001      	adds	r0, #1
 80010fc:	bc1c      	pop	{r2, r3, r4}
 80010fe:	4690      	mov	r8, r2
 8001100:	4699      	mov	r9, r3
 8001102:	46a2      	mov	sl, r4
 8001104:	bdf0      	pop	{r4, r5, r6, r7, pc}
 8001106:	433a      	orrs	r2, r7
 8001108:	d1d0      	bne.n	80010ac <__ledf2+0x58>
 800110a:	459a      	cmp	sl, r3
 800110c:	d1c5      	bne.n	800109a <__ledf2+0x46>
 800110e:	42a5      	cmp	r5, r4
 8001110:	dcc3      	bgt.n	800109a <__ledf2+0x46>
 8001112:	e7e0      	b.n	80010d6 <__ledf2+0x82>
 8001114:	45c8      	cmp	r8, r9
 8001116:	d8c0      	bhi.n	800109a <__ledf2+0x46>
 8001118:	2000      	movs	r0, #0
 800111a:	45c8      	cmp	r8, r9
 800111c:	d3e3      	bcc.n	80010e6 <__ledf2+0x92>
 800111e:	e7ed      	b.n	80010fc <__ledf2+0xa8>
 8001120:	000007ff 	.word	0x000007ff

08001124 <__aeabi_dmul>:
 8001124:	b5f0      	push	{r4, r5, r6, r7, lr}
 8001126:	4657      	mov	r7, sl
 8001128:	46de      	mov	lr, fp
 800112a:	464e      	mov	r6, r9
 800112c:	4645      	mov	r5, r8
 800112e:	b5e0      	push	{r5, r6, r7, lr}
 8001130:	4683      	mov	fp, r0
 8001132:	0006      	movs	r6, r0
 8001134:	030f      	lsls	r7, r1, #12
 8001136:	0048      	lsls	r0, r1, #1
 8001138:	b087      	sub	sp, #28
 800113a:	4692      	mov	sl, r2
 800113c:	001d      	movs	r5, r3
 800113e:	0b3f      	lsrs	r7, r7, #12
 8001140:	0d40      	lsrs	r0, r0, #21
 8001142:	0fcc      	lsrs	r4, r1, #31
 8001144:	2800      	cmp	r0, #0
 8001146:	d100      	bne.n	800114a <__aeabi_dmul+0x26>
 8001148:	e06f      	b.n	800122a <__aeabi_dmul+0x106>
 800114a:	4bde      	ldr	r3, [pc, #888]	; (80014c4 <__aeabi_dmul+0x3a0>)
 800114c:	4298      	cmp	r0, r3
 800114e:	d038      	beq.n	80011c2 <__aeabi_dmul+0x9e>
 8001150:	2380      	movs	r3, #128	; 0x80
 8001152:	00ff      	lsls	r7, r7, #3
 8001154:	041b      	lsls	r3, r3, #16
 8001156:	431f      	orrs	r7, r3
 8001158:	0f73      	lsrs	r3, r6, #29
 800115a:	433b      	orrs	r3, r7
 800115c:	9301      	str	r3, [sp, #4]
 800115e:	4bda      	ldr	r3, [pc, #872]	; (80014c8 <__aeabi_dmul+0x3a4>)
 8001160:	2700      	movs	r7, #0
 8001162:	4699      	mov	r9, r3
 8001164:	2300      	movs	r3, #0
 8001166:	469b      	mov	fp, r3
 8001168:	00f6      	lsls	r6, r6, #3
 800116a:	4481      	add	r9, r0
 800116c:	032b      	lsls	r3, r5, #12
 800116e:	0069      	lsls	r1, r5, #1
 8001170:	0b1b      	lsrs	r3, r3, #12
 8001172:	4652      	mov	r2, sl
 8001174:	4698      	mov	r8, r3
 8001176:	0d49      	lsrs	r1, r1, #21
 8001178:	0fed      	lsrs	r5, r5, #31
 800117a:	2900      	cmp	r1, #0
 800117c:	d100      	bne.n	8001180 <__aeabi_dmul+0x5c>
 800117e:	e085      	b.n	800128c <__aeabi_dmul+0x168>
 8001180:	4bd0      	ldr	r3, [pc, #832]	; (80014c4 <__aeabi_dmul+0x3a0>)
 8001182:	4299      	cmp	r1, r3
 8001184:	d100      	bne.n	8001188 <__aeabi_dmul+0x64>
 8001186:	e073      	b.n	8001270 <__aeabi_dmul+0x14c>
 8001188:	4643      	mov	r3, r8
 800118a:	00da      	lsls	r2, r3, #3
 800118c:	2380      	movs	r3, #128	; 0x80
 800118e:	041b      	lsls	r3, r3, #16
 8001190:	4313      	orrs	r3, r2
 8001192:	4652      	mov	r2, sl
 8001194:	48cc      	ldr	r0, [pc, #816]	; (80014c8 <__aeabi_dmul+0x3a4>)
 8001196:	0f52      	lsrs	r2, r2, #29
 8001198:	4684      	mov	ip, r0
 800119a:	4313      	orrs	r3, r2
 800119c:	4652      	mov	r2, sl
 800119e:	2000      	movs	r0, #0
 80011a0:	4461      	add	r1, ip
 80011a2:	00d2      	lsls	r2, r2, #3
 80011a4:	4489      	add	r9, r1
 80011a6:	0021      	movs	r1, r4
 80011a8:	4069      	eors	r1, r5
 80011aa:	9100      	str	r1, [sp, #0]
 80011ac:	468c      	mov	ip, r1
 80011ae:	2101      	movs	r1, #1
 80011b0:	4449      	add	r1, r9
 80011b2:	468a      	mov	sl, r1
 80011b4:	2f0f      	cmp	r7, #15
 80011b6:	d900      	bls.n	80011ba <__aeabi_dmul+0x96>
 80011b8:	e090      	b.n	80012dc <__aeabi_dmul+0x1b8>
 80011ba:	49c4      	ldr	r1, [pc, #784]	; (80014cc <__aeabi_dmul+0x3a8>)
 80011bc:	00bf      	lsls	r7, r7, #2
 80011be:	59cf      	ldr	r7, [r1, r7]
 80011c0:	46bf      	mov	pc, r7
 80011c2:	465b      	mov	r3, fp
 80011c4:	433b      	orrs	r3, r7
 80011c6:	9301      	str	r3, [sp, #4]
 80011c8:	d000      	beq.n	80011cc <__aeabi_dmul+0xa8>
 80011ca:	e16a      	b.n	80014a2 <__aeabi_dmul+0x37e>
 80011cc:	2302      	movs	r3, #2
 80011ce:	2708      	movs	r7, #8
 80011d0:	2600      	movs	r6, #0
 80011d2:	4681      	mov	r9, r0
 80011d4:	469b      	mov	fp, r3
 80011d6:	e7c9      	b.n	800116c <__aeabi_dmul+0x48>
 80011d8:	0032      	movs	r2, r6
 80011da:	4658      	mov	r0, fp
 80011dc:	9b01      	ldr	r3, [sp, #4]
 80011de:	4661      	mov	r1, ip
 80011e0:	9100      	str	r1, [sp, #0]
 80011e2:	2802      	cmp	r0, #2
 80011e4:	d100      	bne.n	80011e8 <__aeabi_dmul+0xc4>
 80011e6:	e075      	b.n	80012d4 <__aeabi_dmul+0x1b0>
 80011e8:	2803      	cmp	r0, #3
 80011ea:	d100      	bne.n	80011ee <__aeabi_dmul+0xca>
 80011ec:	e1fe      	b.n	80015ec <__aeabi_dmul+0x4c8>
 80011ee:	2801      	cmp	r0, #1
 80011f0:	d000      	beq.n	80011f4 <__aeabi_dmul+0xd0>
 80011f2:	e12c      	b.n	800144e <__aeabi_dmul+0x32a>
 80011f4:	2300      	movs	r3, #0
 80011f6:	2700      	movs	r7, #0
 80011f8:	2600      	movs	r6, #0
 80011fa:	2500      	movs	r5, #0
 80011fc:	033f      	lsls	r7, r7, #12
 80011fe:	0d2a      	lsrs	r2, r5, #20
 8001200:	0b3f      	lsrs	r7, r7, #12
 8001202:	48b3      	ldr	r0, [pc, #716]	; (80014d0 <__aeabi_dmul+0x3ac>)
 8001204:	0512      	lsls	r2, r2, #20
 8001206:	433a      	orrs	r2, r7
 8001208:	4002      	ands	r2, r0
 800120a:	051b      	lsls	r3, r3, #20
 800120c:	4313      	orrs	r3, r2
 800120e:	9a00      	ldr	r2, [sp, #0]
 8001210:	005b      	lsls	r3, r3, #1
 8001212:	07d1      	lsls	r1, r2, #31
 8001214:	085b      	lsrs	r3, r3, #1
 8001216:	430b      	orrs	r3, r1
 8001218:	0030      	movs	r0, r6
 800121a:	0019      	movs	r1, r3
 800121c:	b007      	add	sp, #28
 800121e:	bc3c      	pop	{r2, r3, r4, r5}
 8001220:	4690      	mov	r8, r2
 8001222:	4699      	mov	r9, r3
 8001224:	46a2      	mov	sl, r4
 8001226:	46ab      	mov	fp, r5
 8001228:	bdf0      	pop	{r4, r5, r6, r7, pc}
 800122a:	465b      	mov	r3, fp
 800122c:	433b      	orrs	r3, r7
 800122e:	9301      	str	r3, [sp, #4]
 8001230:	d100      	bne.n	8001234 <__aeabi_dmul+0x110>
 8001232:	e12f      	b.n	8001494 <__aeabi_dmul+0x370>
 8001234:	2f00      	cmp	r7, #0
 8001236:	d100      	bne.n	800123a <__aeabi_dmul+0x116>
 8001238:	e1a5      	b.n	8001586 <__aeabi_dmul+0x462>
 800123a:	0038      	movs	r0, r7
 800123c:	f000 fdb0 	bl	8001da0 <__clzsi2>
 8001240:	0003      	movs	r3, r0
 8001242:	3b0b      	subs	r3, #11
 8001244:	2b1c      	cmp	r3, #28
 8001246:	dd00      	ble.n	800124a <__aeabi_dmul+0x126>
 8001248:	e196      	b.n	8001578 <__aeabi_dmul+0x454>
 800124a:	221d      	movs	r2, #29
 800124c:	1ad3      	subs	r3, r2, r3
 800124e:	465a      	mov	r2, fp
 8001250:	0001      	movs	r1, r0
 8001252:	40da      	lsrs	r2, r3
 8001254:	465e      	mov	r6, fp
 8001256:	3908      	subs	r1, #8
 8001258:	408f      	lsls	r7, r1
 800125a:	0013      	movs	r3, r2
 800125c:	408e      	lsls	r6, r1
 800125e:	433b      	orrs	r3, r7
 8001260:	9301      	str	r3, [sp, #4]
 8001262:	4b9c      	ldr	r3, [pc, #624]	; (80014d4 <__aeabi_dmul+0x3b0>)
 8001264:	2700      	movs	r7, #0
 8001266:	1a1b      	subs	r3, r3, r0
 8001268:	4699      	mov	r9, r3
 800126a:	2300      	movs	r3, #0
 800126c:	469b      	mov	fp, r3
 800126e:	e77d      	b.n	800116c <__aeabi_dmul+0x48>
 8001270:	4641      	mov	r1, r8
 8001272:	4653      	mov	r3, sl
 8001274:	430b      	orrs	r3, r1
 8001276:	4993      	ldr	r1, [pc, #588]	; (80014c4 <__aeabi_dmul+0x3a0>)
 8001278:	468c      	mov	ip, r1
 800127a:	44e1      	add	r9, ip
 800127c:	2b00      	cmp	r3, #0
 800127e:	d000      	beq.n	8001282 <__aeabi_dmul+0x15e>
 8001280:	e11a      	b.n	80014b8 <__aeabi_dmul+0x394>
 8001282:	2202      	movs	r2, #2
 8001284:	2002      	movs	r0, #2
 8001286:	4317      	orrs	r7, r2
 8001288:	2200      	movs	r2, #0
 800128a:	e78c      	b.n	80011a6 <__aeabi_dmul+0x82>
 800128c:	4313      	orrs	r3, r2
 800128e:	d100      	bne.n	8001292 <__aeabi_dmul+0x16e>
 8001290:	e10d      	b.n	80014ae <__aeabi_dmul+0x38a>
 8001292:	4643      	mov	r3, r8
 8001294:	2b00      	cmp	r3, #0
 8001296:	d100      	bne.n	800129a <__aeabi_dmul+0x176>
 8001298:	e181      	b.n	800159e <__aeabi_dmul+0x47a>
 800129a:	4640      	mov	r0, r8
 800129c:	f000 fd80 	bl	8001da0 <__clzsi2>
 80012a0:	0002      	movs	r2, r0
 80012a2:	3a0b      	subs	r2, #11
 80012a4:	2a1c      	cmp	r2, #28
 80012a6:	dd00      	ble.n	80012aa <__aeabi_dmul+0x186>
 80012a8:	e172      	b.n	8001590 <__aeabi_dmul+0x46c>
 80012aa:	0001      	movs	r1, r0
 80012ac:	4643      	mov	r3, r8
 80012ae:	3908      	subs	r1, #8
 80012b0:	408b      	lsls	r3, r1
 80012b2:	4698      	mov	r8, r3
 80012b4:	231d      	movs	r3, #29
 80012b6:	1a9a      	subs	r2, r3, r2
 80012b8:	4653      	mov	r3, sl
 80012ba:	40d3      	lsrs	r3, r2
 80012bc:	001a      	movs	r2, r3
 80012be:	4643      	mov	r3, r8
 80012c0:	4313      	orrs	r3, r2
 80012c2:	4652      	mov	r2, sl
 80012c4:	408a      	lsls	r2, r1
 80012c6:	4649      	mov	r1, r9
 80012c8:	1a08      	subs	r0, r1, r0
 80012ca:	4982      	ldr	r1, [pc, #520]	; (80014d4 <__aeabi_dmul+0x3b0>)
 80012cc:	4689      	mov	r9, r1
 80012ce:	4481      	add	r9, r0
 80012d0:	2000      	movs	r0, #0
 80012d2:	e768      	b.n	80011a6 <__aeabi_dmul+0x82>
 80012d4:	4b7b      	ldr	r3, [pc, #492]	; (80014c4 <__aeabi_dmul+0x3a0>)
 80012d6:	2700      	movs	r7, #0
 80012d8:	2600      	movs	r6, #0
 80012da:	e78e      	b.n	80011fa <__aeabi_dmul+0xd6>
 80012dc:	0c14      	lsrs	r4, r2, #16
 80012de:	0412      	lsls	r2, r2, #16
 80012e0:	0c12      	lsrs	r2, r2, #16
 80012e2:	0011      	movs	r1, r2
 80012e4:	0c37      	lsrs	r7, r6, #16
 80012e6:	0436      	lsls	r6, r6, #16
 80012e8:	0c35      	lsrs	r5, r6, #16
 80012ea:	4379      	muls	r1, r7
 80012ec:	0028      	movs	r0, r5
 80012ee:	468c      	mov	ip, r1
 80012f0:	002e      	movs	r6, r5
 80012f2:	4360      	muls	r0, r4
 80012f4:	4460      	add	r0, ip
 80012f6:	4683      	mov	fp, r0
 80012f8:	4356      	muls	r6, r2
 80012fa:	0021      	movs	r1, r4
 80012fc:	0c30      	lsrs	r0, r6, #16
 80012fe:	4680      	mov	r8, r0
 8001300:	4658      	mov	r0, fp
 8001302:	4379      	muls	r1, r7
 8001304:	4440      	add	r0, r8
 8001306:	9102      	str	r1, [sp, #8]
 8001308:	4584      	cmp	ip, r0
 800130a:	d906      	bls.n	800131a <__aeabi_dmul+0x1f6>
 800130c:	4688      	mov	r8, r1
 800130e:	2180      	movs	r1, #128	; 0x80
 8001310:	0249      	lsls	r1, r1, #9
 8001312:	468c      	mov	ip, r1
 8001314:	44e0      	add	r8, ip
 8001316:	4641      	mov	r1, r8
 8001318:	9102      	str	r1, [sp, #8]
 800131a:	0436      	lsls	r6, r6, #16
 800131c:	0c01      	lsrs	r1, r0, #16
 800131e:	0c36      	lsrs	r6, r6, #16
 8001320:	0400      	lsls	r0, r0, #16
 8001322:	468b      	mov	fp, r1
 8001324:	1981      	adds	r1, r0, r6
 8001326:	0c1e      	lsrs	r6, r3, #16
 8001328:	041b      	lsls	r3, r3, #16
 800132a:	0c1b      	lsrs	r3, r3, #16
 800132c:	9103      	str	r1, [sp, #12]
 800132e:	0019      	movs	r1, r3
 8001330:	4379      	muls	r1, r7
 8001332:	468c      	mov	ip, r1
 8001334:	0028      	movs	r0, r5
 8001336:	4375      	muls	r5, r6
 8001338:	4465      	add	r5, ip
 800133a:	46a8      	mov	r8, r5
 800133c:	4358      	muls	r0, r3
 800133e:	0c05      	lsrs	r5, r0, #16
 8001340:	4445      	add	r5, r8
 8001342:	4377      	muls	r7, r6
 8001344:	42a9      	cmp	r1, r5
 8001346:	d903      	bls.n	8001350 <__aeabi_dmul+0x22c>
 8001348:	2180      	movs	r1, #128	; 0x80
 800134a:	0249      	lsls	r1, r1, #9
 800134c:	468c      	mov	ip, r1
 800134e:	4467      	add	r7, ip
 8001350:	0c29      	lsrs	r1, r5, #16
 8001352:	468c      	mov	ip, r1
 8001354:	0039      	movs	r1, r7
 8001356:	0400      	lsls	r0, r0, #16
 8001358:	0c00      	lsrs	r0, r0, #16
 800135a:	042d      	lsls	r5, r5, #16
 800135c:	182d      	adds	r5, r5, r0
 800135e:	4461      	add	r1, ip
 8001360:	44ab      	add	fp, r5
 8001362:	9105      	str	r1, [sp, #20]
 8001364:	4659      	mov	r1, fp
 8001366:	9104      	str	r1, [sp, #16]
 8001368:	9901      	ldr	r1, [sp, #4]
 800136a:	040f      	lsls	r7, r1, #16
 800136c:	0c3f      	lsrs	r7, r7, #16
 800136e:	0c08      	lsrs	r0, r1, #16
 8001370:	0039      	movs	r1, r7
 8001372:	4351      	muls	r1, r2
 8001374:	4342      	muls	r2, r0
 8001376:	4690      	mov	r8, r2
 8001378:	0002      	movs	r2, r0
 800137a:	468c      	mov	ip, r1
 800137c:	0c09      	lsrs	r1, r1, #16
 800137e:	468b      	mov	fp, r1
 8001380:	4362      	muls	r2, r4
 8001382:	437c      	muls	r4, r7
 8001384:	4444      	add	r4, r8
 8001386:	445c      	add	r4, fp
 8001388:	45a0      	cmp	r8, r4
 800138a:	d903      	bls.n	8001394 <__aeabi_dmul+0x270>
 800138c:	2180      	movs	r1, #128	; 0x80
 800138e:	0249      	lsls	r1, r1, #9
 8001390:	4688      	mov	r8, r1
 8001392:	4442      	add	r2, r8
 8001394:	0c21      	lsrs	r1, r4, #16
 8001396:	4688      	mov	r8, r1
 8001398:	4661      	mov	r1, ip
 800139a:	0409      	lsls	r1, r1, #16
 800139c:	0c09      	lsrs	r1, r1, #16
 800139e:	468c      	mov	ip, r1
 80013a0:	0039      	movs	r1, r7
 80013a2:	4359      	muls	r1, r3
 80013a4:	4343      	muls	r3, r0
 80013a6:	4370      	muls	r0, r6
 80013a8:	437e      	muls	r6, r7
 80013aa:	0c0f      	lsrs	r7, r1, #16
 80013ac:	18f6      	adds	r6, r6, r3
 80013ae:	0424      	lsls	r4, r4, #16
 80013b0:	19be      	adds	r6, r7, r6
 80013b2:	4464      	add	r4, ip
 80013b4:	4442      	add	r2, r8
 80013b6:	468c      	mov	ip, r1
 80013b8:	42b3      	cmp	r3, r6
 80013ba:	d903      	bls.n	80013c4 <__aeabi_dmul+0x2a0>
 80013bc:	2380      	movs	r3, #128	; 0x80
 80013be:	025b      	lsls	r3, r3, #9
 80013c0:	4698      	mov	r8, r3
 80013c2:	4440      	add	r0, r8
 80013c4:	9b02      	ldr	r3, [sp, #8]
 80013c6:	4661      	mov	r1, ip
 80013c8:	4698      	mov	r8, r3
 80013ca:	9b04      	ldr	r3, [sp, #16]
 80013cc:	0437      	lsls	r7, r6, #16
 80013ce:	4443      	add	r3, r8
 80013d0:	469b      	mov	fp, r3
 80013d2:	45ab      	cmp	fp, r5
 80013d4:	41ad      	sbcs	r5, r5
 80013d6:	426b      	negs	r3, r5
 80013d8:	040d      	lsls	r5, r1, #16
 80013da:	9905      	ldr	r1, [sp, #20]
 80013dc:	0c2d      	lsrs	r5, r5, #16
 80013de:	468c      	mov	ip, r1
 80013e0:	197f      	adds	r7, r7, r5
 80013e2:	4467      	add	r7, ip
 80013e4:	18fd      	adds	r5, r7, r3
 80013e6:	46a8      	mov	r8, r5
 80013e8:	465d      	mov	r5, fp
 80013ea:	192d      	adds	r5, r5, r4
 80013ec:	42a5      	cmp	r5, r4
 80013ee:	41a4      	sbcs	r4, r4
 80013f0:	4693      	mov	fp, r2
 80013f2:	4264      	negs	r4, r4
 80013f4:	46a4      	mov	ip, r4
 80013f6:	44c3      	add	fp, r8
 80013f8:	44dc      	add	ip, fp
 80013fa:	428f      	cmp	r7, r1
 80013fc:	41bf      	sbcs	r7, r7
 80013fe:	4598      	cmp	r8, r3
 8001400:	419b      	sbcs	r3, r3
 8001402:	4593      	cmp	fp, r2
 8001404:	4192      	sbcs	r2, r2
 8001406:	45a4      	cmp	ip, r4
 8001408:	41a4      	sbcs	r4, r4
 800140a:	425b      	negs	r3, r3
 800140c:	427f      	negs	r7, r7
 800140e:	431f      	orrs	r7, r3
 8001410:	0c36      	lsrs	r6, r6, #16
 8001412:	4252      	negs	r2, r2
 8001414:	4264      	negs	r4, r4
 8001416:	19bf      	adds	r7, r7, r6
 8001418:	4322      	orrs	r2, r4
 800141a:	18bf      	adds	r7, r7, r2
 800141c:	4662      	mov	r2, ip
 800141e:	1838      	adds	r0, r7, r0
 8001420:	0243      	lsls	r3, r0, #9
 8001422:	0dd2      	lsrs	r2, r2, #23
 8001424:	9903      	ldr	r1, [sp, #12]
 8001426:	4313      	orrs	r3, r2
 8001428:	026a      	lsls	r2, r5, #9
 800142a:	430a      	orrs	r2, r1
 800142c:	1e50      	subs	r0, r2, #1
 800142e:	4182      	sbcs	r2, r0
 8001430:	4661      	mov	r1, ip
 8001432:	0ded      	lsrs	r5, r5, #23
 8001434:	432a      	orrs	r2, r5
 8001436:	024e      	lsls	r6, r1, #9
 8001438:	4332      	orrs	r2, r6
 800143a:	01d9      	lsls	r1, r3, #7
 800143c:	d400      	bmi.n	8001440 <__aeabi_dmul+0x31c>
 800143e:	e0b3      	b.n	80015a8 <__aeabi_dmul+0x484>
 8001440:	2601      	movs	r6, #1
 8001442:	0850      	lsrs	r0, r2, #1
 8001444:	4032      	ands	r2, r6
 8001446:	4302      	orrs	r2, r0
 8001448:	07de      	lsls	r6, r3, #31
 800144a:	4332      	orrs	r2, r6
 800144c:	085b      	lsrs	r3, r3, #1
 800144e:	4c22      	ldr	r4, [pc, #136]	; (80014d8 <__aeabi_dmul+0x3b4>)
 8001450:	4454      	add	r4, sl
 8001452:	2c00      	cmp	r4, #0
 8001454:	dd62      	ble.n	800151c <__aeabi_dmul+0x3f8>
 8001456:	0751      	lsls	r1, r2, #29
 8001458:	d009      	beq.n	800146e <__aeabi_dmul+0x34a>
 800145a:	200f      	movs	r0, #15
 800145c:	4010      	ands	r0, r2
 800145e:	2804      	cmp	r0, #4
 8001460:	d005      	beq.n	800146e <__aeabi_dmul+0x34a>
 8001462:	1d10      	adds	r0, r2, #4
 8001464:	4290      	cmp	r0, r2
 8001466:	4192      	sbcs	r2, r2
 8001468:	4252      	negs	r2, r2
 800146a:	189b      	adds	r3, r3, r2
 800146c:	0002      	movs	r2, r0
 800146e:	01d9      	lsls	r1, r3, #7
 8001470:	d504      	bpl.n	800147c <__aeabi_dmul+0x358>
 8001472:	2480      	movs	r4, #128	; 0x80
 8001474:	4819      	ldr	r0, [pc, #100]	; (80014dc <__aeabi_dmul+0x3b8>)
 8001476:	00e4      	lsls	r4, r4, #3
 8001478:	4003      	ands	r3, r0
 800147a:	4454      	add	r4, sl
 800147c:	4818      	ldr	r0, [pc, #96]	; (80014e0 <__aeabi_dmul+0x3bc>)
 800147e:	4284      	cmp	r4, r0
 8001480:	dd00      	ble.n	8001484 <__aeabi_dmul+0x360>
 8001482:	e727      	b.n	80012d4 <__aeabi_dmul+0x1b0>
 8001484:	075e      	lsls	r6, r3, #29
 8001486:	025b      	lsls	r3, r3, #9
 8001488:	08d2      	lsrs	r2, r2, #3
 800148a:	0b1f      	lsrs	r7, r3, #12
 800148c:	0563      	lsls	r3, r4, #21
 800148e:	4316      	orrs	r6, r2
 8001490:	0d5b      	lsrs	r3, r3, #21
 8001492:	e6b2      	b.n	80011fa <__aeabi_dmul+0xd6>
 8001494:	2300      	movs	r3, #0
 8001496:	4699      	mov	r9, r3
 8001498:	3301      	adds	r3, #1
 800149a:	2704      	movs	r7, #4
 800149c:	2600      	movs	r6, #0
 800149e:	469b      	mov	fp, r3
 80014a0:	e664      	b.n	800116c <__aeabi_dmul+0x48>
 80014a2:	2303      	movs	r3, #3
 80014a4:	9701      	str	r7, [sp, #4]
 80014a6:	4681      	mov	r9, r0
 80014a8:	270c      	movs	r7, #12
 80014aa:	469b      	mov	fp, r3
 80014ac:	e65e      	b.n	800116c <__aeabi_dmul+0x48>
 80014ae:	2201      	movs	r2, #1
 80014b0:	2001      	movs	r0, #1
 80014b2:	4317      	orrs	r7, r2
 80014b4:	2200      	movs	r2, #0
 80014b6:	e676      	b.n	80011a6 <__aeabi_dmul+0x82>
 80014b8:	2303      	movs	r3, #3
 80014ba:	2003      	movs	r0, #3
 80014bc:	431f      	orrs	r7, r3
 80014be:	4643      	mov	r3, r8
 80014c0:	e671      	b.n	80011a6 <__aeabi_dmul+0x82>
 80014c2:	46c0      	nop			; (mov r8, r8)
 80014c4:	000007ff 	.word	0x000007ff
 80014c8:	fffffc01 	.word	0xfffffc01
 80014cc:	08004404 	.word	0x08004404
 80014d0:	800fffff 	.word	0x800fffff
 80014d4:	fffffc0d 	.word	0xfffffc0d
 80014d8:	000003ff 	.word	0x000003ff
 80014dc:	feffffff 	.word	0xfeffffff
 80014e0:	000007fe 	.word	0x000007fe
 80014e4:	2300      	movs	r3, #0
 80014e6:	2780      	movs	r7, #128	; 0x80
 80014e8:	9300      	str	r3, [sp, #0]
 80014ea:	033f      	lsls	r7, r7, #12
 80014ec:	2600      	movs	r6, #0
 80014ee:	4b43      	ldr	r3, [pc, #268]	; (80015fc <__aeabi_dmul+0x4d8>)
 80014f0:	e683      	b.n	80011fa <__aeabi_dmul+0xd6>
 80014f2:	9b01      	ldr	r3, [sp, #4]
 80014f4:	0032      	movs	r2, r6
 80014f6:	46a4      	mov	ip, r4
 80014f8:	4658      	mov	r0, fp
 80014fa:	e670      	b.n	80011de <__aeabi_dmul+0xba>
 80014fc:	46ac      	mov	ip, r5
 80014fe:	e66e      	b.n	80011de <__aeabi_dmul+0xba>
 8001500:	2780      	movs	r7, #128	; 0x80
 8001502:	9901      	ldr	r1, [sp, #4]
 8001504:	033f      	lsls	r7, r7, #12
 8001506:	4239      	tst	r1, r7
 8001508:	d02d      	beq.n	8001566 <__aeabi_dmul+0x442>
 800150a:	423b      	tst	r3, r7
 800150c:	d12b      	bne.n	8001566 <__aeabi_dmul+0x442>
 800150e:	431f      	orrs	r7, r3
 8001510:	033f      	lsls	r7, r7, #12
 8001512:	0b3f      	lsrs	r7, r7, #12
 8001514:	9500      	str	r5, [sp, #0]
 8001516:	0016      	movs	r6, r2
 8001518:	4b38      	ldr	r3, [pc, #224]	; (80015fc <__aeabi_dmul+0x4d8>)
 800151a:	e66e      	b.n	80011fa <__aeabi_dmul+0xd6>
 800151c:	2501      	movs	r5, #1
 800151e:	1b2d      	subs	r5, r5, r4
 8001520:	2d38      	cmp	r5, #56	; 0x38
 8001522:	dd00      	ble.n	8001526 <__aeabi_dmul+0x402>
 8001524:	e666      	b.n	80011f4 <__aeabi_dmul+0xd0>
 8001526:	2d1f      	cmp	r5, #31
 8001528:	dc40      	bgt.n	80015ac <__aeabi_dmul+0x488>
 800152a:	4835      	ldr	r0, [pc, #212]	; (8001600 <__aeabi_dmul+0x4dc>)
 800152c:	001c      	movs	r4, r3
 800152e:	4450      	add	r0, sl
 8001530:	0016      	movs	r6, r2
 8001532:	4082      	lsls	r2, r0
 8001534:	4084      	lsls	r4, r0
 8001536:	40ee      	lsrs	r6, r5
 8001538:	1e50      	subs	r0, r2, #1
 800153a:	4182      	sbcs	r2, r0
 800153c:	4334      	orrs	r4, r6
 800153e:	4314      	orrs	r4, r2
 8001540:	40eb      	lsrs	r3, r5
 8001542:	0762      	lsls	r2, r4, #29
 8001544:	d009      	beq.n	800155a <__aeabi_dmul+0x436>
 8001546:	220f      	movs	r2, #15
 8001548:	4022      	ands	r2, r4
 800154a:	2a04      	cmp	r2, #4
 800154c:	d005      	beq.n	800155a <__aeabi_dmul+0x436>
 800154e:	0022      	movs	r2, r4
 8001550:	1d14      	adds	r4, r2, #4
 8001552:	4294      	cmp	r4, r2
 8001554:	4180      	sbcs	r0, r0
 8001556:	4240      	negs	r0, r0
 8001558:	181b      	adds	r3, r3, r0
 800155a:	021a      	lsls	r2, r3, #8
 800155c:	d53e      	bpl.n	80015dc <__aeabi_dmul+0x4b8>
 800155e:	2301      	movs	r3, #1
 8001560:	2700      	movs	r7, #0
 8001562:	2600      	movs	r6, #0
 8001564:	e649      	b.n	80011fa <__aeabi_dmul+0xd6>
 8001566:	2780      	movs	r7, #128	; 0x80
 8001568:	9b01      	ldr	r3, [sp, #4]
 800156a:	033f      	lsls	r7, r7, #12
 800156c:	431f      	orrs	r7, r3
 800156e:	033f      	lsls	r7, r7, #12
 8001570:	0b3f      	lsrs	r7, r7, #12
 8001572:	9400      	str	r4, [sp, #0]
 8001574:	4b21      	ldr	r3, [pc, #132]	; (80015fc <__aeabi_dmul+0x4d8>)
 8001576:	e640      	b.n	80011fa <__aeabi_dmul+0xd6>
 8001578:	0003      	movs	r3, r0
 800157a:	465a      	mov	r2, fp
 800157c:	3b28      	subs	r3, #40	; 0x28
 800157e:	409a      	lsls	r2, r3
 8001580:	2600      	movs	r6, #0
 8001582:	9201      	str	r2, [sp, #4]
 8001584:	e66d      	b.n	8001262 <__aeabi_dmul+0x13e>
 8001586:	4658      	mov	r0, fp
 8001588:	f000 fc0a 	bl	8001da0 <__clzsi2>
 800158c:	3020      	adds	r0, #32
 800158e:	e657      	b.n	8001240 <__aeabi_dmul+0x11c>
 8001590:	0003      	movs	r3, r0
 8001592:	4652      	mov	r2, sl
 8001594:	3b28      	subs	r3, #40	; 0x28
 8001596:	409a      	lsls	r2, r3
 8001598:	0013      	movs	r3, r2
 800159a:	2200      	movs	r2, #0
 800159c:	e693      	b.n	80012c6 <__aeabi_dmul+0x1a2>
 800159e:	4650      	mov	r0, sl
 80015a0:	f000 fbfe 	bl	8001da0 <__clzsi2>
 80015a4:	3020      	adds	r0, #32
 80015a6:	e67b      	b.n	80012a0 <__aeabi_dmul+0x17c>
 80015a8:	46ca      	mov	sl, r9
 80015aa:	e750      	b.n	800144e <__aeabi_dmul+0x32a>
 80015ac:	201f      	movs	r0, #31
 80015ae:	001e      	movs	r6, r3
 80015b0:	4240      	negs	r0, r0
 80015b2:	1b04      	subs	r4, r0, r4
 80015b4:	40e6      	lsrs	r6, r4
 80015b6:	2d20      	cmp	r5, #32
 80015b8:	d003      	beq.n	80015c2 <__aeabi_dmul+0x49e>
 80015ba:	4c12      	ldr	r4, [pc, #72]	; (8001604 <__aeabi_dmul+0x4e0>)
 80015bc:	4454      	add	r4, sl
 80015be:	40a3      	lsls	r3, r4
 80015c0:	431a      	orrs	r2, r3
 80015c2:	1e50      	subs	r0, r2, #1
 80015c4:	4182      	sbcs	r2, r0
 80015c6:	4332      	orrs	r2, r6
 80015c8:	2607      	movs	r6, #7
 80015ca:	2700      	movs	r7, #0
 80015cc:	4016      	ands	r6, r2
 80015ce:	d009      	beq.n	80015e4 <__aeabi_dmul+0x4c0>
 80015d0:	200f      	movs	r0, #15
 80015d2:	2300      	movs	r3, #0
 80015d4:	4010      	ands	r0, r2
 80015d6:	0014      	movs	r4, r2
 80015d8:	2804      	cmp	r0, #4
 80015da:	d1b9      	bne.n	8001550 <__aeabi_dmul+0x42c>
 80015dc:	0022      	movs	r2, r4
 80015de:	075e      	lsls	r6, r3, #29
 80015e0:	025b      	lsls	r3, r3, #9
 80015e2:	0b1f      	lsrs	r7, r3, #12
 80015e4:	08d2      	lsrs	r2, r2, #3
 80015e6:	4316      	orrs	r6, r2
 80015e8:	2300      	movs	r3, #0
 80015ea:	e606      	b.n	80011fa <__aeabi_dmul+0xd6>
 80015ec:	2780      	movs	r7, #128	; 0x80
 80015ee:	033f      	lsls	r7, r7, #12
 80015f0:	431f      	orrs	r7, r3
 80015f2:	033f      	lsls	r7, r7, #12
 80015f4:	0b3f      	lsrs	r7, r7, #12
 80015f6:	0016      	movs	r6, r2
 80015f8:	4b00      	ldr	r3, [pc, #0]	; (80015fc <__aeabi_dmul+0x4d8>)
 80015fa:	e5fe      	b.n	80011fa <__aeabi_dmul+0xd6>
 80015fc:	000007ff 	.word	0x000007ff
 8001600:	0000041e 	.word	0x0000041e
 8001604:	0000043e 	.word	0x0000043e

08001608 <__aeabi_dsub>:
 8001608:	b5f8      	push	{r3, r4, r5, r6, r7, lr}
 800160a:	4657      	mov	r7, sl
 800160c:	464e      	mov	r6, r9
 800160e:	4645      	mov	r5, r8
 8001610:	46de      	mov	lr, fp
 8001612:	000c      	movs	r4, r1
 8001614:	0309      	lsls	r1, r1, #12
 8001616:	b5e0      	push	{r5, r6, r7, lr}
 8001618:	0a49      	lsrs	r1, r1, #9
 800161a:	0f46      	lsrs	r6, r0, #29
 800161c:	005f      	lsls	r7, r3, #1
 800161e:	4331      	orrs	r1, r6
 8001620:	031e      	lsls	r6, r3, #12
 8001622:	0fdb      	lsrs	r3, r3, #31
 8001624:	0a76      	lsrs	r6, r6, #9
 8001626:	469b      	mov	fp, r3
 8001628:	0f53      	lsrs	r3, r2, #29
 800162a:	4333      	orrs	r3, r6
 800162c:	4ec8      	ldr	r6, [pc, #800]	; (8001950 <__aeabi_dsub+0x348>)
 800162e:	0065      	lsls	r5, r4, #1
 8001630:	00c0      	lsls	r0, r0, #3
 8001632:	0fe4      	lsrs	r4, r4, #31
 8001634:	00d2      	lsls	r2, r2, #3
 8001636:	0d6d      	lsrs	r5, r5, #21
 8001638:	46a2      	mov	sl, r4
 800163a:	4681      	mov	r9, r0
 800163c:	0d7f      	lsrs	r7, r7, #21
 800163e:	469c      	mov	ip, r3
 8001640:	4690      	mov	r8, r2
 8001642:	42b7      	cmp	r7, r6
 8001644:	d100      	bne.n	8001648 <__aeabi_dsub+0x40>
 8001646:	e0b9      	b.n	80017bc <__aeabi_dsub+0x1b4>
 8001648:	465b      	mov	r3, fp
 800164a:	2601      	movs	r6, #1
 800164c:	4073      	eors	r3, r6
 800164e:	469b      	mov	fp, r3
 8001650:	1bee      	subs	r6, r5, r7
 8001652:	45a3      	cmp	fp, r4
 8001654:	d100      	bne.n	8001658 <__aeabi_dsub+0x50>
 8001656:	e083      	b.n	8001760 <__aeabi_dsub+0x158>
 8001658:	2e00      	cmp	r6, #0
 800165a:	dd63      	ble.n	8001724 <__aeabi_dsub+0x11c>
 800165c:	2f00      	cmp	r7, #0
 800165e:	d000      	beq.n	8001662 <__aeabi_dsub+0x5a>
 8001660:	e0b1      	b.n	80017c6 <__aeabi_dsub+0x1be>
 8001662:	4663      	mov	r3, ip
 8001664:	4313      	orrs	r3, r2
 8001666:	d100      	bne.n	800166a <__aeabi_dsub+0x62>
 8001668:	e123      	b.n	80018b2 <__aeabi_dsub+0x2aa>
 800166a:	1e73      	subs	r3, r6, #1
 800166c:	2b00      	cmp	r3, #0
 800166e:	d000      	beq.n	8001672 <__aeabi_dsub+0x6a>
 8001670:	e1ba      	b.n	80019e8 <__aeabi_dsub+0x3e0>
 8001672:	1a86      	subs	r6, r0, r2
 8001674:	4663      	mov	r3, ip
 8001676:	42b0      	cmp	r0, r6
 8001678:	4180      	sbcs	r0, r0
 800167a:	2501      	movs	r5, #1
 800167c:	1ac9      	subs	r1, r1, r3
 800167e:	4240      	negs	r0, r0
 8001680:	1a09      	subs	r1, r1, r0
 8001682:	020b      	lsls	r3, r1, #8
 8001684:	d400      	bmi.n	8001688 <__aeabi_dsub+0x80>
 8001686:	e147      	b.n	8001918 <__aeabi_dsub+0x310>
 8001688:	0249      	lsls	r1, r1, #9
 800168a:	0a4b      	lsrs	r3, r1, #9
 800168c:	4698      	mov	r8, r3
 800168e:	4643      	mov	r3, r8
 8001690:	2b00      	cmp	r3, #0
 8001692:	d100      	bne.n	8001696 <__aeabi_dsub+0x8e>
 8001694:	e189      	b.n	80019aa <__aeabi_dsub+0x3a2>
 8001696:	4640      	mov	r0, r8
 8001698:	f000 fb82 	bl	8001da0 <__clzsi2>
 800169c:	0003      	movs	r3, r0
 800169e:	3b08      	subs	r3, #8
 80016a0:	2b1f      	cmp	r3, #31
 80016a2:	dd00      	ble.n	80016a6 <__aeabi_dsub+0x9e>
 80016a4:	e17c      	b.n	80019a0 <__aeabi_dsub+0x398>
 80016a6:	2220      	movs	r2, #32
 80016a8:	0030      	movs	r0, r6
 80016aa:	1ad2      	subs	r2, r2, r3
 80016ac:	4641      	mov	r1, r8
 80016ae:	40d0      	lsrs	r0, r2
 80016b0:	4099      	lsls	r1, r3
 80016b2:	0002      	movs	r2, r0
 80016b4:	409e      	lsls	r6, r3
 80016b6:	430a      	orrs	r2, r1
 80016b8:	429d      	cmp	r5, r3
 80016ba:	dd00      	ble.n	80016be <__aeabi_dsub+0xb6>
 80016bc:	e16a      	b.n	8001994 <__aeabi_dsub+0x38c>
 80016be:	1b5d      	subs	r5, r3, r5
 80016c0:	1c6b      	adds	r3, r5, #1
 80016c2:	2b1f      	cmp	r3, #31
 80016c4:	dd00      	ble.n	80016c8 <__aeabi_dsub+0xc0>
 80016c6:	e194      	b.n	80019f2 <__aeabi_dsub+0x3ea>
 80016c8:	2120      	movs	r1, #32
 80016ca:	0010      	movs	r0, r2
 80016cc:	0035      	movs	r5, r6
 80016ce:	1ac9      	subs	r1, r1, r3
 80016d0:	408e      	lsls	r6, r1
 80016d2:	40da      	lsrs	r2, r3
 80016d4:	4088      	lsls	r0, r1
 80016d6:	40dd      	lsrs	r5, r3
 80016d8:	1e71      	subs	r1, r6, #1
 80016da:	418e      	sbcs	r6, r1
 80016dc:	0011      	movs	r1, r2
 80016de:	2207      	movs	r2, #7
 80016e0:	4328      	orrs	r0, r5
 80016e2:	2500      	movs	r5, #0
 80016e4:	4306      	orrs	r6, r0
 80016e6:	4032      	ands	r2, r6
 80016e8:	2a00      	cmp	r2, #0
 80016ea:	d009      	beq.n	8001700 <__aeabi_dsub+0xf8>
 80016ec:	230f      	movs	r3, #15
 80016ee:	4033      	ands	r3, r6
 80016f0:	2b04      	cmp	r3, #4
 80016f2:	d005      	beq.n	8001700 <__aeabi_dsub+0xf8>
 80016f4:	1d33      	adds	r3, r6, #4
 80016f6:	42b3      	cmp	r3, r6
 80016f8:	41b6      	sbcs	r6, r6
 80016fa:	4276      	negs	r6, r6
 80016fc:	1989      	adds	r1, r1, r6
 80016fe:	001e      	movs	r6, r3
 8001700:	020b      	lsls	r3, r1, #8
 8001702:	d400      	bmi.n	8001706 <__aeabi_dsub+0xfe>
 8001704:	e23d      	b.n	8001b82 <__aeabi_dsub+0x57a>
 8001706:	1c6a      	adds	r2, r5, #1
 8001708:	4b91      	ldr	r3, [pc, #580]	; (8001950 <__aeabi_dsub+0x348>)
 800170a:	0555      	lsls	r5, r2, #21
 800170c:	0d6d      	lsrs	r5, r5, #21
 800170e:	429a      	cmp	r2, r3
 8001710:	d100      	bne.n	8001714 <__aeabi_dsub+0x10c>
 8001712:	e119      	b.n	8001948 <__aeabi_dsub+0x340>
 8001714:	4a8f      	ldr	r2, [pc, #572]	; (8001954 <__aeabi_dsub+0x34c>)
 8001716:	08f6      	lsrs	r6, r6, #3
 8001718:	400a      	ands	r2, r1
 800171a:	0757      	lsls	r7, r2, #29
 800171c:	0252      	lsls	r2, r2, #9
 800171e:	4337      	orrs	r7, r6
 8001720:	0b12      	lsrs	r2, r2, #12
 8001722:	e09b      	b.n	800185c <__aeabi_dsub+0x254>
 8001724:	2e00      	cmp	r6, #0
 8001726:	d000      	beq.n	800172a <__aeabi_dsub+0x122>
 8001728:	e0c5      	b.n	80018b6 <__aeabi_dsub+0x2ae>
 800172a:	1c6e      	adds	r6, r5, #1
 800172c:	0576      	lsls	r6, r6, #21
 800172e:	0d76      	lsrs	r6, r6, #21
 8001730:	2e01      	cmp	r6, #1
 8001732:	dc00      	bgt.n	8001736 <__aeabi_dsub+0x12e>
 8001734:	e148      	b.n	80019c8 <__aeabi_dsub+0x3c0>
 8001736:	4667      	mov	r7, ip
 8001738:	1a86      	subs	r6, r0, r2
 800173a:	1bcb      	subs	r3, r1, r7
 800173c:	42b0      	cmp	r0, r6
 800173e:	41bf      	sbcs	r7, r7
 8001740:	427f      	negs	r7, r7
 8001742:	46b8      	mov	r8, r7
 8001744:	001f      	movs	r7, r3
 8001746:	4643      	mov	r3, r8
 8001748:	1aff      	subs	r7, r7, r3
 800174a:	003b      	movs	r3, r7
 800174c:	46b8      	mov	r8, r7
 800174e:	021b      	lsls	r3, r3, #8
 8001750:	d500      	bpl.n	8001754 <__aeabi_dsub+0x14c>
 8001752:	e15f      	b.n	8001a14 <__aeabi_dsub+0x40c>
 8001754:	4337      	orrs	r7, r6
 8001756:	d19a      	bne.n	800168e <__aeabi_dsub+0x86>
 8001758:	2200      	movs	r2, #0
 800175a:	2400      	movs	r4, #0
 800175c:	2500      	movs	r5, #0
 800175e:	e079      	b.n	8001854 <__aeabi_dsub+0x24c>
 8001760:	2e00      	cmp	r6, #0
 8001762:	dc00      	bgt.n	8001766 <__aeabi_dsub+0x15e>
 8001764:	e0fa      	b.n	800195c <__aeabi_dsub+0x354>
 8001766:	2f00      	cmp	r7, #0
 8001768:	d100      	bne.n	800176c <__aeabi_dsub+0x164>
 800176a:	e08d      	b.n	8001888 <__aeabi_dsub+0x280>
 800176c:	4b78      	ldr	r3, [pc, #480]	; (8001950 <__aeabi_dsub+0x348>)
 800176e:	429d      	cmp	r5, r3
 8001770:	d067      	beq.n	8001842 <__aeabi_dsub+0x23a>
 8001772:	2380      	movs	r3, #128	; 0x80
 8001774:	4667      	mov	r7, ip
 8001776:	041b      	lsls	r3, r3, #16
 8001778:	431f      	orrs	r7, r3
 800177a:	46bc      	mov	ip, r7
 800177c:	2e38      	cmp	r6, #56	; 0x38
 800177e:	dc00      	bgt.n	8001782 <__aeabi_dsub+0x17a>
 8001780:	e152      	b.n	8001a28 <__aeabi_dsub+0x420>
 8001782:	4663      	mov	r3, ip
 8001784:	4313      	orrs	r3, r2
 8001786:	1e5a      	subs	r2, r3, #1
 8001788:	4193      	sbcs	r3, r2
 800178a:	181e      	adds	r6, r3, r0
 800178c:	4286      	cmp	r6, r0
 800178e:	4180      	sbcs	r0, r0
 8001790:	4240      	negs	r0, r0
 8001792:	1809      	adds	r1, r1, r0
 8001794:	020b      	lsls	r3, r1, #8
 8001796:	d400      	bmi.n	800179a <__aeabi_dsub+0x192>
 8001798:	e0be      	b.n	8001918 <__aeabi_dsub+0x310>
 800179a:	4b6d      	ldr	r3, [pc, #436]	; (8001950 <__aeabi_dsub+0x348>)
 800179c:	3501      	adds	r5, #1
 800179e:	429d      	cmp	r5, r3
 80017a0:	d100      	bne.n	80017a4 <__aeabi_dsub+0x19c>
 80017a2:	e0d2      	b.n	800194a <__aeabi_dsub+0x342>
 80017a4:	4a6b      	ldr	r2, [pc, #428]	; (8001954 <__aeabi_dsub+0x34c>)
 80017a6:	0873      	lsrs	r3, r6, #1
 80017a8:	400a      	ands	r2, r1
 80017aa:	2101      	movs	r1, #1
 80017ac:	400e      	ands	r6, r1
 80017ae:	431e      	orrs	r6, r3
 80017b0:	0851      	lsrs	r1, r2, #1
 80017b2:	07d3      	lsls	r3, r2, #31
 80017b4:	2207      	movs	r2, #7
 80017b6:	431e      	orrs	r6, r3
 80017b8:	4032      	ands	r2, r6
 80017ba:	e795      	b.n	80016e8 <__aeabi_dsub+0xe0>
 80017bc:	001e      	movs	r6, r3
 80017be:	4316      	orrs	r6, r2
 80017c0:	d000      	beq.n	80017c4 <__aeabi_dsub+0x1bc>
 80017c2:	e745      	b.n	8001650 <__aeabi_dsub+0x48>
 80017c4:	e740      	b.n	8001648 <__aeabi_dsub+0x40>
 80017c6:	4b62      	ldr	r3, [pc, #392]	; (8001950 <__aeabi_dsub+0x348>)
 80017c8:	429d      	cmp	r5, r3
 80017ca:	d03a      	beq.n	8001842 <__aeabi_dsub+0x23a>
 80017cc:	2380      	movs	r3, #128	; 0x80
 80017ce:	4667      	mov	r7, ip
 80017d0:	041b      	lsls	r3, r3, #16
 80017d2:	431f      	orrs	r7, r3
 80017d4:	46bc      	mov	ip, r7
 80017d6:	2e38      	cmp	r6, #56	; 0x38
 80017d8:	dd00      	ble.n	80017dc <__aeabi_dsub+0x1d4>
 80017da:	e0eb      	b.n	80019b4 <__aeabi_dsub+0x3ac>
 80017dc:	2e1f      	cmp	r6, #31
 80017de:	dc00      	bgt.n	80017e2 <__aeabi_dsub+0x1da>
 80017e0:	e13a      	b.n	8001a58 <__aeabi_dsub+0x450>
 80017e2:	0033      	movs	r3, r6
 80017e4:	4667      	mov	r7, ip
 80017e6:	3b20      	subs	r3, #32
 80017e8:	40df      	lsrs	r7, r3
 80017ea:	003b      	movs	r3, r7
 80017ec:	2e20      	cmp	r6, #32
 80017ee:	d005      	beq.n	80017fc <__aeabi_dsub+0x1f4>
 80017f0:	2740      	movs	r7, #64	; 0x40
 80017f2:	1bbf      	subs	r7, r7, r6
 80017f4:	4666      	mov	r6, ip
 80017f6:	40be      	lsls	r6, r7
 80017f8:	4332      	orrs	r2, r6
 80017fa:	4690      	mov	r8, r2
 80017fc:	4646      	mov	r6, r8
 80017fe:	1e72      	subs	r2, r6, #1
 8001800:	4196      	sbcs	r6, r2
 8001802:	4333      	orrs	r3, r6
 8001804:	e0da      	b.n	80019bc <__aeabi_dsub+0x3b4>
 8001806:	2b00      	cmp	r3, #0
 8001808:	d100      	bne.n	800180c <__aeabi_dsub+0x204>
 800180a:	e214      	b.n	8001c36 <__aeabi_dsub+0x62e>
 800180c:	4663      	mov	r3, ip
 800180e:	4313      	orrs	r3, r2
 8001810:	d100      	bne.n	8001814 <__aeabi_dsub+0x20c>
 8001812:	e168      	b.n	8001ae6 <__aeabi_dsub+0x4de>
 8001814:	2380      	movs	r3, #128	; 0x80
 8001816:	074e      	lsls	r6, r1, #29
 8001818:	08c0      	lsrs	r0, r0, #3
 800181a:	08c9      	lsrs	r1, r1, #3
 800181c:	031b      	lsls	r3, r3, #12
 800181e:	4306      	orrs	r6, r0
 8001820:	4219      	tst	r1, r3
 8001822:	d008      	beq.n	8001836 <__aeabi_dsub+0x22e>
 8001824:	4660      	mov	r0, ip
 8001826:	08c0      	lsrs	r0, r0, #3
 8001828:	4218      	tst	r0, r3
 800182a:	d104      	bne.n	8001836 <__aeabi_dsub+0x22e>
 800182c:	4663      	mov	r3, ip
 800182e:	0001      	movs	r1, r0
 8001830:	08d2      	lsrs	r2, r2, #3
 8001832:	075e      	lsls	r6, r3, #29
 8001834:	4316      	orrs	r6, r2
 8001836:	00f3      	lsls	r3, r6, #3
 8001838:	4699      	mov	r9, r3
 800183a:	00c9      	lsls	r1, r1, #3
 800183c:	0f72      	lsrs	r2, r6, #29
 800183e:	4d44      	ldr	r5, [pc, #272]	; (8001950 <__aeabi_dsub+0x348>)
 8001840:	4311      	orrs	r1, r2
 8001842:	464b      	mov	r3, r9
 8001844:	08de      	lsrs	r6, r3, #3
 8001846:	4b42      	ldr	r3, [pc, #264]	; (8001950 <__aeabi_dsub+0x348>)
 8001848:	074f      	lsls	r7, r1, #29
 800184a:	4337      	orrs	r7, r6
 800184c:	08ca      	lsrs	r2, r1, #3
 800184e:	429d      	cmp	r5, r3
 8001850:	d100      	bne.n	8001854 <__aeabi_dsub+0x24c>
 8001852:	e06e      	b.n	8001932 <__aeabi_dsub+0x32a>
 8001854:	0312      	lsls	r2, r2, #12
 8001856:	056d      	lsls	r5, r5, #21
 8001858:	0b12      	lsrs	r2, r2, #12
 800185a:	0d6d      	lsrs	r5, r5, #21
 800185c:	2100      	movs	r1, #0
 800185e:	0312      	lsls	r2, r2, #12
 8001860:	0b13      	lsrs	r3, r2, #12
 8001862:	0d0a      	lsrs	r2, r1, #20
 8001864:	0512      	lsls	r2, r2, #20
 8001866:	431a      	orrs	r2, r3
 8001868:	4b3b      	ldr	r3, [pc, #236]	; (8001958 <__aeabi_dsub+0x350>)
 800186a:	052d      	lsls	r5, r5, #20
 800186c:	4013      	ands	r3, r2
 800186e:	432b      	orrs	r3, r5
 8001870:	005b      	lsls	r3, r3, #1
 8001872:	07e4      	lsls	r4, r4, #31
 8001874:	085b      	lsrs	r3, r3, #1
 8001876:	4323      	orrs	r3, r4
 8001878:	0038      	movs	r0, r7
 800187a:	0019      	movs	r1, r3
 800187c:	bc3c      	pop	{r2, r3, r4, r5}
 800187e:	4690      	mov	r8, r2
 8001880:	4699      	mov	r9, r3
 8001882:	46a2      	mov	sl, r4
 8001884:	46ab      	mov	fp, r5
 8001886:	bdf8      	pop	{r3, r4, r5, r6, r7, pc}
 8001888:	4663      	mov	r3, ip
 800188a:	4313      	orrs	r3, r2
 800188c:	d011      	beq.n	80018b2 <__aeabi_dsub+0x2aa>
 800188e:	1e73      	subs	r3, r6, #1
 8001890:	2b00      	cmp	r3, #0
 8001892:	d000      	beq.n	8001896 <__aeabi_dsub+0x28e>
 8001894:	e107      	b.n	8001aa6 <__aeabi_dsub+0x49e>
 8001896:	1886      	adds	r6, r0, r2
 8001898:	4286      	cmp	r6, r0
 800189a:	4180      	sbcs	r0, r0
 800189c:	4461      	add	r1, ip
 800189e:	4240      	negs	r0, r0
 80018a0:	1809      	adds	r1, r1, r0
 80018a2:	2501      	movs	r5, #1
 80018a4:	020b      	lsls	r3, r1, #8
 80018a6:	d537      	bpl.n	8001918 <__aeabi_dsub+0x310>
 80018a8:	2502      	movs	r5, #2
 80018aa:	e77b      	b.n	80017a4 <__aeabi_dsub+0x19c>
 80018ac:	003e      	movs	r6, r7
 80018ae:	4661      	mov	r1, ip
 80018b0:	4691      	mov	r9, r2
 80018b2:	0035      	movs	r5, r6
 80018b4:	e7c5      	b.n	8001842 <__aeabi_dsub+0x23a>
 80018b6:	465c      	mov	r4, fp
 80018b8:	2d00      	cmp	r5, #0
 80018ba:	d000      	beq.n	80018be <__aeabi_dsub+0x2b6>
 80018bc:	e0e1      	b.n	8001a82 <__aeabi_dsub+0x47a>
 80018be:	000b      	movs	r3, r1
 80018c0:	4303      	orrs	r3, r0
 80018c2:	d0f3      	beq.n	80018ac <__aeabi_dsub+0x2a4>
 80018c4:	1c73      	adds	r3, r6, #1
 80018c6:	d100      	bne.n	80018ca <__aeabi_dsub+0x2c2>
 80018c8:	e1ac      	b.n	8001c24 <__aeabi_dsub+0x61c>
 80018ca:	4b21      	ldr	r3, [pc, #132]	; (8001950 <__aeabi_dsub+0x348>)
 80018cc:	429f      	cmp	r7, r3
 80018ce:	d100      	bne.n	80018d2 <__aeabi_dsub+0x2ca>
 80018d0:	e13a      	b.n	8001b48 <__aeabi_dsub+0x540>
 80018d2:	43f3      	mvns	r3, r6
 80018d4:	2b38      	cmp	r3, #56	; 0x38
 80018d6:	dd00      	ble.n	80018da <__aeabi_dsub+0x2d2>
 80018d8:	e16f      	b.n	8001bba <__aeabi_dsub+0x5b2>
 80018da:	2b1f      	cmp	r3, #31
 80018dc:	dd00      	ble.n	80018e0 <__aeabi_dsub+0x2d8>
 80018de:	e18c      	b.n	8001bfa <__aeabi_dsub+0x5f2>
 80018e0:	2520      	movs	r5, #32
 80018e2:	000e      	movs	r6, r1
 80018e4:	1aed      	subs	r5, r5, r3
 80018e6:	40ae      	lsls	r6, r5
 80018e8:	46b0      	mov	r8, r6
 80018ea:	0006      	movs	r6, r0
 80018ec:	46aa      	mov	sl, r5
 80018ee:	40de      	lsrs	r6, r3
 80018f0:	4645      	mov	r5, r8
 80018f2:	4335      	orrs	r5, r6
 80018f4:	002e      	movs	r6, r5
 80018f6:	4655      	mov	r5, sl
 80018f8:	40d9      	lsrs	r1, r3
 80018fa:	40a8      	lsls	r0, r5
 80018fc:	4663      	mov	r3, ip
 80018fe:	1e45      	subs	r5, r0, #1
 8001900:	41a8      	sbcs	r0, r5
 8001902:	1a5b      	subs	r3, r3, r1
 8001904:	469c      	mov	ip, r3
 8001906:	4330      	orrs	r0, r6
 8001908:	1a16      	subs	r6, r2, r0
 800190a:	42b2      	cmp	r2, r6
 800190c:	4192      	sbcs	r2, r2
 800190e:	4663      	mov	r3, ip
 8001910:	4252      	negs	r2, r2
 8001912:	1a99      	subs	r1, r3, r2
 8001914:	003d      	movs	r5, r7
 8001916:	e6b4      	b.n	8001682 <__aeabi_dsub+0x7a>
 8001918:	2207      	movs	r2, #7
 800191a:	4032      	ands	r2, r6
 800191c:	2a00      	cmp	r2, #0
 800191e:	d000      	beq.n	8001922 <__aeabi_dsub+0x31a>
 8001920:	e6e4      	b.n	80016ec <__aeabi_dsub+0xe4>
 8001922:	4b0b      	ldr	r3, [pc, #44]	; (8001950 <__aeabi_dsub+0x348>)
 8001924:	08f6      	lsrs	r6, r6, #3
 8001926:	074f      	lsls	r7, r1, #29
 8001928:	4337      	orrs	r7, r6
 800192a:	08ca      	lsrs	r2, r1, #3
 800192c:	429d      	cmp	r5, r3
 800192e:	d000      	beq.n	8001932 <__aeabi_dsub+0x32a>
 8001930:	e790      	b.n	8001854 <__aeabi_dsub+0x24c>
 8001932:	003b      	movs	r3, r7
 8001934:	4313      	orrs	r3, r2
 8001936:	d100      	bne.n	800193a <__aeabi_dsub+0x332>
 8001938:	e1a6      	b.n	8001c88 <__aeabi_dsub+0x680>
 800193a:	2380      	movs	r3, #128	; 0x80
 800193c:	031b      	lsls	r3, r3, #12
 800193e:	431a      	orrs	r2, r3
 8001940:	0312      	lsls	r2, r2, #12
 8001942:	0b12      	lsrs	r2, r2, #12
 8001944:	4d02      	ldr	r5, [pc, #8]	; (8001950 <__aeabi_dsub+0x348>)
 8001946:	e789      	b.n	800185c <__aeabi_dsub+0x254>
 8001948:	0015      	movs	r5, r2
 800194a:	2200      	movs	r2, #0
 800194c:	2700      	movs	r7, #0
 800194e:	e785      	b.n	800185c <__aeabi_dsub+0x254>
 8001950:	000007ff 	.word	0x000007ff
 8001954:	ff7fffff 	.word	0xff7fffff
 8001958:	800fffff 	.word	0x800fffff
 800195c:	2e00      	cmp	r6, #0
 800195e:	d000      	beq.n	8001962 <__aeabi_dsub+0x35a>
 8001960:	e0c7      	b.n	8001af2 <__aeabi_dsub+0x4ea>
 8001962:	1c6b      	adds	r3, r5, #1
 8001964:	055e      	lsls	r6, r3, #21
 8001966:	0d76      	lsrs	r6, r6, #21
 8001968:	2e01      	cmp	r6, #1
 800196a:	dc00      	bgt.n	800196e <__aeabi_dsub+0x366>
 800196c:	e0f0      	b.n	8001b50 <__aeabi_dsub+0x548>
 800196e:	4dc8      	ldr	r5, [pc, #800]	; (8001c90 <__aeabi_dsub+0x688>)
 8001970:	42ab      	cmp	r3, r5
 8001972:	d100      	bne.n	8001976 <__aeabi_dsub+0x36e>
 8001974:	e0b9      	b.n	8001aea <__aeabi_dsub+0x4e2>
 8001976:	1885      	adds	r5, r0, r2
 8001978:	000a      	movs	r2, r1
 800197a:	4285      	cmp	r5, r0
 800197c:	4189      	sbcs	r1, r1
 800197e:	4462      	add	r2, ip
 8001980:	4249      	negs	r1, r1
 8001982:	1851      	adds	r1, r2, r1
 8001984:	2207      	movs	r2, #7
 8001986:	07ce      	lsls	r6, r1, #31
 8001988:	086d      	lsrs	r5, r5, #1
 800198a:	432e      	orrs	r6, r5
 800198c:	0849      	lsrs	r1, r1, #1
 800198e:	4032      	ands	r2, r6
 8001990:	001d      	movs	r5, r3
 8001992:	e6a9      	b.n	80016e8 <__aeabi_dsub+0xe0>
 8001994:	49bf      	ldr	r1, [pc, #764]	; (8001c94 <__aeabi_dsub+0x68c>)
 8001996:	1aed      	subs	r5, r5, r3
 8001998:	4011      	ands	r1, r2
 800199a:	2207      	movs	r2, #7
 800199c:	4032      	ands	r2, r6
 800199e:	e6a3      	b.n	80016e8 <__aeabi_dsub+0xe0>
 80019a0:	0032      	movs	r2, r6
 80019a2:	3828      	subs	r0, #40	; 0x28
 80019a4:	4082      	lsls	r2, r0
 80019a6:	2600      	movs	r6, #0
 80019a8:	e686      	b.n	80016b8 <__aeabi_dsub+0xb0>
 80019aa:	0030      	movs	r0, r6
 80019ac:	f000 f9f8 	bl	8001da0 <__clzsi2>
 80019b0:	3020      	adds	r0, #32
 80019b2:	e673      	b.n	800169c <__aeabi_dsub+0x94>
 80019b4:	4663      	mov	r3, ip
 80019b6:	4313      	orrs	r3, r2
 80019b8:	1e5a      	subs	r2, r3, #1
 80019ba:	4193      	sbcs	r3, r2
 80019bc:	1ac6      	subs	r6, r0, r3
 80019be:	42b0      	cmp	r0, r6
 80019c0:	4180      	sbcs	r0, r0
 80019c2:	4240      	negs	r0, r0
 80019c4:	1a09      	subs	r1, r1, r0
 80019c6:	e65c      	b.n	8001682 <__aeabi_dsub+0x7a>
 80019c8:	000e      	movs	r6, r1
 80019ca:	4667      	mov	r7, ip
 80019cc:	4306      	orrs	r6, r0
 80019ce:	4317      	orrs	r7, r2
 80019d0:	2d00      	cmp	r5, #0
 80019d2:	d15e      	bne.n	8001a92 <__aeabi_dsub+0x48a>
 80019d4:	2e00      	cmp	r6, #0
 80019d6:	d000      	beq.n	80019da <__aeabi_dsub+0x3d2>
 80019d8:	e0f3      	b.n	8001bc2 <__aeabi_dsub+0x5ba>
 80019da:	2f00      	cmp	r7, #0
 80019dc:	d100      	bne.n	80019e0 <__aeabi_dsub+0x3d8>
 80019de:	e11e      	b.n	8001c1e <__aeabi_dsub+0x616>
 80019e0:	465c      	mov	r4, fp
 80019e2:	4661      	mov	r1, ip
 80019e4:	4691      	mov	r9, r2
 80019e6:	e72c      	b.n	8001842 <__aeabi_dsub+0x23a>
 80019e8:	4fa9      	ldr	r7, [pc, #676]	; (8001c90 <__aeabi_dsub+0x688>)
 80019ea:	42be      	cmp	r6, r7
 80019ec:	d07b      	beq.n	8001ae6 <__aeabi_dsub+0x4de>
 80019ee:	001e      	movs	r6, r3
 80019f0:	e6f1      	b.n	80017d6 <__aeabi_dsub+0x1ce>
 80019f2:	0010      	movs	r0, r2
 80019f4:	3d1f      	subs	r5, #31
 80019f6:	40e8      	lsrs	r0, r5
 80019f8:	2b20      	cmp	r3, #32
 80019fa:	d003      	beq.n	8001a04 <__aeabi_dsub+0x3fc>
 80019fc:	2140      	movs	r1, #64	; 0x40
 80019fe:	1acb      	subs	r3, r1, r3
 8001a00:	409a      	lsls	r2, r3
 8001a02:	4316      	orrs	r6, r2
 8001a04:	1e73      	subs	r3, r6, #1
 8001a06:	419e      	sbcs	r6, r3
 8001a08:	2207      	movs	r2, #7
 8001a0a:	4306      	orrs	r6, r0
 8001a0c:	4032      	ands	r2, r6
 8001a0e:	2100      	movs	r1, #0
 8001a10:	2500      	movs	r5, #0
 8001a12:	e783      	b.n	800191c <__aeabi_dsub+0x314>
 8001a14:	1a16      	subs	r6, r2, r0
 8001a16:	4663      	mov	r3, ip
 8001a18:	42b2      	cmp	r2, r6
 8001a1a:	4180      	sbcs	r0, r0
 8001a1c:	1a59      	subs	r1, r3, r1
 8001a1e:	4240      	negs	r0, r0
 8001a20:	1a0b      	subs	r3, r1, r0
 8001a22:	4698      	mov	r8, r3
 8001a24:	465c      	mov	r4, fp
 8001a26:	e632      	b.n	800168e <__aeabi_dsub+0x86>
 8001a28:	2e1f      	cmp	r6, #31
 8001a2a:	dd00      	ble.n	8001a2e <__aeabi_dsub+0x426>
 8001a2c:	e0ab      	b.n	8001b86 <__aeabi_dsub+0x57e>
 8001a2e:	2720      	movs	r7, #32
 8001a30:	1bbb      	subs	r3, r7, r6
 8001a32:	469a      	mov	sl, r3
 8001a34:	4663      	mov	r3, ip
 8001a36:	4657      	mov	r7, sl
 8001a38:	40bb      	lsls	r3, r7
 8001a3a:	4699      	mov	r9, r3
 8001a3c:	0013      	movs	r3, r2
 8001a3e:	464f      	mov	r7, r9
 8001a40:	40f3      	lsrs	r3, r6
 8001a42:	431f      	orrs	r7, r3
 8001a44:	003b      	movs	r3, r7
 8001a46:	4657      	mov	r7, sl
 8001a48:	40ba      	lsls	r2, r7
 8001a4a:	1e57      	subs	r7, r2, #1
 8001a4c:	41ba      	sbcs	r2, r7
 8001a4e:	4313      	orrs	r3, r2
 8001a50:	4662      	mov	r2, ip
 8001a52:	40f2      	lsrs	r2, r6
 8001a54:	1889      	adds	r1, r1, r2
 8001a56:	e698      	b.n	800178a <__aeabi_dsub+0x182>
 8001a58:	2720      	movs	r7, #32
 8001a5a:	1bbb      	subs	r3, r7, r6
 8001a5c:	469a      	mov	sl, r3
 8001a5e:	4663      	mov	r3, ip
 8001a60:	4657      	mov	r7, sl
 8001a62:	40bb      	lsls	r3, r7
 8001a64:	4699      	mov	r9, r3
 8001a66:	0013      	movs	r3, r2
 8001a68:	464f      	mov	r7, r9
 8001a6a:	40f3      	lsrs	r3, r6
 8001a6c:	431f      	orrs	r7, r3
 8001a6e:	003b      	movs	r3, r7
 8001a70:	4657      	mov	r7, sl
 8001a72:	40ba      	lsls	r2, r7
 8001a74:	1e57      	subs	r7, r2, #1
 8001a76:	41ba      	sbcs	r2, r7
 8001a78:	4313      	orrs	r3, r2
 8001a7a:	4662      	mov	r2, ip
 8001a7c:	40f2      	lsrs	r2, r6
 8001a7e:	1a89      	subs	r1, r1, r2
 8001a80:	e79c      	b.n	80019bc <__aeabi_dsub+0x3b4>
 8001a82:	4b83      	ldr	r3, [pc, #524]	; (8001c90 <__aeabi_dsub+0x688>)
 8001a84:	429f      	cmp	r7, r3
 8001a86:	d05f      	beq.n	8001b48 <__aeabi_dsub+0x540>
 8001a88:	2580      	movs	r5, #128	; 0x80
 8001a8a:	042d      	lsls	r5, r5, #16
 8001a8c:	4273      	negs	r3, r6
 8001a8e:	4329      	orrs	r1, r5
 8001a90:	e720      	b.n	80018d4 <__aeabi_dsub+0x2cc>
 8001a92:	2e00      	cmp	r6, #0
 8001a94:	d10c      	bne.n	8001ab0 <__aeabi_dsub+0x4a8>
 8001a96:	2f00      	cmp	r7, #0
 8001a98:	d100      	bne.n	8001a9c <__aeabi_dsub+0x494>
 8001a9a:	e0d0      	b.n	8001c3e <__aeabi_dsub+0x636>
 8001a9c:	465c      	mov	r4, fp
 8001a9e:	4661      	mov	r1, ip
 8001aa0:	4691      	mov	r9, r2
 8001aa2:	4d7b      	ldr	r5, [pc, #492]	; (8001c90 <__aeabi_dsub+0x688>)
 8001aa4:	e6cd      	b.n	8001842 <__aeabi_dsub+0x23a>
 8001aa6:	4f7a      	ldr	r7, [pc, #488]	; (8001c90 <__aeabi_dsub+0x688>)
 8001aa8:	42be      	cmp	r6, r7
 8001aaa:	d01c      	beq.n	8001ae6 <__aeabi_dsub+0x4de>
 8001aac:	001e      	movs	r6, r3
 8001aae:	e665      	b.n	800177c <__aeabi_dsub+0x174>
 8001ab0:	2f00      	cmp	r7, #0
 8001ab2:	d018      	beq.n	8001ae6 <__aeabi_dsub+0x4de>
 8001ab4:	08c0      	lsrs	r0, r0, #3
 8001ab6:	074e      	lsls	r6, r1, #29
 8001ab8:	4306      	orrs	r6, r0
 8001aba:	2080      	movs	r0, #128	; 0x80
 8001abc:	08c9      	lsrs	r1, r1, #3
 8001abe:	0300      	lsls	r0, r0, #12
 8001ac0:	4201      	tst	r1, r0
 8001ac2:	d008      	beq.n	8001ad6 <__aeabi_dsub+0x4ce>
 8001ac4:	4663      	mov	r3, ip
 8001ac6:	08dc      	lsrs	r4, r3, #3
 8001ac8:	4204      	tst	r4, r0
 8001aca:	d104      	bne.n	8001ad6 <__aeabi_dsub+0x4ce>
 8001acc:	0021      	movs	r1, r4
 8001ace:	46da      	mov	sl, fp
 8001ad0:	08d2      	lsrs	r2, r2, #3
 8001ad2:	075e      	lsls	r6, r3, #29
 8001ad4:	4316      	orrs	r6, r2
 8001ad6:	00f3      	lsls	r3, r6, #3
 8001ad8:	4699      	mov	r9, r3
 8001ada:	2401      	movs	r4, #1
 8001adc:	4653      	mov	r3, sl
 8001ade:	00c9      	lsls	r1, r1, #3
 8001ae0:	0f72      	lsrs	r2, r6, #29
 8001ae2:	4311      	orrs	r1, r2
 8001ae4:	401c      	ands	r4, r3
 8001ae6:	4d6a      	ldr	r5, [pc, #424]	; (8001c90 <__aeabi_dsub+0x688>)
 8001ae8:	e6ab      	b.n	8001842 <__aeabi_dsub+0x23a>
 8001aea:	001d      	movs	r5, r3
 8001aec:	2200      	movs	r2, #0
 8001aee:	2700      	movs	r7, #0
 8001af0:	e6b4      	b.n	800185c <__aeabi_dsub+0x254>
 8001af2:	2d00      	cmp	r5, #0
 8001af4:	d159      	bne.n	8001baa <__aeabi_dsub+0x5a2>
 8001af6:	000b      	movs	r3, r1
 8001af8:	4303      	orrs	r3, r0
 8001afa:	d100      	bne.n	8001afe <__aeabi_dsub+0x4f6>
 8001afc:	e6d6      	b.n	80018ac <__aeabi_dsub+0x2a4>
 8001afe:	1c73      	adds	r3, r6, #1
 8001b00:	d100      	bne.n	8001b04 <__aeabi_dsub+0x4fc>
 8001b02:	e0b2      	b.n	8001c6a <__aeabi_dsub+0x662>
 8001b04:	4b62      	ldr	r3, [pc, #392]	; (8001c90 <__aeabi_dsub+0x688>)
 8001b06:	429f      	cmp	r7, r3
 8001b08:	d01e      	beq.n	8001b48 <__aeabi_dsub+0x540>
 8001b0a:	43f3      	mvns	r3, r6
 8001b0c:	2b38      	cmp	r3, #56	; 0x38
 8001b0e:	dc6f      	bgt.n	8001bf0 <__aeabi_dsub+0x5e8>
 8001b10:	2b1f      	cmp	r3, #31
 8001b12:	dd00      	ble.n	8001b16 <__aeabi_dsub+0x50e>
 8001b14:	e097      	b.n	8001c46 <__aeabi_dsub+0x63e>
 8001b16:	2520      	movs	r5, #32
 8001b18:	000e      	movs	r6, r1
 8001b1a:	1aed      	subs	r5, r5, r3
 8001b1c:	40ae      	lsls	r6, r5
 8001b1e:	46b0      	mov	r8, r6
 8001b20:	0006      	movs	r6, r0
 8001b22:	46aa      	mov	sl, r5
 8001b24:	40de      	lsrs	r6, r3
 8001b26:	4645      	mov	r5, r8
 8001b28:	4335      	orrs	r5, r6
 8001b2a:	002e      	movs	r6, r5
 8001b2c:	4655      	mov	r5, sl
 8001b2e:	40a8      	lsls	r0, r5
 8001b30:	40d9      	lsrs	r1, r3
 8001b32:	1e45      	subs	r5, r0, #1
 8001b34:	41a8      	sbcs	r0, r5
 8001b36:	448c      	add	ip, r1
 8001b38:	4306      	orrs	r6, r0
 8001b3a:	18b6      	adds	r6, r6, r2
 8001b3c:	4296      	cmp	r6, r2
 8001b3e:	4192      	sbcs	r2, r2
 8001b40:	4251      	negs	r1, r2
 8001b42:	4461      	add	r1, ip
 8001b44:	003d      	movs	r5, r7
 8001b46:	e625      	b.n	8001794 <__aeabi_dsub+0x18c>
 8001b48:	003d      	movs	r5, r7
 8001b4a:	4661      	mov	r1, ip
 8001b4c:	4691      	mov	r9, r2
 8001b4e:	e678      	b.n	8001842 <__aeabi_dsub+0x23a>
 8001b50:	000b      	movs	r3, r1
 8001b52:	4303      	orrs	r3, r0
 8001b54:	2d00      	cmp	r5, #0
 8001b56:	d000      	beq.n	8001b5a <__aeabi_dsub+0x552>
 8001b58:	e655      	b.n	8001806 <__aeabi_dsub+0x1fe>
 8001b5a:	2b00      	cmp	r3, #0
 8001b5c:	d0f5      	beq.n	8001b4a <__aeabi_dsub+0x542>
 8001b5e:	4663      	mov	r3, ip
 8001b60:	4313      	orrs	r3, r2
 8001b62:	d100      	bne.n	8001b66 <__aeabi_dsub+0x55e>
 8001b64:	e66d      	b.n	8001842 <__aeabi_dsub+0x23a>
 8001b66:	1886      	adds	r6, r0, r2
 8001b68:	4286      	cmp	r6, r0
 8001b6a:	4180      	sbcs	r0, r0
 8001b6c:	4461      	add	r1, ip
 8001b6e:	4240      	negs	r0, r0
 8001b70:	1809      	adds	r1, r1, r0
 8001b72:	2200      	movs	r2, #0
 8001b74:	020b      	lsls	r3, r1, #8
 8001b76:	d400      	bmi.n	8001b7a <__aeabi_dsub+0x572>
 8001b78:	e6d0      	b.n	800191c <__aeabi_dsub+0x314>
 8001b7a:	4b46      	ldr	r3, [pc, #280]	; (8001c94 <__aeabi_dsub+0x68c>)
 8001b7c:	3501      	adds	r5, #1
 8001b7e:	4019      	ands	r1, r3
 8001b80:	e5b2      	b.n	80016e8 <__aeabi_dsub+0xe0>
 8001b82:	46b1      	mov	r9, r6
 8001b84:	e65d      	b.n	8001842 <__aeabi_dsub+0x23a>
 8001b86:	0033      	movs	r3, r6
 8001b88:	4667      	mov	r7, ip
 8001b8a:	3b20      	subs	r3, #32
 8001b8c:	40df      	lsrs	r7, r3
 8001b8e:	003b      	movs	r3, r7
 8001b90:	2e20      	cmp	r6, #32
 8001b92:	d005      	beq.n	8001ba0 <__aeabi_dsub+0x598>
 8001b94:	2740      	movs	r7, #64	; 0x40
 8001b96:	1bbf      	subs	r7, r7, r6
 8001b98:	4666      	mov	r6, ip
 8001b9a:	40be      	lsls	r6, r7
 8001b9c:	4332      	orrs	r2, r6
 8001b9e:	4690      	mov	r8, r2
 8001ba0:	4646      	mov	r6, r8
 8001ba2:	1e72      	subs	r2, r6, #1
 8001ba4:	4196      	sbcs	r6, r2
 8001ba6:	4333      	orrs	r3, r6
 8001ba8:	e5ef      	b.n	800178a <__aeabi_dsub+0x182>
 8001baa:	4b39      	ldr	r3, [pc, #228]	; (8001c90 <__aeabi_dsub+0x688>)
 8001bac:	429f      	cmp	r7, r3
 8001bae:	d0cb      	beq.n	8001b48 <__aeabi_dsub+0x540>
 8001bb0:	2580      	movs	r5, #128	; 0x80
 8001bb2:	042d      	lsls	r5, r5, #16
 8001bb4:	4273      	negs	r3, r6
 8001bb6:	4329      	orrs	r1, r5
 8001bb8:	e7a8      	b.n	8001b0c <__aeabi_dsub+0x504>
 8001bba:	4308      	orrs	r0, r1
 8001bbc:	1e41      	subs	r1, r0, #1
 8001bbe:	4188      	sbcs	r0, r1
 8001bc0:	e6a2      	b.n	8001908 <__aeabi_dsub+0x300>
 8001bc2:	2f00      	cmp	r7, #0
 8001bc4:	d100      	bne.n	8001bc8 <__aeabi_dsub+0x5c0>
 8001bc6:	e63c      	b.n	8001842 <__aeabi_dsub+0x23a>
 8001bc8:	4663      	mov	r3, ip
 8001bca:	1a86      	subs	r6, r0, r2
 8001bcc:	1acf      	subs	r7, r1, r3
 8001bce:	42b0      	cmp	r0, r6
 8001bd0:	419b      	sbcs	r3, r3
 8001bd2:	425b      	negs	r3, r3
 8001bd4:	1afb      	subs	r3, r7, r3
 8001bd6:	4698      	mov	r8, r3
 8001bd8:	021b      	lsls	r3, r3, #8
 8001bda:	d54e      	bpl.n	8001c7a <__aeabi_dsub+0x672>
 8001bdc:	1a16      	subs	r6, r2, r0
 8001bde:	4663      	mov	r3, ip
 8001be0:	42b2      	cmp	r2, r6
 8001be2:	4192      	sbcs	r2, r2
 8001be4:	1a59      	subs	r1, r3, r1
 8001be6:	4252      	negs	r2, r2
 8001be8:	1a89      	subs	r1, r1, r2
 8001bea:	465c      	mov	r4, fp
 8001bec:	2200      	movs	r2, #0
 8001bee:	e57b      	b.n	80016e8 <__aeabi_dsub+0xe0>
 8001bf0:	4301      	orrs	r1, r0
 8001bf2:	000e      	movs	r6, r1
 8001bf4:	1e71      	subs	r1, r6, #1
 8001bf6:	418e      	sbcs	r6, r1
 8001bf8:	e79f      	b.n	8001b3a <__aeabi_dsub+0x532>
 8001bfa:	001d      	movs	r5, r3
 8001bfc:	000e      	movs	r6, r1
 8001bfe:	3d20      	subs	r5, #32
 8001c00:	40ee      	lsrs	r6, r5
 8001c02:	46b0      	mov	r8, r6
 8001c04:	2b20      	cmp	r3, #32
 8001c06:	d004      	beq.n	8001c12 <__aeabi_dsub+0x60a>
 8001c08:	2540      	movs	r5, #64	; 0x40
 8001c0a:	1aeb      	subs	r3, r5, r3
 8001c0c:	4099      	lsls	r1, r3
 8001c0e:	4308      	orrs	r0, r1
 8001c10:	4681      	mov	r9, r0
 8001c12:	4648      	mov	r0, r9
 8001c14:	4643      	mov	r3, r8
 8001c16:	1e41      	subs	r1, r0, #1
 8001c18:	4188      	sbcs	r0, r1
 8001c1a:	4318      	orrs	r0, r3
 8001c1c:	e674      	b.n	8001908 <__aeabi_dsub+0x300>
 8001c1e:	2200      	movs	r2, #0
 8001c20:	2400      	movs	r4, #0
 8001c22:	e617      	b.n	8001854 <__aeabi_dsub+0x24c>
 8001c24:	1a16      	subs	r6, r2, r0
 8001c26:	4663      	mov	r3, ip
 8001c28:	42b2      	cmp	r2, r6
 8001c2a:	4192      	sbcs	r2, r2
 8001c2c:	1a59      	subs	r1, r3, r1
 8001c2e:	4252      	negs	r2, r2
 8001c30:	1a89      	subs	r1, r1, r2
 8001c32:	003d      	movs	r5, r7
 8001c34:	e525      	b.n	8001682 <__aeabi_dsub+0x7a>
 8001c36:	4661      	mov	r1, ip
 8001c38:	4691      	mov	r9, r2
 8001c3a:	4d15      	ldr	r5, [pc, #84]	; (8001c90 <__aeabi_dsub+0x688>)
 8001c3c:	e601      	b.n	8001842 <__aeabi_dsub+0x23a>
 8001c3e:	2280      	movs	r2, #128	; 0x80
 8001c40:	2400      	movs	r4, #0
 8001c42:	0312      	lsls	r2, r2, #12
 8001c44:	e679      	b.n	800193a <__aeabi_dsub+0x332>
 8001c46:	001d      	movs	r5, r3
 8001c48:	000e      	movs	r6, r1
 8001c4a:	3d20      	subs	r5, #32
 8001c4c:	40ee      	lsrs	r6, r5
 8001c4e:	46b0      	mov	r8, r6
 8001c50:	2b20      	cmp	r3, #32
 8001c52:	d004      	beq.n	8001c5e <__aeabi_dsub+0x656>
 8001c54:	2540      	movs	r5, #64	; 0x40
 8001c56:	1aeb      	subs	r3, r5, r3
 8001c58:	4099      	lsls	r1, r3
 8001c5a:	4308      	orrs	r0, r1
 8001c5c:	4681      	mov	r9, r0
 8001c5e:	464e      	mov	r6, r9
 8001c60:	4643      	mov	r3, r8
 8001c62:	1e71      	subs	r1, r6, #1
 8001c64:	418e      	sbcs	r6, r1
 8001c66:	431e      	orrs	r6, r3
 8001c68:	e767      	b.n	8001b3a <__aeabi_dsub+0x532>
 8001c6a:	1886      	adds	r6, r0, r2
 8001c6c:	4296      	cmp	r6, r2
 8001c6e:	419b      	sbcs	r3, r3
 8001c70:	4461      	add	r1, ip
 8001c72:	425b      	negs	r3, r3
 8001c74:	18c9      	adds	r1, r1, r3
 8001c76:	003d      	movs	r5, r7
 8001c78:	e58c      	b.n	8001794 <__aeabi_dsub+0x18c>
 8001c7a:	4647      	mov	r7, r8
 8001c7c:	4337      	orrs	r7, r6
 8001c7e:	d0ce      	beq.n	8001c1e <__aeabi_dsub+0x616>
 8001c80:	2207      	movs	r2, #7
 8001c82:	4641      	mov	r1, r8
 8001c84:	4032      	ands	r2, r6
 8001c86:	e649      	b.n	800191c <__aeabi_dsub+0x314>
 8001c88:	2700      	movs	r7, #0
 8001c8a:	003a      	movs	r2, r7
 8001c8c:	e5e6      	b.n	800185c <__aeabi_dsub+0x254>
 8001c8e:	46c0      	nop			; (mov r8, r8)
 8001c90:	000007ff 	.word	0x000007ff
 8001c94:	ff7fffff 	.word	0xff7fffff

08001c98 <__aeabi_dcmpun>:
 8001c98:	b570      	push	{r4, r5, r6, lr}
 8001c9a:	4e0c      	ldr	r6, [pc, #48]	; (8001ccc <__aeabi_dcmpun+0x34>)
 8001c9c:	030d      	lsls	r5, r1, #12
 8001c9e:	031c      	lsls	r4, r3, #12
 8001ca0:	0049      	lsls	r1, r1, #1
 8001ca2:	005b      	lsls	r3, r3, #1
 8001ca4:	0b2d      	lsrs	r5, r5, #12
 8001ca6:	0d49      	lsrs	r1, r1, #21
 8001ca8:	0b24      	lsrs	r4, r4, #12
 8001caa:	0d5b      	lsrs	r3, r3, #21
 8001cac:	42b1      	cmp	r1, r6
 8001cae:	d008      	beq.n	8001cc2 <__aeabi_dcmpun+0x2a>
 8001cb0:	4906      	ldr	r1, [pc, #24]	; (8001ccc <__aeabi_dcmpun+0x34>)
 8001cb2:	2000      	movs	r0, #0
 8001cb4:	428b      	cmp	r3, r1
 8001cb6:	d103      	bne.n	8001cc0 <__aeabi_dcmpun+0x28>
 8001cb8:	4314      	orrs	r4, r2
 8001cba:	0020      	movs	r0, r4
 8001cbc:	1e44      	subs	r4, r0, #1
 8001cbe:	41a0      	sbcs	r0, r4
 8001cc0:	bd70      	pop	{r4, r5, r6, pc}
 8001cc2:	4305      	orrs	r5, r0
 8001cc4:	2001      	movs	r0, #1
 8001cc6:	2d00      	cmp	r5, #0
 8001cc8:	d1fa      	bne.n	8001cc0 <__aeabi_dcmpun+0x28>
 8001cca:	e7f1      	b.n	8001cb0 <__aeabi_dcmpun+0x18>
 8001ccc:	000007ff 	.word	0x000007ff

08001cd0 <__aeabi_d2iz>:
 8001cd0:	b530      	push	{r4, r5, lr}
 8001cd2:	4d14      	ldr	r5, [pc, #80]	; (8001d24 <__aeabi_d2iz+0x54>)
 8001cd4:	030a      	lsls	r2, r1, #12
 8001cd6:	004b      	lsls	r3, r1, #1
 8001cd8:	0b12      	lsrs	r2, r2, #12
 8001cda:	0d5b      	lsrs	r3, r3, #21
 8001cdc:	0fc9      	lsrs	r1, r1, #31
 8001cde:	2400      	movs	r4, #0
 8001ce0:	42ab      	cmp	r3, r5
 8001ce2:	dd11      	ble.n	8001d08 <__aeabi_d2iz+0x38>
 8001ce4:	4c10      	ldr	r4, [pc, #64]	; (8001d28 <__aeabi_d2iz+0x58>)
 8001ce6:	42a3      	cmp	r3, r4
 8001ce8:	dc10      	bgt.n	8001d0c <__aeabi_d2iz+0x3c>
 8001cea:	2480      	movs	r4, #128	; 0x80
 8001cec:	0364      	lsls	r4, r4, #13
 8001cee:	4322      	orrs	r2, r4
 8001cf0:	4c0e      	ldr	r4, [pc, #56]	; (8001d2c <__aeabi_d2iz+0x5c>)
 8001cf2:	1ae4      	subs	r4, r4, r3
 8001cf4:	2c1f      	cmp	r4, #31
 8001cf6:	dd0c      	ble.n	8001d12 <__aeabi_d2iz+0x42>
 8001cf8:	480d      	ldr	r0, [pc, #52]	; (8001d30 <__aeabi_d2iz+0x60>)
 8001cfa:	1ac3      	subs	r3, r0, r3
 8001cfc:	40da      	lsrs	r2, r3
 8001cfe:	0013      	movs	r3, r2
 8001d00:	425c      	negs	r4, r3
 8001d02:	2900      	cmp	r1, #0
 8001d04:	d100      	bne.n	8001d08 <__aeabi_d2iz+0x38>
 8001d06:	001c      	movs	r4, r3
 8001d08:	0020      	movs	r0, r4
 8001d0a:	bd30      	pop	{r4, r5, pc}
 8001d0c:	4b09      	ldr	r3, [pc, #36]	; (8001d34 <__aeabi_d2iz+0x64>)
 8001d0e:	18cc      	adds	r4, r1, r3
 8001d10:	e7fa      	b.n	8001d08 <__aeabi_d2iz+0x38>
 8001d12:	4d09      	ldr	r5, [pc, #36]	; (8001d38 <__aeabi_d2iz+0x68>)
 8001d14:	40e0      	lsrs	r0, r4
 8001d16:	46ac      	mov	ip, r5
 8001d18:	4463      	add	r3, ip
 8001d1a:	409a      	lsls	r2, r3
 8001d1c:	0013      	movs	r3, r2
 8001d1e:	4303      	orrs	r3, r0
 8001d20:	e7ee      	b.n	8001d00 <__aeabi_d2iz+0x30>
 8001d22:	46c0      	nop			; (mov r8, r8)
 8001d24:	000003fe 	.word	0x000003fe
 8001d28:	0000041d 	.word	0x0000041d
 8001d2c:	00000433 	.word	0x00000433
 8001d30:	00000413 	.word	0x00000413
 8001d34:	7fffffff 	.word	0x7fffffff
 8001d38:	fffffbed 	.word	0xfffffbed

08001d3c <__aeabi_ui2d>:
 8001d3c:	b510      	push	{r4, lr}
 8001d3e:	1e04      	subs	r4, r0, #0
 8001d40:	d025      	beq.n	8001d8e <__aeabi_ui2d+0x52>
 8001d42:	f000 f82d 	bl	8001da0 <__clzsi2>
 8001d46:	4b14      	ldr	r3, [pc, #80]	; (8001d98 <__aeabi_ui2d+0x5c>)
 8001d48:	1a1b      	subs	r3, r3, r0
 8001d4a:	055b      	lsls	r3, r3, #21
 8001d4c:	0d5b      	lsrs	r3, r3, #21
 8001d4e:	280a      	cmp	r0, #10
 8001d50:	dd12      	ble.n	8001d78 <__aeabi_ui2d+0x3c>
 8001d52:	380b      	subs	r0, #11
 8001d54:	4084      	lsls	r4, r0
 8001d56:	2200      	movs	r2, #0
 8001d58:	0324      	lsls	r4, r4, #12
 8001d5a:	0b24      	lsrs	r4, r4, #12
 8001d5c:	2100      	movs	r1, #0
 8001d5e:	0010      	movs	r0, r2
 8001d60:	0324      	lsls	r4, r4, #12
 8001d62:	0d0a      	lsrs	r2, r1, #20
 8001d64:	0b24      	lsrs	r4, r4, #12
 8001d66:	0512      	lsls	r2, r2, #20
 8001d68:	4322      	orrs	r2, r4
 8001d6a:	4c0c      	ldr	r4, [pc, #48]	; (8001d9c <__aeabi_ui2d+0x60>)
 8001d6c:	051b      	lsls	r3, r3, #20
 8001d6e:	4022      	ands	r2, r4
 8001d70:	4313      	orrs	r3, r2
 8001d72:	005b      	lsls	r3, r3, #1
 8001d74:	0859      	lsrs	r1, r3, #1
 8001d76:	bd10      	pop	{r4, pc}
 8001d78:	0002      	movs	r2, r0
 8001d7a:	0021      	movs	r1, r4
 8001d7c:	3215      	adds	r2, #21
 8001d7e:	4091      	lsls	r1, r2
 8001d80:	000a      	movs	r2, r1
 8001d82:	210b      	movs	r1, #11
 8001d84:	1a08      	subs	r0, r1, r0
 8001d86:	40c4      	lsrs	r4, r0
 8001d88:	0324      	lsls	r4, r4, #12
 8001d8a:	0b24      	lsrs	r4, r4, #12
 8001d8c:	e7e6      	b.n	8001d5c <__aeabi_ui2d+0x20>
 8001d8e:	2300      	movs	r3, #0
 8001d90:	2400      	movs	r4, #0
 8001d92:	2200      	movs	r2, #0
 8001d94:	e7e2      	b.n	8001d5c <__aeabi_ui2d+0x20>
 8001d96:	46c0      	nop			; (mov r8, r8)
 8001d98:	0000041e 	.word	0x0000041e
 8001d9c:	800fffff 	.word	0x800fffff

08001da0 <__clzsi2>:
 8001da0:	211c      	movs	r1, #28
 8001da2:	2301      	movs	r3, #1
 8001da4:	041b      	lsls	r3, r3, #16
 8001da6:	4298      	cmp	r0, r3
 8001da8:	d301      	bcc.n	8001dae <__clzsi2+0xe>
 8001daa:	0c00      	lsrs	r0, r0, #16
 8001dac:	3910      	subs	r1, #16
 8001dae:	0a1b      	lsrs	r3, r3, #8
 8001db0:	4298      	cmp	r0, r3
 8001db2:	d301      	bcc.n	8001db8 <__clzsi2+0x18>
 8001db4:	0a00      	lsrs	r0, r0, #8
 8001db6:	3908      	subs	r1, #8
 8001db8:	091b      	lsrs	r3, r3, #4
 8001dba:	4298      	cmp	r0, r3
 8001dbc:	d301      	bcc.n	8001dc2 <__clzsi2+0x22>
 8001dbe:	0900      	lsrs	r0, r0, #4
 8001dc0:	3904      	subs	r1, #4
 8001dc2:	a202      	add	r2, pc, #8	; (adr r2, 8001dcc <__clzsi2+0x2c>)
 8001dc4:	5c10      	ldrb	r0, [r2, r0]
 8001dc6:	1840      	adds	r0, r0, r1
 8001dc8:	4770      	bx	lr
 8001dca:	46c0      	nop			; (mov r8, r8)
 8001dcc:	02020304 	.word	0x02020304
 8001dd0:	01010101 	.word	0x01010101
	...

08001ddc <MX_GPIO_Init>:
        * Output
        * EVENT_OUT
        * EXTI
*/
void MX_GPIO_Init(void)
{
 8001ddc:	b580      	push	{r7, lr}
 8001dde:	b082      	sub	sp, #8
 8001de0:	af00      	add	r7, sp, #0

  /* GPIO Ports Clock Enable */
  __HAL_RCC_GPIOB_CLK_ENABLE();
 8001de2:	4b10      	ldr	r3, [pc, #64]	; (8001e24 <MX_GPIO_Init+0x48>)
 8001de4:	695a      	ldr	r2, [r3, #20]
 8001de6:	4b0f      	ldr	r3, [pc, #60]	; (8001e24 <MX_GPIO_Init+0x48>)
 8001de8:	2180      	movs	r1, #128	; 0x80
 8001dea:	02c9      	lsls	r1, r1, #11
 8001dec:	430a      	orrs	r2, r1
 8001dee:	615a      	str	r2, [r3, #20]
 8001df0:	4b0c      	ldr	r3, [pc, #48]	; (8001e24 <MX_GPIO_Init+0x48>)
 8001df2:	695a      	ldr	r2, [r3, #20]
 8001df4:	2380      	movs	r3, #128	; 0x80
 8001df6:	02db      	lsls	r3, r3, #11
 8001df8:	4013      	ands	r3, r2
 8001dfa:	607b      	str	r3, [r7, #4]
 8001dfc:	687b      	ldr	r3, [r7, #4]
  __HAL_RCC_GPIOA_CLK_ENABLE();
 8001dfe:	4b09      	ldr	r3, [pc, #36]	; (8001e24 <MX_GPIO_Init+0x48>)
 8001e00:	695a      	ldr	r2, [r3, #20]
 8001e02:	4b08      	ldr	r3, [pc, #32]	; (8001e24 <MX_GPIO_Init+0x48>)
 8001e04:	2180      	movs	r1, #128	; 0x80
 8001e06:	0289      	lsls	r1, r1, #10
 8001e08:	430a      	orrs	r2, r1
 8001e0a:	615a      	str	r2, [r3, #20]
 8001e0c:	4b05      	ldr	r3, [pc, #20]	; (8001e24 <MX_GPIO_Init+0x48>)
 8001e0e:	695a      	ldr	r2, [r3, #20]
 8001e10:	2380      	movs	r3, #128	; 0x80
 8001e12:	029b      	lsls	r3, r3, #10
 8001e14:	4013      	ands	r3, r2
 8001e16:	603b      	str	r3, [r7, #0]
 8001e18:	683b      	ldr	r3, [r7, #0]

}
 8001e1a:	46c0      	nop			; (mov r8, r8)
 8001e1c:	46bd      	mov	sp, r7
 8001e1e:	b002      	add	sp, #8
 8001e20:	bd80      	pop	{r7, pc}
 8001e22:	46c0      	nop			; (mov r8, r8)
 8001e24:	40021000 	.word	0x40021000

08001e28 <main>:
/**
  * @brief  The application entry point.
  * @retval int
  */
int main(void)
{
 8001e28:	b590      	push	{r4, r7, lr}
 8001e2a:	b083      	sub	sp, #12
 8001e2c:	af00      	add	r7, sp, #0
  /* USER CODE END 1 */

  /* MCU Configuration--------------------------------------------------------*/

  /* Reset of all peripherals, Initializes the Flash interface and the Systick. */
  HAL_Init();
 8001e2e:	f000 fc65 	bl	80026fc <HAL_Init>
  /* USER CODE BEGIN Init */

  /* USER CODE END Init */

  /* Configure the system clock */
  SystemClock_Config();
 8001e32:	f000 f8f1 	bl	8002018 <SystemClock_Config>
  /* USER CODE BEGIN SysInit */

  /* USER CODE END SysInit */

  /* Initialize all configured peripherals */
  MX_GPIO_Init();
 8001e36:	f7ff ffd1 	bl	8001ddc <MX_GPIO_Init>
  MX_TIM2_Init();
 8001e3a:	f000 fa3f 	bl	80022bc <MX_TIM2_Init>
  MX_TIM1_Init();
 8001e3e:	f000 f973 	bl	8002128 <MX_TIM1_Init>
  MX_TIM3_Init();
 8001e42:	f000 faa3 	bl	800238c <MX_TIM3_Init>
  /* USER CODE BEGIN 2 */

  // setup all output channel timer PWM
  HAL_TIM_PWM_Start(&htim2, TIM_CHANNEL_1);		// #1
 8001e46:	4b6a      	ldr	r3, [pc, #424]	; (8001ff0 <main+0x1c8>)
 8001e48:	2100      	movs	r1, #0
 8001e4a:	0018      	movs	r0, r3
 8001e4c:	f001 fba6 	bl	800359c <HAL_TIM_PWM_Start>
  HAL_TIM_PWM_Start(&htim2, TIM_CHANNEL_2);		// #2
 8001e50:	4b67      	ldr	r3, [pc, #412]	; (8001ff0 <main+0x1c8>)
 8001e52:	2104      	movs	r1, #4
 8001e54:	0018      	movs	r0, r3
 8001e56:	f001 fba1 	bl	800359c <HAL_TIM_PWM_Start>
  HAL_TIM_PWM_Start(&htim3, TIM_CHANNEL_1);		// #3
 8001e5a:	4b66      	ldr	r3, [pc, #408]	; (8001ff4 <main+0x1cc>)
 8001e5c:	2100      	movs	r1, #0
 8001e5e:	0018      	movs	r0, r3
 8001e60:	f001 fb9c 	bl	800359c <HAL_TIM_PWM_Start>
  HAL_TIM_PWM_Start(&htim3, TIM_CHANNEL_2);		// #4
 8001e64:	4b63      	ldr	r3, [pc, #396]	; (8001ff4 <main+0x1cc>)
 8001e66:	2104      	movs	r1, #4
 8001e68:	0018      	movs	r0, r3
 8001e6a:	f001 fb97 	bl	800359c <HAL_TIM_PWM_Start>
  HAL_TIM_PWM_Start(&htim3, TIM_CHANNEL_3);		// #5
 8001e6e:	4b61      	ldr	r3, [pc, #388]	; (8001ff4 <main+0x1cc>)
 8001e70:	2108      	movs	r1, #8
 8001e72:	0018      	movs	r0, r3
 8001e74:	f001 fb92 	bl	800359c <HAL_TIM_PWM_Start>
  HAL_TIM_PWM_Start(&htim3, TIM_CHANNEL_4);		// #6
 8001e78:	4b5e      	ldr	r3, [pc, #376]	; (8001ff4 <main+0x1cc>)
 8001e7a:	210c      	movs	r1, #12
 8001e7c:	0018      	movs	r0, r3
 8001e7e:	f001 fb8d 	bl	800359c <HAL_TIM_PWM_Start>
  HAL_TIM_PWM_Start(&htim1, TIM_CHANNEL_1);		// #7
 8001e82:	4b5d      	ldr	r3, [pc, #372]	; (8001ff8 <main+0x1d0>)
 8001e84:	2100      	movs	r1, #0
 8001e86:	0018      	movs	r0, r3
 8001e88:	f001 fb88 	bl	800359c <HAL_TIM_PWM_Start>
  HAL_TIM_PWM_Start(&htim1, TIM_CHANNEL_2);		// #8
 8001e8c:	4b5a      	ldr	r3, [pc, #360]	; (8001ff8 <main+0x1d0>)
 8001e8e:	2104      	movs	r1, #4
 8001e90:	0018      	movs	r0, r3
 8001e92:	f001 fb83 	bl	800359c <HAL_TIM_PWM_Start>
  HAL_TIM_PWM_Start(&htim1, TIM_CHANNEL_3);		// #9
 8001e96:	4b58      	ldr	r3, [pc, #352]	; (8001ff8 <main+0x1d0>)
 8001e98:	2108      	movs	r1, #8
 8001e9a:	0018      	movs	r0, r3
 8001e9c:	f001 fb7e 	bl	800359c <HAL_TIM_PWM_Start>

  TIM2->CCER |= TIM_CCER_CC1E;
 8001ea0:	2380      	movs	r3, #128	; 0x80
 8001ea2:	05db      	lsls	r3, r3, #23
 8001ea4:	6a1a      	ldr	r2, [r3, #32]
 8001ea6:	2380      	movs	r3, #128	; 0x80
 8001ea8:	05db      	lsls	r3, r3, #23
 8001eaa:	2101      	movs	r1, #1
 8001eac:	430a      	orrs	r2, r1
 8001eae:	621a      	str	r2, [r3, #32]
  TIM2->CCER |= TIM_CCER_CC2E;
 8001eb0:	2380      	movs	r3, #128	; 0x80
 8001eb2:	05db      	lsls	r3, r3, #23
 8001eb4:	6a1a      	ldr	r2, [r3, #32]
 8001eb6:	2380      	movs	r3, #128	; 0x80
 8001eb8:	05db      	lsls	r3, r3, #23
 8001eba:	2110      	movs	r1, #16
 8001ebc:	430a      	orrs	r2, r1
 8001ebe:	621a      	str	r2, [r3, #32]

  TIM3->CCER |= TIM_CCER_CC1E;
 8001ec0:	4b4e      	ldr	r3, [pc, #312]	; (8001ffc <main+0x1d4>)
 8001ec2:	6a1a      	ldr	r2, [r3, #32]
 8001ec4:	4b4d      	ldr	r3, [pc, #308]	; (8001ffc <main+0x1d4>)
 8001ec6:	2101      	movs	r1, #1
 8001ec8:	430a      	orrs	r2, r1
 8001eca:	621a      	str	r2, [r3, #32]
  TIM3->CCER |= TIM_CCER_CC2E;
 8001ecc:	4b4b      	ldr	r3, [pc, #300]	; (8001ffc <main+0x1d4>)
 8001ece:	6a1a      	ldr	r2, [r3, #32]
 8001ed0:	4b4a      	ldr	r3, [pc, #296]	; (8001ffc <main+0x1d4>)
 8001ed2:	2110      	movs	r1, #16
 8001ed4:	430a      	orrs	r2, r1
 8001ed6:	621a      	str	r2, [r3, #32]
  TIM3->CCER |= TIM_CCER_CC3E;
 8001ed8:	4b48      	ldr	r3, [pc, #288]	; (8001ffc <main+0x1d4>)
 8001eda:	6a1a      	ldr	r2, [r3, #32]
 8001edc:	4b47      	ldr	r3, [pc, #284]	; (8001ffc <main+0x1d4>)
 8001ede:	2180      	movs	r1, #128	; 0x80
 8001ee0:	0049      	lsls	r1, r1, #1
 8001ee2:	430a      	orrs	r2, r1
 8001ee4:	621a      	str	r2, [r3, #32]
  TIM3->CCER |= TIM_CCER_CC4E;
 8001ee6:	4b45      	ldr	r3, [pc, #276]	; (8001ffc <main+0x1d4>)
 8001ee8:	6a1a      	ldr	r2, [r3, #32]
 8001eea:	4b44      	ldr	r3, [pc, #272]	; (8001ffc <main+0x1d4>)
 8001eec:	2180      	movs	r1, #128	; 0x80
 8001eee:	0149      	lsls	r1, r1, #5
 8001ef0:	430a      	orrs	r2, r1
 8001ef2:	621a      	str	r2, [r3, #32]

  TIM1->CCER |= TIM_CCER_CC1E;
 8001ef4:	4b42      	ldr	r3, [pc, #264]	; (8002000 <main+0x1d8>)
 8001ef6:	6a1a      	ldr	r2, [r3, #32]
 8001ef8:	4b41      	ldr	r3, [pc, #260]	; (8002000 <main+0x1d8>)
 8001efa:	2101      	movs	r1, #1
 8001efc:	430a      	orrs	r2, r1
 8001efe:	621a      	str	r2, [r3, #32]
  TIM1->CCER |= TIM_CCER_CC2E;
 8001f00:	4b3f      	ldr	r3, [pc, #252]	; (8002000 <main+0x1d8>)
 8001f02:	6a1a      	ldr	r2, [r3, #32]
 8001f04:	4b3e      	ldr	r3, [pc, #248]	; (8002000 <main+0x1d8>)
 8001f06:	2110      	movs	r1, #16
 8001f08:	430a      	orrs	r2, r1
 8001f0a:	621a      	str	r2, [r3, #32]
  TIM1->CCER |= TIM_CCER_CC3E;
 8001f0c:	4b3c      	ldr	r3, [pc, #240]	; (8002000 <main+0x1d8>)
 8001f0e:	6a1a      	ldr	r2, [r3, #32]
 8001f10:	4b3b      	ldr	r3, [pc, #236]	; (8002000 <main+0x1d8>)
 8001f12:	2180      	movs	r1, #128	; 0x80
 8001f14:	0049      	lsls	r1, r1, #1
 8001f16:	430a      	orrs	r2, r1
 8001f18:	621a      	str	r2, [r3, #32]

  TIM1->ARR = pwm_arr;
 8001f1a:	4b3a      	ldr	r3, [pc, #232]	; (8002004 <main+0x1dc>)
 8001f1c:	681a      	ldr	r2, [r3, #0]
 8001f1e:	4b38      	ldr	r3, [pc, #224]	; (8002000 <main+0x1d8>)
 8001f20:	62da      	str	r2, [r3, #44]	; 0x2c
  TIM2->ARR = pwm_arr;
 8001f22:	4b38      	ldr	r3, [pc, #224]	; (8002004 <main+0x1dc>)
 8001f24:	681a      	ldr	r2, [r3, #0]
 8001f26:	2380      	movs	r3, #128	; 0x80
 8001f28:	05db      	lsls	r3, r3, #23
 8001f2a:	62da      	str	r2, [r3, #44]	; 0x2c
  TIM3->ARR = pwm_arr;
 8001f2c:	4b35      	ldr	r3, [pc, #212]	; (8002004 <main+0x1dc>)
 8001f2e:	681a      	ldr	r2, [r3, #0]
 8001f30:	4b32      	ldr	r3, [pc, #200]	; (8001ffc <main+0x1d4>)
 8001f32:	62da      	str	r2, [r3, #44]	; 0x2c

  /* Infinite loop */
  /* USER CODE BEGIN WHILE */
  while (1)
  {
	  uint32_t rootpwm = sqrt(pwm_on_duty);
 8001f34:	4b34      	ldr	r3, [pc, #208]	; (8002008 <main+0x1e0>)
 8001f36:	681b      	ldr	r3, [r3, #0]
 8001f38:	0018      	movs	r0, r3
 8001f3a:	f7ff feff 	bl	8001d3c <__aeabi_ui2d>
 8001f3e:	0003      	movs	r3, r0
 8001f40:	000c      	movs	r4, r1
 8001f42:	0018      	movs	r0, r3
 8001f44:	0021      	movs	r1, r4
 8001f46:	f002 f913 	bl	8004170 <sqrt>
 8001f4a:	0003      	movs	r3, r0
 8001f4c:	000c      	movs	r4, r1
 8001f4e:	0018      	movs	r0, r3
 8001f50:	0021      	movs	r1, r4
 8001f52:	f7fe f9a3 	bl	800029c <__aeabi_d2uiz>
 8001f56:	0003      	movs	r3, r0
 8001f58:	607b      	str	r3, [r7, #4]
	  TIM2->CCR1 = rootpwm;
 8001f5a:	2380      	movs	r3, #128	; 0x80
 8001f5c:	05db      	lsls	r3, r3, #23
 8001f5e:	687a      	ldr	r2, [r7, #4]
 8001f60:	635a      	str	r2, [r3, #52]	; 0x34
	  TIM2->CCR2 = rootpwm;
 8001f62:	2380      	movs	r3, #128	; 0x80
 8001f64:	05db      	lsls	r3, r3, #23
 8001f66:	687a      	ldr	r2, [r7, #4]
 8001f68:	639a      	str	r2, [r3, #56]	; 0x38

	  TIM3->CCR1 = rootpwm;
 8001f6a:	4b24      	ldr	r3, [pc, #144]	; (8001ffc <main+0x1d4>)
 8001f6c:	687a      	ldr	r2, [r7, #4]
 8001f6e:	635a      	str	r2, [r3, #52]	; 0x34
	  TIM3->CCR2 = rootpwm;
 8001f70:	4b22      	ldr	r3, [pc, #136]	; (8001ffc <main+0x1d4>)
 8001f72:	687a      	ldr	r2, [r7, #4]
 8001f74:	639a      	str	r2, [r3, #56]	; 0x38
	  TIM3->CCR3 = rootpwm;
 8001f76:	4b21      	ldr	r3, [pc, #132]	; (8001ffc <main+0x1d4>)
 8001f78:	687a      	ldr	r2, [r7, #4]
 8001f7a:	63da      	str	r2, [r3, #60]	; 0x3c
	  TIM3->CCR4 = rootpwm;
 8001f7c:	4b1f      	ldr	r3, [pc, #124]	; (8001ffc <main+0x1d4>)
 8001f7e:	687a      	ldr	r2, [r7, #4]
 8001f80:	641a      	str	r2, [r3, #64]	; 0x40

	  TIM1->CCR1 = rootpwm;
 8001f82:	4b1f      	ldr	r3, [pc, #124]	; (8002000 <main+0x1d8>)
 8001f84:	687a      	ldr	r2, [r7, #4]
 8001f86:	635a      	str	r2, [r3, #52]	; 0x34
	  TIM1->CCR2 = rootpwm;
 8001f88:	4b1d      	ldr	r3, [pc, #116]	; (8002000 <main+0x1d8>)
 8001f8a:	687a      	ldr	r2, [r7, #4]
 8001f8c:	639a      	str	r2, [r3, #56]	; 0x38
	  TIM1->CCR3 = rootpwm;
 8001f8e:	4b1c      	ldr	r3, [pc, #112]	; (8002000 <main+0x1d8>)
 8001f90:	687a      	ldr	r2, [r7, #4]
 8001f92:	63da      	str	r2, [r3, #60]	; 0x3c

	  //HAL_Delay(5);
	  if(pwm_fade_up)
 8001f94:	4b1d      	ldr	r3, [pc, #116]	; (800200c <main+0x1e4>)
 8001f96:	681b      	ldr	r3, [r3, #0]
 8001f98:	2b00      	cmp	r3, #0
 8001f9a:	d00a      	beq.n	8001fb2 <main+0x18a>
	  {
		  HAL_Delay(pwm_delay);
 8001f9c:	4b1c      	ldr	r3, [pc, #112]	; (8002010 <main+0x1e8>)
 8001f9e:	681b      	ldr	r3, [r3, #0]
 8001fa0:	0018      	movs	r0, r3
 8001fa2:	f000 fc0f 	bl	80027c4 <HAL_Delay>
		  pwm_on_duty++;
 8001fa6:	4b18      	ldr	r3, [pc, #96]	; (8002008 <main+0x1e0>)
 8001fa8:	681b      	ldr	r3, [r3, #0]
 8001faa:	1c5a      	adds	r2, r3, #1
 8001fac:	4b16      	ldr	r3, [pc, #88]	; (8002008 <main+0x1e0>)
 8001fae:	601a      	str	r2, [r3, #0]
 8001fb0:	e009      	b.n	8001fc6 <main+0x19e>
	  }
	  else
	  {
		  HAL_Delay(pwm_delay);
 8001fb2:	4b17      	ldr	r3, [pc, #92]	; (8002010 <main+0x1e8>)
 8001fb4:	681b      	ldr	r3, [r3, #0]
 8001fb6:	0018      	movs	r0, r3
 8001fb8:	f000 fc04 	bl	80027c4 <HAL_Delay>
		  pwm_on_duty--;
 8001fbc:	4b12      	ldr	r3, [pc, #72]	; (8002008 <main+0x1e0>)
 8001fbe:	681b      	ldr	r3, [r3, #0]
 8001fc0:	1e5a      	subs	r2, r3, #1
 8001fc2:	4b11      	ldr	r3, [pc, #68]	; (8002008 <main+0x1e0>)
 8001fc4:	601a      	str	r2, [r3, #0]
	  }

	  //(pwm_on_duty++);
	  if(pwm_on_duty > pwm_limit)
 8001fc6:	4b13      	ldr	r3, [pc, #76]	; (8002014 <main+0x1ec>)
 8001fc8:	881b      	ldrh	r3, [r3, #0]
 8001fca:	001a      	movs	r2, r3
 8001fcc:	4b0e      	ldr	r3, [pc, #56]	; (8002008 <main+0x1e0>)
 8001fce:	681b      	ldr	r3, [r3, #0]
 8001fd0:	429a      	cmp	r2, r3
 8001fd2:	d202      	bcs.n	8001fda <main+0x1b2>
	  {
		  pwm_fade_up = 0;
 8001fd4:	4b0d      	ldr	r3, [pc, #52]	; (800200c <main+0x1e4>)
 8001fd6:	2200      	movs	r2, #0
 8001fd8:	601a      	str	r2, [r3, #0]
	  }
	  if(pwm_on_duty < 1)
 8001fda:	4b0b      	ldr	r3, [pc, #44]	; (8002008 <main+0x1e0>)
 8001fdc:	681b      	ldr	r3, [r3, #0]
 8001fde:	2b00      	cmp	r3, #0
 8001fe0:	d1a8      	bne.n	8001f34 <main+0x10c>
	  {
		  HAL_Delay(100);
 8001fe2:	2064      	movs	r0, #100	; 0x64
 8001fe4:	f000 fbee 	bl	80027c4 <HAL_Delay>
		  pwm_fade_up = 1;
 8001fe8:	4b08      	ldr	r3, [pc, #32]	; (800200c <main+0x1e4>)
 8001fea:	2201      	movs	r2, #1
 8001fec:	601a      	str	r2, [r3, #0]
  {
 8001fee:	e7a1      	b.n	8001f34 <main+0x10c>
 8001ff0:	20000124 	.word	0x20000124
 8001ff4:	200000a4 	.word	0x200000a4
 8001ff8:	200000e4 	.word	0x200000e4
 8001ffc:	40000400 	.word	0x40000400
 8002000:	40012c00 	.word	0x40012c00
 8002004:	20000008 	.word	0x20000008
 8002008:	2000009c 	.word	0x2000009c
 800200c:	20000004 	.word	0x20000004
 8002010:	200000a0 	.word	0x200000a0
 8002014:	20000000 	.word	0x20000000

08002018 <SystemClock_Config>:
/**
  * @brief System Clock Configuration
  * @retval None
  */
void SystemClock_Config(void)
{
 8002018:	b590      	push	{r4, r7, lr}
 800201a:	b091      	sub	sp, #68	; 0x44
 800201c:	af00      	add	r7, sp, #0
  RCC_OscInitTypeDef RCC_OscInitStruct = {0};
 800201e:	2410      	movs	r4, #16
 8002020:	193b      	adds	r3, r7, r4
 8002022:	0018      	movs	r0, r3
 8002024:	2330      	movs	r3, #48	; 0x30
 8002026:	001a      	movs	r2, r3
 8002028:	2100      	movs	r1, #0
 800202a:	f002 f899 	bl	8004160 <memset>
  RCC_ClkInitTypeDef RCC_ClkInitStruct = {0};
 800202e:	003b      	movs	r3, r7
 8002030:	0018      	movs	r0, r3
 8002032:	2310      	movs	r3, #16
 8002034:	001a      	movs	r2, r3
 8002036:	2100      	movs	r1, #0
 8002038:	f002 f892 	bl	8004160 <memset>

  /** Initializes the CPU, AHB and APB busses clocks 
  */
  RCC_OscInitStruct.OscillatorType = RCC_OSCILLATORTYPE_HSI;
 800203c:	0021      	movs	r1, r4
 800203e:	187b      	adds	r3, r7, r1
 8002040:	2202      	movs	r2, #2
 8002042:	601a      	str	r2, [r3, #0]
  RCC_OscInitStruct.HSIState = RCC_HSI_ON;
 8002044:	187b      	adds	r3, r7, r1
 8002046:	2201      	movs	r2, #1
 8002048:	60da      	str	r2, [r3, #12]
  RCC_OscInitStruct.HSICalibrationValue = RCC_HSICALIBRATION_DEFAULT;
 800204a:	187b      	adds	r3, r7, r1
 800204c:	2210      	movs	r2, #16
 800204e:	611a      	str	r2, [r3, #16]
  RCC_OscInitStruct.PLL.PLLState = RCC_PLL_NONE;
 8002050:	187b      	adds	r3, r7, r1
 8002052:	2200      	movs	r2, #0
 8002054:	621a      	str	r2, [r3, #32]
  if (HAL_RCC_OscConfig(&RCC_OscInitStruct) != HAL_OK)
 8002056:	187b      	adds	r3, r7, r1
 8002058:	0018      	movs	r0, r3
 800205a:	f000 fdf9 	bl	8002c50 <HAL_RCC_OscConfig>
 800205e:	1e03      	subs	r3, r0, #0
 8002060:	d001      	beq.n	8002066 <SystemClock_Config+0x4e>
  {
    Error_Handler();
 8002062:	f000 f819 	bl	8002098 <Error_Handler>
  }
  /** Initializes the CPU, AHB and APB busses clocks 
  */
  RCC_ClkInitStruct.ClockType = RCC_CLOCKTYPE_HCLK|RCC_CLOCKTYPE_SYSCLK
 8002066:	003b      	movs	r3, r7
 8002068:	2207      	movs	r2, #7
 800206a:	601a      	str	r2, [r3, #0]
                              |RCC_CLOCKTYPE_PCLK1;
  RCC_ClkInitStruct.SYSCLKSource = RCC_SYSCLKSOURCE_HSI;
 800206c:	003b      	movs	r3, r7
 800206e:	2200      	movs	r2, #0
 8002070:	605a      	str	r2, [r3, #4]
  RCC_ClkInitStruct.AHBCLKDivider = RCC_SYSCLK_DIV1;
 8002072:	003b      	movs	r3, r7
 8002074:	2200      	movs	r2, #0
 8002076:	609a      	str	r2, [r3, #8]
  RCC_ClkInitStruct.APB1CLKDivider = RCC_HCLK_DIV1;
 8002078:	003b      	movs	r3, r7
 800207a:	2200      	movs	r2, #0
 800207c:	60da      	str	r2, [r3, #12]

  if (HAL_RCC_ClockConfig(&RCC_ClkInitStruct, FLASH_LATENCY_0) != HAL_OK)
 800207e:	003b      	movs	r3, r7
 8002080:	2100      	movs	r1, #0
 8002082:	0018      	movs	r0, r3
 8002084:	f001 f900 	bl	8003288 <HAL_RCC_ClockConfig>
 8002088:	1e03      	subs	r3, r0, #0
 800208a:	d001      	beq.n	8002090 <SystemClock_Config+0x78>
  {
    Error_Handler();
 800208c:	f000 f804 	bl	8002098 <Error_Handler>
  }
}
 8002090:	46c0      	nop			; (mov r8, r8)
 8002092:	46bd      	mov	sp, r7
 8002094:	b011      	add	sp, #68	; 0x44
 8002096:	bd90      	pop	{r4, r7, pc}

08002098 <Error_Handler>:
/**
  * @brief  This function is executed in case of error occurrence.
  * @retval None
  */
void Error_Handler(void)
{
 8002098:	b580      	push	{r7, lr}
 800209a:	af00      	add	r7, sp, #0
  /* USER CODE BEGIN Error_Handler_Debug */
  /* User can add his own implementation to report the HAL error return state */

  /* USER CODE END Error_Handler_Debug */
}
 800209c:	46c0      	nop			; (mov r8, r8)
 800209e:	46bd      	mov	sp, r7
 80020a0:	bd80      	pop	{r7, pc}
	...

080020a4 <HAL_MspInit>:
/* USER CODE END 0 */
/**
  * Initializes the Global MSP.
  */
void HAL_MspInit(void)
{
 80020a4:	b580      	push	{r7, lr}
 80020a6:	b082      	sub	sp, #8
 80020a8:	af00      	add	r7, sp, #0
  /* USER CODE BEGIN MspInit 0 */

  /* USER CODE END MspInit 0 */

  __HAL_RCC_SYSCFG_CLK_ENABLE();
 80020aa:	4b0f      	ldr	r3, [pc, #60]	; (80020e8 <HAL_MspInit+0x44>)
 80020ac:	699a      	ldr	r2, [r3, #24]
 80020ae:	4b0e      	ldr	r3, [pc, #56]	; (80020e8 <HAL_MspInit+0x44>)
 80020b0:	2101      	movs	r1, #1
 80020b2:	430a      	orrs	r2, r1
 80020b4:	619a      	str	r2, [r3, #24]
 80020b6:	4b0c      	ldr	r3, [pc, #48]	; (80020e8 <HAL_MspInit+0x44>)
 80020b8:	699b      	ldr	r3, [r3, #24]
 80020ba:	2201      	movs	r2, #1
 80020bc:	4013      	ands	r3, r2
 80020be:	607b      	str	r3, [r7, #4]
 80020c0:	687b      	ldr	r3, [r7, #4]
  __HAL_RCC_PWR_CLK_ENABLE();
 80020c2:	4b09      	ldr	r3, [pc, #36]	; (80020e8 <HAL_MspInit+0x44>)
 80020c4:	69da      	ldr	r2, [r3, #28]
 80020c6:	4b08      	ldr	r3, [pc, #32]	; (80020e8 <HAL_MspInit+0x44>)
 80020c8:	2180      	movs	r1, #128	; 0x80
 80020ca:	0549      	lsls	r1, r1, #21
 80020cc:	430a      	orrs	r2, r1
 80020ce:	61da      	str	r2, [r3, #28]
 80020d0:	4b05      	ldr	r3, [pc, #20]	; (80020e8 <HAL_MspInit+0x44>)
 80020d2:	69da      	ldr	r2, [r3, #28]
 80020d4:	2380      	movs	r3, #128	; 0x80
 80020d6:	055b      	lsls	r3, r3, #21
 80020d8:	4013      	ands	r3, r2
 80020da:	603b      	str	r3, [r7, #0]
 80020dc:	683b      	ldr	r3, [r7, #0]
  /* System interrupt init*/

  /* USER CODE BEGIN MspInit 1 */

  /* USER CODE END MspInit 1 */
}
 80020de:	46c0      	nop			; (mov r8, r8)
 80020e0:	46bd      	mov	sp, r7
 80020e2:	b002      	add	sp, #8
 80020e4:	bd80      	pop	{r7, pc}
 80020e6:	46c0      	nop			; (mov r8, r8)
 80020e8:	40021000 	.word	0x40021000

080020ec <NMI_Handler>:
/******************************************************************************/
/**
  * @brief This function handles Non maskable interrupt.
  */
void NMI_Handler(void)
{
 80020ec:	b580      	push	{r7, lr}
 80020ee:	af00      	add	r7, sp, #0

  /* USER CODE END NonMaskableInt_IRQn 0 */
  /* USER CODE BEGIN NonMaskableInt_IRQn 1 */

  /* USER CODE END NonMaskableInt_IRQn 1 */
}
 80020f0:	46c0      	nop			; (mov r8, r8)
 80020f2:	46bd      	mov	sp, r7
 80020f4:	bd80      	pop	{r7, pc}

080020f6 <HardFault_Handler>:

/**
  * @brief This function handles Hard fault interrupt.
  */
void HardFault_Handler(void)
{
 80020f6:	b580      	push	{r7, lr}
 80020f8:	af00      	add	r7, sp, #0
  /* USER CODE BEGIN HardFault_IRQn 0 */

  /* USER CODE END HardFault_IRQn 0 */
  while (1)
 80020fa:	e7fe      	b.n	80020fa <HardFault_Handler+0x4>

080020fc <SVC_Handler>:

/**
  * @brief This function handles System service call via SWI instruction.
  */
void SVC_Handler(void)
{
 80020fc:	b580      	push	{r7, lr}
 80020fe:	af00      	add	r7, sp, #0

  /* USER CODE END SVC_IRQn 0 */
  /* USER CODE BEGIN SVC_IRQn 1 */

  /* USER CODE END SVC_IRQn 1 */
}
 8002100:	46c0      	nop			; (mov r8, r8)
 8002102:	46bd      	mov	sp, r7
 8002104:	bd80      	pop	{r7, pc}

08002106 <PendSV_Handler>:

/**
  * @brief This function handles Pendable request for system service.
  */
void PendSV_Handler(void)
{
 8002106:	b580      	push	{r7, lr}
 8002108:	af00      	add	r7, sp, #0

  /* USER CODE END PendSV_IRQn 0 */
  /* USER CODE BEGIN PendSV_IRQn 1 */

  /* USER CODE END PendSV_IRQn 1 */
}
 800210a:	46c0      	nop			; (mov r8, r8)
 800210c:	46bd      	mov	sp, r7
 800210e:	bd80      	pop	{r7, pc}

08002110 <SysTick_Handler>:

/**
  * @brief This function handles System tick timer.
  */
void SysTick_Handler(void)
{
 8002110:	b580      	push	{r7, lr}
 8002112:	af00      	add	r7, sp, #0
  /* USER CODE BEGIN SysTick_IRQn 0 */

  /* USER CODE END SysTick_IRQn 0 */
  HAL_IncTick();
 8002114:	f000 fb3a 	bl	800278c <HAL_IncTick>
  /* USER CODE BEGIN SysTick_IRQn 1 */

  /* USER CODE END SysTick_IRQn 1 */
}
 8002118:	46c0      	nop			; (mov r8, r8)
 800211a:	46bd      	mov	sp, r7
 800211c:	bd80      	pop	{r7, pc}

0800211e <SystemInit>:
  * @brief  Setup the microcontroller system.
  * @param  None
  * @retval None
  */
void SystemInit(void)
{
 800211e:	b580      	push	{r7, lr}
 8002120:	af00      	add	r7, sp, #0
                         before branch to main program. This call is made inside
                         the "startup_stm32f0xx.s" file.
                         User can setups the default system clock (System clock source, PLL Multiplier
                         and Divider factors, AHB/APBx prescalers and Flash settings).
   */
}
 8002122:	46c0      	nop			; (mov r8, r8)
 8002124:	46bd      	mov	sp, r7
 8002126:	bd80      	pop	{r7, pc}

08002128 <MX_TIM1_Init>:
TIM_HandleTypeDef htim2;
TIM_HandleTypeDef htim3;

/* TIM1 init function */
void MX_TIM1_Init(void)
{
 8002128:	b580      	push	{r7, lr}
 800212a:	b096      	sub	sp, #88	; 0x58
 800212c:	af00      	add	r7, sp, #0
  TIM_ClockConfigTypeDef sClockSourceConfig = {0};
 800212e:	2348      	movs	r3, #72	; 0x48
 8002130:	18fb      	adds	r3, r7, r3
 8002132:	0018      	movs	r0, r3
 8002134:	2310      	movs	r3, #16
 8002136:	001a      	movs	r2, r3
 8002138:	2100      	movs	r1, #0
 800213a:	f002 f811 	bl	8004160 <memset>
  TIM_MasterConfigTypeDef sMasterConfig = {0};
 800213e:	2340      	movs	r3, #64	; 0x40
 8002140:	18fb      	adds	r3, r7, r3
 8002142:	0018      	movs	r0, r3
 8002144:	2308      	movs	r3, #8
 8002146:	001a      	movs	r2, r3
 8002148:	2100      	movs	r1, #0
 800214a:	f002 f809 	bl	8004160 <memset>
  TIM_OC_InitTypeDef sConfigOC = {0};
 800214e:	2324      	movs	r3, #36	; 0x24
 8002150:	18fb      	adds	r3, r7, r3
 8002152:	0018      	movs	r0, r3
 8002154:	231c      	movs	r3, #28
 8002156:	001a      	movs	r2, r3
 8002158:	2100      	movs	r1, #0
 800215a:	f002 f801 	bl	8004160 <memset>
  TIM_BreakDeadTimeConfigTypeDef sBreakDeadTimeConfig = {0};
 800215e:	1d3b      	adds	r3, r7, #4
 8002160:	0018      	movs	r0, r3
 8002162:	2320      	movs	r3, #32
 8002164:	001a      	movs	r2, r3
 8002166:	2100      	movs	r1, #0
 8002168:	f001 fffa 	bl	8004160 <memset>

  htim1.Instance = TIM1;
 800216c:	4b51      	ldr	r3, [pc, #324]	; (80022b4 <MX_TIM1_Init+0x18c>)
 800216e:	4a52      	ldr	r2, [pc, #328]	; (80022b8 <MX_TIM1_Init+0x190>)
 8002170:	601a      	str	r2, [r3, #0]
  htim1.Init.Prescaler = 1;
 8002172:	4b50      	ldr	r3, [pc, #320]	; (80022b4 <MX_TIM1_Init+0x18c>)
 8002174:	2201      	movs	r2, #1
 8002176:	605a      	str	r2, [r3, #4]
  htim1.Init.CounterMode = TIM_COUNTERMODE_UP;
 8002178:	4b4e      	ldr	r3, [pc, #312]	; (80022b4 <MX_TIM1_Init+0x18c>)
 800217a:	2200      	movs	r2, #0
 800217c:	609a      	str	r2, [r3, #8]
  htim1.Init.Period = 255;
 800217e:	4b4d      	ldr	r3, [pc, #308]	; (80022b4 <MX_TIM1_Init+0x18c>)
 8002180:	22ff      	movs	r2, #255	; 0xff
 8002182:	60da      	str	r2, [r3, #12]
  htim1.Init.ClockDivision = TIM_CLOCKDIVISION_DIV1;
 8002184:	4b4b      	ldr	r3, [pc, #300]	; (80022b4 <MX_TIM1_Init+0x18c>)
 8002186:	2200      	movs	r2, #0
 8002188:	611a      	str	r2, [r3, #16]
  htim1.Init.RepetitionCounter = 0;
 800218a:	4b4a      	ldr	r3, [pc, #296]	; (80022b4 <MX_TIM1_Init+0x18c>)
 800218c:	2200      	movs	r2, #0
 800218e:	615a      	str	r2, [r3, #20]
  htim1.Init.AutoReloadPreload = TIM_AUTORELOAD_PRELOAD_DISABLE;
 8002190:	4b48      	ldr	r3, [pc, #288]	; (80022b4 <MX_TIM1_Init+0x18c>)
 8002192:	2200      	movs	r2, #0
 8002194:	619a      	str	r2, [r3, #24]
  if (HAL_TIM_Base_Init(&htim1) != HAL_OK)
 8002196:	4b47      	ldr	r3, [pc, #284]	; (80022b4 <MX_TIM1_Init+0x18c>)
 8002198:	0018      	movs	r0, r3
 800219a:	f001 f9a7 	bl	80034ec <HAL_TIM_Base_Init>
 800219e:	1e03      	subs	r3, r0, #0
 80021a0:	d001      	beq.n	80021a6 <MX_TIM1_Init+0x7e>
  {
    Error_Handler();
 80021a2:	f7ff ff79 	bl	8002098 <Error_Handler>
  }
  sClockSourceConfig.ClockSource = TIM_CLOCKSOURCE_INTERNAL;
 80021a6:	2148      	movs	r1, #72	; 0x48
 80021a8:	187b      	adds	r3, r7, r1
 80021aa:	2280      	movs	r2, #128	; 0x80
 80021ac:	0152      	lsls	r2, r2, #5
 80021ae:	601a      	str	r2, [r3, #0]
  if (HAL_TIM_ConfigClockSource(&htim1, &sClockSourceConfig) != HAL_OK)
 80021b0:	187a      	adds	r2, r7, r1
 80021b2:	4b40      	ldr	r3, [pc, #256]	; (80022b4 <MX_TIM1_Init+0x18c>)
 80021b4:	0011      	movs	r1, r2
 80021b6:	0018      	movs	r0, r3
 80021b8:	f001 faf4 	bl	80037a4 <HAL_TIM_ConfigClockSource>
 80021bc:	1e03      	subs	r3, r0, #0
 80021be:	d001      	beq.n	80021c4 <MX_TIM1_Init+0x9c>
  {
    Error_Handler();
 80021c0:	f7ff ff6a 	bl	8002098 <Error_Handler>
  }
  if (HAL_TIM_PWM_Init(&htim1) != HAL_OK)
 80021c4:	4b3b      	ldr	r3, [pc, #236]	; (80022b4 <MX_TIM1_Init+0x18c>)
 80021c6:	0018      	movs	r0, r3
 80021c8:	f001 f9bc 	bl	8003544 <HAL_TIM_PWM_Init>
 80021cc:	1e03      	subs	r3, r0, #0
 80021ce:	d001      	beq.n	80021d4 <MX_TIM1_Init+0xac>
  {
    Error_Handler();
 80021d0:	f7ff ff62 	bl	8002098 <Error_Handler>
  }
  sMasterConfig.MasterOutputTrigger = TIM_TRGO_RESET;
 80021d4:	2140      	movs	r1, #64	; 0x40
 80021d6:	187b      	adds	r3, r7, r1
 80021d8:	2200      	movs	r2, #0
 80021da:	601a      	str	r2, [r3, #0]
  sMasterConfig.MasterSlaveMode = TIM_MASTERSLAVEMODE_DISABLE;
 80021dc:	187b      	adds	r3, r7, r1
 80021de:	2200      	movs	r2, #0
 80021e0:	605a      	str	r2, [r3, #4]
  if (HAL_TIMEx_MasterConfigSynchronization(&htim1, &sMasterConfig) != HAL_OK)
 80021e2:	187a      	adds	r2, r7, r1
 80021e4:	4b33      	ldr	r3, [pc, #204]	; (80022b4 <MX_TIM1_Init+0x18c>)
 80021e6:	0011      	movs	r1, r2
 80021e8:	0018      	movs	r0, r3
 80021ea:	f001 fed3 	bl	8003f94 <HAL_TIMEx_MasterConfigSynchronization>
 80021ee:	1e03      	subs	r3, r0, #0
 80021f0:	d001      	beq.n	80021f6 <MX_TIM1_Init+0xce>
  {
    Error_Handler();
 80021f2:	f7ff ff51 	bl	8002098 <Error_Handler>
  }
  sConfigOC.OCMode = TIM_OCMODE_PWM1;
 80021f6:	2124      	movs	r1, #36	; 0x24
 80021f8:	187b      	adds	r3, r7, r1
 80021fa:	2260      	movs	r2, #96	; 0x60
 80021fc:	601a      	str	r2, [r3, #0]
  sConfigOC.Pulse = 0;
 80021fe:	187b      	adds	r3, r7, r1
 8002200:	2200      	movs	r2, #0
 8002202:	605a      	str	r2, [r3, #4]
  sConfigOC.OCPolarity = TIM_OCPOLARITY_HIGH;
 8002204:	187b      	adds	r3, r7, r1
 8002206:	2200      	movs	r2, #0
 8002208:	609a      	str	r2, [r3, #8]
  sConfigOC.OCNPolarity = TIM_OCNPOLARITY_HIGH;
 800220a:	187b      	adds	r3, r7, r1
 800220c:	2200      	movs	r2, #0
 800220e:	60da      	str	r2, [r3, #12]
  sConfigOC.OCFastMode = TIM_OCFAST_DISABLE;
 8002210:	187b      	adds	r3, r7, r1
 8002212:	2200      	movs	r2, #0
 8002214:	611a      	str	r2, [r3, #16]
  sConfigOC.OCIdleState = TIM_OCIDLESTATE_RESET;
 8002216:	187b      	adds	r3, r7, r1
 8002218:	2200      	movs	r2, #0
 800221a:	615a      	str	r2, [r3, #20]
  sConfigOC.OCNIdleState = TIM_OCNIDLESTATE_RESET;
 800221c:	187b      	adds	r3, r7, r1
 800221e:	2200      	movs	r2, #0
 8002220:	619a      	str	r2, [r3, #24]
  if (HAL_TIM_PWM_ConfigChannel(&htim1, &sConfigOC, TIM_CHANNEL_1) != HAL_OK)
 8002222:	1879      	adds	r1, r7, r1
 8002224:	4b23      	ldr	r3, [pc, #140]	; (80022b4 <MX_TIM1_Init+0x18c>)
 8002226:	2200      	movs	r2, #0
 8002228:	0018      	movs	r0, r3
 800222a:	f001 fa03 	bl	8003634 <HAL_TIM_PWM_ConfigChannel>
 800222e:	1e03      	subs	r3, r0, #0
 8002230:	d001      	beq.n	8002236 <MX_TIM1_Init+0x10e>
  {
    Error_Handler();
 8002232:	f7ff ff31 	bl	8002098 <Error_Handler>
  }
  if (HAL_TIM_PWM_ConfigChannel(&htim1, &sConfigOC, TIM_CHANNEL_2) != HAL_OK)
 8002236:	2324      	movs	r3, #36	; 0x24
 8002238:	18f9      	adds	r1, r7, r3
 800223a:	4b1e      	ldr	r3, [pc, #120]	; (80022b4 <MX_TIM1_Init+0x18c>)
 800223c:	2204      	movs	r2, #4
 800223e:	0018      	movs	r0, r3
 8002240:	f001 f9f8 	bl	8003634 <HAL_TIM_PWM_ConfigChannel>
 8002244:	1e03      	subs	r3, r0, #0
 8002246:	d001      	beq.n	800224c <MX_TIM1_Init+0x124>
  {
    Error_Handler();
 8002248:	f7ff ff26 	bl	8002098 <Error_Handler>
  }
  if (HAL_TIM_PWM_ConfigChannel(&htim1, &sConfigOC, TIM_CHANNEL_3) != HAL_OK)
 800224c:	2324      	movs	r3, #36	; 0x24
 800224e:	18f9      	adds	r1, r7, r3
 8002250:	4b18      	ldr	r3, [pc, #96]	; (80022b4 <MX_TIM1_Init+0x18c>)
 8002252:	2208      	movs	r2, #8
 8002254:	0018      	movs	r0, r3
 8002256:	f001 f9ed 	bl	8003634 <HAL_TIM_PWM_ConfigChannel>
 800225a:	1e03      	subs	r3, r0, #0
 800225c:	d001      	beq.n	8002262 <MX_TIM1_Init+0x13a>
  {
    Error_Handler();
 800225e:	f7ff ff1b 	bl	8002098 <Error_Handler>
  }
  sBreakDeadTimeConfig.OffStateRunMode = TIM_OSSR_DISABLE;
 8002262:	1d3b      	adds	r3, r7, #4
 8002264:	2200      	movs	r2, #0
 8002266:	601a      	str	r2, [r3, #0]
  sBreakDeadTimeConfig.OffStateIDLEMode = TIM_OSSI_DISABLE;
 8002268:	1d3b      	adds	r3, r7, #4
 800226a:	2200      	movs	r2, #0
 800226c:	605a      	str	r2, [r3, #4]
  sBreakDeadTimeConfig.LockLevel = TIM_LOCKLEVEL_OFF;
 800226e:	1d3b      	adds	r3, r7, #4
 8002270:	2200      	movs	r2, #0
 8002272:	609a      	str	r2, [r3, #8]
  sBreakDeadTimeConfig.DeadTime = 0;
 8002274:	1d3b      	adds	r3, r7, #4
 8002276:	2200      	movs	r2, #0
 8002278:	60da      	str	r2, [r3, #12]
  sBreakDeadTimeConfig.BreakState = TIM_BREAK_DISABLE;
 800227a:	1d3b      	adds	r3, r7, #4
 800227c:	2200      	movs	r2, #0
 800227e:	611a      	str	r2, [r3, #16]
  sBreakDeadTimeConfig.BreakPolarity = TIM_BREAKPOLARITY_HIGH;
 8002280:	1d3b      	adds	r3, r7, #4
 8002282:	2280      	movs	r2, #128	; 0x80
 8002284:	0192      	lsls	r2, r2, #6
 8002286:	615a      	str	r2, [r3, #20]
  sBreakDeadTimeConfig.AutomaticOutput = TIM_AUTOMATICOUTPUT_DISABLE;
 8002288:	1d3b      	adds	r3, r7, #4
 800228a:	2200      	movs	r2, #0
 800228c:	61da      	str	r2, [r3, #28]
  if (HAL_TIMEx_ConfigBreakDeadTime(&htim1, &sBreakDeadTimeConfig) != HAL_OK)
 800228e:	1d3a      	adds	r2, r7, #4
 8002290:	4b08      	ldr	r3, [pc, #32]	; (80022b4 <MX_TIM1_Init+0x18c>)
 8002292:	0011      	movs	r1, r2
 8002294:	0018      	movs	r0, r3
 8002296:	f001 fedb 	bl	8004050 <HAL_TIMEx_ConfigBreakDeadTime>
 800229a:	1e03      	subs	r3, r0, #0
 800229c:	d001      	beq.n	80022a2 <MX_TIM1_Init+0x17a>
  {
    Error_Handler();
 800229e:	f7ff fefb 	bl	8002098 <Error_Handler>
  }
  HAL_TIM_MspPostInit(&htim1);
 80022a2:	4b04      	ldr	r3, [pc, #16]	; (80022b4 <MX_TIM1_Init+0x18c>)
 80022a4:	0018      	movs	r0, r3
 80022a6:	f000 f93f 	bl	8002528 <HAL_TIM_MspPostInit>

}
 80022aa:	46c0      	nop			; (mov r8, r8)
 80022ac:	46bd      	mov	sp, r7
 80022ae:	b016      	add	sp, #88	; 0x58
 80022b0:	bd80      	pop	{r7, pc}
 80022b2:	46c0      	nop			; (mov r8, r8)
 80022b4:	200000e4 	.word	0x200000e4
 80022b8:	40012c00 	.word	0x40012c00

080022bc <MX_TIM2_Init>:
/* TIM2 init function */
void MX_TIM2_Init(void)
{
 80022bc:	b580      	push	{r7, lr}
 80022be:	b08a      	sub	sp, #40	; 0x28
 80022c0:	af00      	add	r7, sp, #0
  TIM_MasterConfigTypeDef sMasterConfig = {0};
 80022c2:	2320      	movs	r3, #32
 80022c4:	18fb      	adds	r3, r7, r3
 80022c6:	0018      	movs	r0, r3
 80022c8:	2308      	movs	r3, #8
 80022ca:	001a      	movs	r2, r3
 80022cc:	2100      	movs	r1, #0
 80022ce:	f001 ff47 	bl	8004160 <memset>
  TIM_OC_InitTypeDef sConfigOC = {0};
 80022d2:	1d3b      	adds	r3, r7, #4
 80022d4:	0018      	movs	r0, r3
 80022d6:	231c      	movs	r3, #28
 80022d8:	001a      	movs	r2, r3
 80022da:	2100      	movs	r1, #0
 80022dc:	f001 ff40 	bl	8004160 <memset>

  htim2.Instance = TIM2;
 80022e0:	4b29      	ldr	r3, [pc, #164]	; (8002388 <MX_TIM2_Init+0xcc>)
 80022e2:	2280      	movs	r2, #128	; 0x80
 80022e4:	05d2      	lsls	r2, r2, #23
 80022e6:	601a      	str	r2, [r3, #0]
  htim2.Init.Prescaler = 1;
 80022e8:	4b27      	ldr	r3, [pc, #156]	; (8002388 <MX_TIM2_Init+0xcc>)
 80022ea:	2201      	movs	r2, #1
 80022ec:	605a      	str	r2, [r3, #4]
  htim2.Init.CounterMode = TIM_COUNTERMODE_UP;
 80022ee:	4b26      	ldr	r3, [pc, #152]	; (8002388 <MX_TIM2_Init+0xcc>)
 80022f0:	2200      	movs	r2, #0
 80022f2:	609a      	str	r2, [r3, #8]
  htim2.Init.Period = 255;
 80022f4:	4b24      	ldr	r3, [pc, #144]	; (8002388 <MX_TIM2_Init+0xcc>)
 80022f6:	22ff      	movs	r2, #255	; 0xff
 80022f8:	60da      	str	r2, [r3, #12]
  htim2.Init.ClockDivision = TIM_CLOCKDIVISION_DIV1;
 80022fa:	4b23      	ldr	r3, [pc, #140]	; (8002388 <MX_TIM2_Init+0xcc>)
 80022fc:	2200      	movs	r2, #0
 80022fe:	611a      	str	r2, [r3, #16]
  htim2.Init.AutoReloadPreload = TIM_AUTORELOAD_PRELOAD_DISABLE;
 8002300:	4b21      	ldr	r3, [pc, #132]	; (8002388 <MX_TIM2_Init+0xcc>)
 8002302:	2200      	movs	r2, #0
 8002304:	619a      	str	r2, [r3, #24]
  if (HAL_TIM_PWM_Init(&htim2) != HAL_OK)
 8002306:	4b20      	ldr	r3, [pc, #128]	; (8002388 <MX_TIM2_Init+0xcc>)
 8002308:	0018      	movs	r0, r3
 800230a:	f001 f91b 	bl	8003544 <HAL_TIM_PWM_Init>
 800230e:	1e03      	subs	r3, r0, #0
 8002310:	d001      	beq.n	8002316 <MX_TIM2_Init+0x5a>
  {
    Error_Handler();
 8002312:	f7ff fec1 	bl	8002098 <Error_Handler>
  }
  sMasterConfig.MasterOutputTrigger = TIM_TRGO_RESET;
 8002316:	2120      	movs	r1, #32
 8002318:	187b      	adds	r3, r7, r1
 800231a:	2200      	movs	r2, #0
 800231c:	601a      	str	r2, [r3, #0]
  sMasterConfig.MasterSlaveMode = TIM_MASTERSLAVEMODE_DISABLE;
 800231e:	187b      	adds	r3, r7, r1
 8002320:	2200      	movs	r2, #0
 8002322:	605a      	str	r2, [r3, #4]
  if (HAL_TIMEx_MasterConfigSynchronization(&htim2, &sMasterConfig) != HAL_OK)
 8002324:	187a      	adds	r2, r7, r1
 8002326:	4b18      	ldr	r3, [pc, #96]	; (8002388 <MX_TIM2_Init+0xcc>)
 8002328:	0011      	movs	r1, r2
 800232a:	0018      	movs	r0, r3
 800232c:	f001 fe32 	bl	8003f94 <HAL_TIMEx_MasterConfigSynchronization>
 8002330:	1e03      	subs	r3, r0, #0
 8002332:	d001      	beq.n	8002338 <MX_TIM2_Init+0x7c>
  {
    Error_Handler();
 8002334:	f7ff feb0 	bl	8002098 <Error_Handler>
  }
  sConfigOC.OCMode = TIM_OCMODE_PWM1;
 8002338:	1d3b      	adds	r3, r7, #4
 800233a:	2260      	movs	r2, #96	; 0x60
 800233c:	601a      	str	r2, [r3, #0]
  sConfigOC.Pulse = 0;
 800233e:	1d3b      	adds	r3, r7, #4
 8002340:	2200      	movs	r2, #0
 8002342:	605a      	str	r2, [r3, #4]
  sConfigOC.OCPolarity = TIM_OCPOLARITY_HIGH;
 8002344:	1d3b      	adds	r3, r7, #4
 8002346:	2200      	movs	r2, #0
 8002348:	609a      	str	r2, [r3, #8]
  sConfigOC.OCFastMode = TIM_OCFAST_DISABLE;
 800234a:	1d3b      	adds	r3, r7, #4
 800234c:	2200      	movs	r2, #0
 800234e:	611a      	str	r2, [r3, #16]
  if (HAL_TIM_PWM_ConfigChannel(&htim2, &sConfigOC, TIM_CHANNEL_1) != HAL_OK)
 8002350:	1d39      	adds	r1, r7, #4
 8002352:	4b0d      	ldr	r3, [pc, #52]	; (8002388 <MX_TIM2_Init+0xcc>)
 8002354:	2200      	movs	r2, #0
 8002356:	0018      	movs	r0, r3
 8002358:	f001 f96c 	bl	8003634 <HAL_TIM_PWM_ConfigChannel>
 800235c:	1e03      	subs	r3, r0, #0
 800235e:	d001      	beq.n	8002364 <MX_TIM2_Init+0xa8>
  {
    Error_Handler();
 8002360:	f7ff fe9a 	bl	8002098 <Error_Handler>
  }
  if (HAL_TIM_PWM_ConfigChannel(&htim2, &sConfigOC, TIM_CHANNEL_2) != HAL_OK)
 8002364:	1d39      	adds	r1, r7, #4
 8002366:	4b08      	ldr	r3, [pc, #32]	; (8002388 <MX_TIM2_Init+0xcc>)
 8002368:	2204      	movs	r2, #4
 800236a:	0018      	movs	r0, r3
 800236c:	f001 f962 	bl	8003634 <HAL_TIM_PWM_ConfigChannel>
 8002370:	1e03      	subs	r3, r0, #0
 8002372:	d001      	beq.n	8002378 <MX_TIM2_Init+0xbc>
  {
    Error_Handler();
 8002374:	f7ff fe90 	bl	8002098 <Error_Handler>
  }
  HAL_TIM_MspPostInit(&htim2);
 8002378:	4b03      	ldr	r3, [pc, #12]	; (8002388 <MX_TIM2_Init+0xcc>)
 800237a:	0018      	movs	r0, r3
 800237c:	f000 f8d4 	bl	8002528 <HAL_TIM_MspPostInit>

}
 8002380:	46c0      	nop			; (mov r8, r8)
 8002382:	46bd      	mov	sp, r7
 8002384:	b00a      	add	sp, #40	; 0x28
 8002386:	bd80      	pop	{r7, pc}
 8002388:	20000124 	.word	0x20000124

0800238c <MX_TIM3_Init>:
/* TIM3 init function */
void MX_TIM3_Init(void)
{
 800238c:	b580      	push	{r7, lr}
 800238e:	b08a      	sub	sp, #40	; 0x28
 8002390:	af00      	add	r7, sp, #0
  TIM_MasterConfigTypeDef sMasterConfig = {0};
 8002392:	2320      	movs	r3, #32
 8002394:	18fb      	adds	r3, r7, r3
 8002396:	0018      	movs	r0, r3
 8002398:	2308      	movs	r3, #8
 800239a:	001a      	movs	r2, r3
 800239c:	2100      	movs	r1, #0
 800239e:	f001 fedf 	bl	8004160 <memset>
  TIM_OC_InitTypeDef sConfigOC = {0};
 80023a2:	1d3b      	adds	r3, r7, #4
 80023a4:	0018      	movs	r0, r3
 80023a6:	231c      	movs	r3, #28
 80023a8:	001a      	movs	r2, r3
 80023aa:	2100      	movs	r1, #0
 80023ac:	f001 fed8 	bl	8004160 <memset>

  htim3.Instance = TIM3;
 80023b0:	4b33      	ldr	r3, [pc, #204]	; (8002480 <MX_TIM3_Init+0xf4>)
 80023b2:	4a34      	ldr	r2, [pc, #208]	; (8002484 <MX_TIM3_Init+0xf8>)
 80023b4:	601a      	str	r2, [r3, #0]
  htim3.Init.Prescaler = 1;
 80023b6:	4b32      	ldr	r3, [pc, #200]	; (8002480 <MX_TIM3_Init+0xf4>)
 80023b8:	2201      	movs	r2, #1
 80023ba:	605a      	str	r2, [r3, #4]
  htim3.Init.CounterMode = TIM_COUNTERMODE_UP;
 80023bc:	4b30      	ldr	r3, [pc, #192]	; (8002480 <MX_TIM3_Init+0xf4>)
 80023be:	2200      	movs	r2, #0
 80023c0:	609a      	str	r2, [r3, #8]
  htim3.Init.Period = 255;
 80023c2:	4b2f      	ldr	r3, [pc, #188]	; (8002480 <MX_TIM3_Init+0xf4>)
 80023c4:	22ff      	movs	r2, #255	; 0xff
 80023c6:	60da      	str	r2, [r3, #12]
  htim3.Init.ClockDivision = TIM_CLOCKDIVISION_DIV1;
 80023c8:	4b2d      	ldr	r3, [pc, #180]	; (8002480 <MX_TIM3_Init+0xf4>)
 80023ca:	2200      	movs	r2, #0
 80023cc:	611a      	str	r2, [r3, #16]
  htim3.Init.AutoReloadPreload = TIM_AUTORELOAD_PRELOAD_DISABLE;
 80023ce:	4b2c      	ldr	r3, [pc, #176]	; (8002480 <MX_TIM3_Init+0xf4>)
 80023d0:	2200      	movs	r2, #0
 80023d2:	619a      	str	r2, [r3, #24]
  if (HAL_TIM_PWM_Init(&htim3) != HAL_OK)
 80023d4:	4b2a      	ldr	r3, [pc, #168]	; (8002480 <MX_TIM3_Init+0xf4>)
 80023d6:	0018      	movs	r0, r3
 80023d8:	f001 f8b4 	bl	8003544 <HAL_TIM_PWM_Init>
 80023dc:	1e03      	subs	r3, r0, #0
 80023de:	d001      	beq.n	80023e4 <MX_TIM3_Init+0x58>
  {
    Error_Handler();
 80023e0:	f7ff fe5a 	bl	8002098 <Error_Handler>
  }
  sMasterConfig.MasterOutputTrigger = TIM_TRGO_RESET;
 80023e4:	2120      	movs	r1, #32
 80023e6:	187b      	adds	r3, r7, r1
 80023e8:	2200      	movs	r2, #0
 80023ea:	601a      	str	r2, [r3, #0]
  sMasterConfig.MasterSlaveMode = TIM_MASTERSLAVEMODE_DISABLE;
 80023ec:	187b      	adds	r3, r7, r1
 80023ee:	2200      	movs	r2, #0
 80023f0:	605a      	str	r2, [r3, #4]
  if (HAL_TIMEx_MasterConfigSynchronization(&htim3, &sMasterConfig) != HAL_OK)
 80023f2:	187a      	adds	r2, r7, r1
 80023f4:	4b22      	ldr	r3, [pc, #136]	; (8002480 <MX_TIM3_Init+0xf4>)
 80023f6:	0011      	movs	r1, r2
 80023f8:	0018      	movs	r0, r3
 80023fa:	f001 fdcb 	bl	8003f94 <HAL_TIMEx_MasterConfigSynchronization>
 80023fe:	1e03      	subs	r3, r0, #0
 8002400:	d001      	beq.n	8002406 <MX_TIM3_Init+0x7a>
  {
    Error_Handler();
 8002402:	f7ff fe49 	bl	8002098 <Error_Handler>
  }
  sConfigOC.OCMode = TIM_OCMODE_PWM1;
 8002406:	1d3b      	adds	r3, r7, #4
 8002408:	2260      	movs	r2, #96	; 0x60
 800240a:	601a      	str	r2, [r3, #0]
  sConfigOC.Pulse = 0;
 800240c:	1d3b      	adds	r3, r7, #4
 800240e:	2200      	movs	r2, #0
 8002410:	605a      	str	r2, [r3, #4]
  sConfigOC.OCPolarity = TIM_OCPOLARITY_HIGH;
 8002412:	1d3b      	adds	r3, r7, #4
 8002414:	2200      	movs	r2, #0
 8002416:	609a      	str	r2, [r3, #8]
  sConfigOC.OCFastMode = TIM_OCFAST_DISABLE;
 8002418:	1d3b      	adds	r3, r7, #4
 800241a:	2200      	movs	r2, #0
 800241c:	611a      	str	r2, [r3, #16]
  if (HAL_TIM_PWM_ConfigChannel(&htim3, &sConfigOC, TIM_CHANNEL_1) != HAL_OK)
 800241e:	1d39      	adds	r1, r7, #4
 8002420:	4b17      	ldr	r3, [pc, #92]	; (8002480 <MX_TIM3_Init+0xf4>)
 8002422:	2200      	movs	r2, #0
 8002424:	0018      	movs	r0, r3
 8002426:	f001 f905 	bl	8003634 <HAL_TIM_PWM_ConfigChannel>
 800242a:	1e03      	subs	r3, r0, #0
 800242c:	d001      	beq.n	8002432 <MX_TIM3_Init+0xa6>
  {
    Error_Handler();
 800242e:	f7ff fe33 	bl	8002098 <Error_Handler>
  }
  if (HAL_TIM_PWM_ConfigChannel(&htim3, &sConfigOC, TIM_CHANNEL_2) != HAL_OK)
 8002432:	1d39      	adds	r1, r7, #4
 8002434:	4b12      	ldr	r3, [pc, #72]	; (8002480 <MX_TIM3_Init+0xf4>)
 8002436:	2204      	movs	r2, #4
 8002438:	0018      	movs	r0, r3
 800243a:	f001 f8fb 	bl	8003634 <HAL_TIM_PWM_ConfigChannel>
 800243e:	1e03      	subs	r3, r0, #0
 8002440:	d001      	beq.n	8002446 <MX_TIM3_Init+0xba>
  {
    Error_Handler();
 8002442:	f7ff fe29 	bl	8002098 <Error_Handler>
  }
  if (HAL_TIM_PWM_ConfigChannel(&htim3, &sConfigOC, TIM_CHANNEL_3) != HAL_OK)
 8002446:	1d39      	adds	r1, r7, #4
 8002448:	4b0d      	ldr	r3, [pc, #52]	; (8002480 <MX_TIM3_Init+0xf4>)
 800244a:	2208      	movs	r2, #8
 800244c:	0018      	movs	r0, r3
 800244e:	f001 f8f1 	bl	8003634 <HAL_TIM_PWM_ConfigChannel>
 8002452:	1e03      	subs	r3, r0, #0
 8002454:	d001      	beq.n	800245a <MX_TIM3_Init+0xce>
  {
    Error_Handler();
 8002456:	f7ff fe1f 	bl	8002098 <Error_Handler>
  }
  if (HAL_TIM_PWM_ConfigChannel(&htim3, &sConfigOC, TIM_CHANNEL_4) != HAL_OK)
 800245a:	1d39      	adds	r1, r7, #4
 800245c:	4b08      	ldr	r3, [pc, #32]	; (8002480 <MX_TIM3_Init+0xf4>)
 800245e:	220c      	movs	r2, #12
 8002460:	0018      	movs	r0, r3
 8002462:	f001 f8e7 	bl	8003634 <HAL_TIM_PWM_ConfigChannel>
 8002466:	1e03      	subs	r3, r0, #0
 8002468:	d001      	beq.n	800246e <MX_TIM3_Init+0xe2>
  {
    Error_Handler();
 800246a:	f7ff fe15 	bl	8002098 <Error_Handler>
  }
  HAL_TIM_MspPostInit(&htim3);
 800246e:	4b04      	ldr	r3, [pc, #16]	; (8002480 <MX_TIM3_Init+0xf4>)
 8002470:	0018      	movs	r0, r3
 8002472:	f000 f859 	bl	8002528 <HAL_TIM_MspPostInit>

}
 8002476:	46c0      	nop			; (mov r8, r8)
 8002478:	46bd      	mov	sp, r7
 800247a:	b00a      	add	sp, #40	; 0x28
 800247c:	bd80      	pop	{r7, pc}
 800247e:	46c0      	nop			; (mov r8, r8)
 8002480:	200000a4 	.word	0x200000a4
 8002484:	40000400 	.word	0x40000400

08002488 <HAL_TIM_Base_MspInit>:

void HAL_TIM_Base_MspInit(TIM_HandleTypeDef* tim_baseHandle)
{
 8002488:	b580      	push	{r7, lr}
 800248a:	b084      	sub	sp, #16
 800248c:	af00      	add	r7, sp, #0
 800248e:	6078      	str	r0, [r7, #4]

  if(tim_baseHandle->Instance==TIM1)
 8002490:	687b      	ldr	r3, [r7, #4]
 8002492:	681b      	ldr	r3, [r3, #0]
 8002494:	4a0a      	ldr	r2, [pc, #40]	; (80024c0 <HAL_TIM_Base_MspInit+0x38>)
 8002496:	4293      	cmp	r3, r2
 8002498:	d10d      	bne.n	80024b6 <HAL_TIM_Base_MspInit+0x2e>
  {
  /* USER CODE BEGIN TIM1_MspInit 0 */

  /* USER CODE END TIM1_MspInit 0 */
    /* TIM1 clock enable */
    __HAL_RCC_TIM1_CLK_ENABLE();
 800249a:	4b0a      	ldr	r3, [pc, #40]	; (80024c4 <HAL_TIM_Base_MspInit+0x3c>)
 800249c:	699a      	ldr	r2, [r3, #24]
 800249e:	4b09      	ldr	r3, [pc, #36]	; (80024c4 <HAL_TIM_Base_MspInit+0x3c>)
 80024a0:	2180      	movs	r1, #128	; 0x80
 80024a2:	0109      	lsls	r1, r1, #4
 80024a4:	430a      	orrs	r2, r1
 80024a6:	619a      	str	r2, [r3, #24]
 80024a8:	4b06      	ldr	r3, [pc, #24]	; (80024c4 <HAL_TIM_Base_MspInit+0x3c>)
 80024aa:	699a      	ldr	r2, [r3, #24]
 80024ac:	2380      	movs	r3, #128	; 0x80
 80024ae:	011b      	lsls	r3, r3, #4
 80024b0:	4013      	ands	r3, r2
 80024b2:	60fb      	str	r3, [r7, #12]
 80024b4:	68fb      	ldr	r3, [r7, #12]
  /* USER CODE BEGIN TIM1_MspInit 1 */

  /* USER CODE END TIM1_MspInit 1 */
  }
}
 80024b6:	46c0      	nop			; (mov r8, r8)
 80024b8:	46bd      	mov	sp, r7
 80024ba:	b004      	add	sp, #16
 80024bc:	bd80      	pop	{r7, pc}
 80024be:	46c0      	nop			; (mov r8, r8)
 80024c0:	40012c00 	.word	0x40012c00
 80024c4:	40021000 	.word	0x40021000

080024c8 <HAL_TIM_PWM_MspInit>:

void HAL_TIM_PWM_MspInit(TIM_HandleTypeDef* tim_pwmHandle)
{
 80024c8:	b580      	push	{r7, lr}
 80024ca:	b084      	sub	sp, #16
 80024cc:	af00      	add	r7, sp, #0
 80024ce:	6078      	str	r0, [r7, #4]

  if(tim_pwmHandle->Instance==TIM2)
 80024d0:	687b      	ldr	r3, [r7, #4]
 80024d2:	681a      	ldr	r2, [r3, #0]
 80024d4:	2380      	movs	r3, #128	; 0x80
 80024d6:	05db      	lsls	r3, r3, #23
 80024d8:	429a      	cmp	r2, r3
 80024da:	d10c      	bne.n	80024f6 <HAL_TIM_PWM_MspInit+0x2e>
  {
  /* USER CODE BEGIN TIM2_MspInit 0 */

  /* USER CODE END TIM2_MspInit 0 */
    /* TIM2 clock enable */
    __HAL_RCC_TIM2_CLK_ENABLE();
 80024dc:	4b10      	ldr	r3, [pc, #64]	; (8002520 <HAL_TIM_PWM_MspInit+0x58>)
 80024de:	69da      	ldr	r2, [r3, #28]
 80024e0:	4b0f      	ldr	r3, [pc, #60]	; (8002520 <HAL_TIM_PWM_MspInit+0x58>)
 80024e2:	2101      	movs	r1, #1
 80024e4:	430a      	orrs	r2, r1
 80024e6:	61da      	str	r2, [r3, #28]
 80024e8:	4b0d      	ldr	r3, [pc, #52]	; (8002520 <HAL_TIM_PWM_MspInit+0x58>)
 80024ea:	69db      	ldr	r3, [r3, #28]
 80024ec:	2201      	movs	r2, #1
 80024ee:	4013      	ands	r3, r2
 80024f0:	60fb      	str	r3, [r7, #12]
 80024f2:	68fb      	ldr	r3, [r7, #12]
    __HAL_RCC_TIM3_CLK_ENABLE();
  /* USER CODE BEGIN TIM3_MspInit 1 */

  /* USER CODE END TIM3_MspInit 1 */
  }
}
 80024f4:	e010      	b.n	8002518 <HAL_TIM_PWM_MspInit+0x50>
  else if(tim_pwmHandle->Instance==TIM3)
 80024f6:	687b      	ldr	r3, [r7, #4]
 80024f8:	681b      	ldr	r3, [r3, #0]
 80024fa:	4a0a      	ldr	r2, [pc, #40]	; (8002524 <HAL_TIM_PWM_MspInit+0x5c>)
 80024fc:	4293      	cmp	r3, r2
 80024fe:	d10b      	bne.n	8002518 <HAL_TIM_PWM_MspInit+0x50>
    __HAL_RCC_TIM3_CLK_ENABLE();
 8002500:	4b07      	ldr	r3, [pc, #28]	; (8002520 <HAL_TIM_PWM_MspInit+0x58>)
 8002502:	69da      	ldr	r2, [r3, #28]
 8002504:	4b06      	ldr	r3, [pc, #24]	; (8002520 <HAL_TIM_PWM_MspInit+0x58>)
 8002506:	2102      	movs	r1, #2
 8002508:	430a      	orrs	r2, r1
 800250a:	61da      	str	r2, [r3, #28]
 800250c:	4b04      	ldr	r3, [pc, #16]	; (8002520 <HAL_TIM_PWM_MspInit+0x58>)
 800250e:	69db      	ldr	r3, [r3, #28]
 8002510:	2202      	movs	r2, #2
 8002512:	4013      	ands	r3, r2
 8002514:	60bb      	str	r3, [r7, #8]
 8002516:	68bb      	ldr	r3, [r7, #8]
}
 8002518:	46c0      	nop			; (mov r8, r8)
 800251a:	46bd      	mov	sp, r7
 800251c:	b004      	add	sp, #16
 800251e:	bd80      	pop	{r7, pc}
 8002520:	40021000 	.word	0x40021000
 8002524:	40000400 	.word	0x40000400

08002528 <HAL_TIM_MspPostInit>:
void HAL_TIM_MspPostInit(TIM_HandleTypeDef* timHandle)
{
 8002528:	b590      	push	{r4, r7, lr}
 800252a:	b08d      	sub	sp, #52	; 0x34
 800252c:	af00      	add	r7, sp, #0
 800252e:	6078      	str	r0, [r7, #4]

  GPIO_InitTypeDef GPIO_InitStruct = {0};
 8002530:	231c      	movs	r3, #28
 8002532:	18fb      	adds	r3, r7, r3
 8002534:	0018      	movs	r0, r3
 8002536:	2314      	movs	r3, #20
 8002538:	001a      	movs	r2, r3
 800253a:	2100      	movs	r1, #0
 800253c:	f001 fe10 	bl	8004160 <memset>
  if(timHandle->Instance==TIM1)
 8002540:	687b      	ldr	r3, [r7, #4]
 8002542:	681b      	ldr	r3, [r3, #0]
 8002544:	4a54      	ldr	r2, [pc, #336]	; (8002698 <HAL_TIM_MspPostInit+0x170>)
 8002546:	4293      	cmp	r3, r2
 8002548:	d126      	bne.n	8002598 <HAL_TIM_MspPostInit+0x70>
  {
  /* USER CODE BEGIN TIM1_MspPostInit 0 */

  /* USER CODE END TIM1_MspPostInit 0 */
    __HAL_RCC_GPIOA_CLK_ENABLE();
 800254a:	4b54      	ldr	r3, [pc, #336]	; (800269c <HAL_TIM_MspPostInit+0x174>)
 800254c:	695a      	ldr	r2, [r3, #20]
 800254e:	4b53      	ldr	r3, [pc, #332]	; (800269c <HAL_TIM_MspPostInit+0x174>)
 8002550:	2180      	movs	r1, #128	; 0x80
 8002552:	0289      	lsls	r1, r1, #10
 8002554:	430a      	orrs	r2, r1
 8002556:	615a      	str	r2, [r3, #20]
 8002558:	4b50      	ldr	r3, [pc, #320]	; (800269c <HAL_TIM_MspPostInit+0x174>)
 800255a:	695a      	ldr	r2, [r3, #20]
 800255c:	2380      	movs	r3, #128	; 0x80
 800255e:	029b      	lsls	r3, r3, #10
 8002560:	4013      	ands	r3, r2
 8002562:	61bb      	str	r3, [r7, #24]
 8002564:	69bb      	ldr	r3, [r7, #24]
    /**TIM1 GPIO Configuration    
    PA8     ------> TIM1_CH1
    PA9     ------> TIM1_CH2
    PA10     ------> TIM1_CH3 
    */
    GPIO_InitStruct.Pin = GPIO_PIN_8|GPIO_PIN_9|GPIO_PIN_10;
 8002566:	211c      	movs	r1, #28
 8002568:	187b      	adds	r3, r7, r1
 800256a:	22e0      	movs	r2, #224	; 0xe0
 800256c:	00d2      	lsls	r2, r2, #3
 800256e:	601a      	str	r2, [r3, #0]
    GPIO_InitStruct.Mode = GPIO_MODE_AF_PP;
 8002570:	187b      	adds	r3, r7, r1
 8002572:	2202      	movs	r2, #2
 8002574:	605a      	str	r2, [r3, #4]
    GPIO_InitStruct.Pull = GPIO_NOPULL;
 8002576:	187b      	adds	r3, r7, r1
 8002578:	2200      	movs	r2, #0
 800257a:	609a      	str	r2, [r3, #8]
    GPIO_InitStruct.Speed = GPIO_SPEED_FREQ_LOW;
 800257c:	187b      	adds	r3, r7, r1
 800257e:	2200      	movs	r2, #0
 8002580:	60da      	str	r2, [r3, #12]
    GPIO_InitStruct.Alternate = GPIO_AF2_TIM1;
 8002582:	187b      	adds	r3, r7, r1
 8002584:	2202      	movs	r2, #2
 8002586:	611a      	str	r2, [r3, #16]
    HAL_GPIO_Init(GPIOA, &GPIO_InitStruct);
 8002588:	187a      	adds	r2, r7, r1
 800258a:	2390      	movs	r3, #144	; 0x90
 800258c:	05db      	lsls	r3, r3, #23
 800258e:	0011      	movs	r1, r2
 8002590:	0018      	movs	r0, r3
 8002592:	f000 f9ed 	bl	8002970 <HAL_GPIO_Init>
  /* USER CODE BEGIN TIM3_MspPostInit 1 */

  /* USER CODE END TIM3_MspPostInit 1 */
  }

}
 8002596:	e07a      	b.n	800268e <HAL_TIM_MspPostInit+0x166>
  else if(timHandle->Instance==TIM2)
 8002598:	687b      	ldr	r3, [r7, #4]
 800259a:	681a      	ldr	r2, [r3, #0]
 800259c:	2380      	movs	r3, #128	; 0x80
 800259e:	05db      	lsls	r3, r3, #23
 80025a0:	429a      	cmp	r2, r3
 80025a2:	d14b      	bne.n	800263c <HAL_TIM_MspPostInit+0x114>
    __HAL_RCC_GPIOA_CLK_ENABLE();
 80025a4:	4b3d      	ldr	r3, [pc, #244]	; (800269c <HAL_TIM_MspPostInit+0x174>)
 80025a6:	695a      	ldr	r2, [r3, #20]
 80025a8:	4b3c      	ldr	r3, [pc, #240]	; (800269c <HAL_TIM_MspPostInit+0x174>)
 80025aa:	2180      	movs	r1, #128	; 0x80
 80025ac:	0289      	lsls	r1, r1, #10
 80025ae:	430a      	orrs	r2, r1
 80025b0:	615a      	str	r2, [r3, #20]
 80025b2:	4b3a      	ldr	r3, [pc, #232]	; (800269c <HAL_TIM_MspPostInit+0x174>)
 80025b4:	695a      	ldr	r2, [r3, #20]
 80025b6:	2380      	movs	r3, #128	; 0x80
 80025b8:	029b      	lsls	r3, r3, #10
 80025ba:	4013      	ands	r3, r2
 80025bc:	617b      	str	r3, [r7, #20]
 80025be:	697b      	ldr	r3, [r7, #20]
    __HAL_RCC_GPIOB_CLK_ENABLE();
 80025c0:	4b36      	ldr	r3, [pc, #216]	; (800269c <HAL_TIM_MspPostInit+0x174>)
 80025c2:	695a      	ldr	r2, [r3, #20]
 80025c4:	4b35      	ldr	r3, [pc, #212]	; (800269c <HAL_TIM_MspPostInit+0x174>)
 80025c6:	2180      	movs	r1, #128	; 0x80
 80025c8:	02c9      	lsls	r1, r1, #11
 80025ca:	430a      	orrs	r2, r1
 80025cc:	615a      	str	r2, [r3, #20]
 80025ce:	4b33      	ldr	r3, [pc, #204]	; (800269c <HAL_TIM_MspPostInit+0x174>)
 80025d0:	695a      	ldr	r2, [r3, #20]
 80025d2:	2380      	movs	r3, #128	; 0x80
 80025d4:	02db      	lsls	r3, r3, #11
 80025d6:	4013      	ands	r3, r2
 80025d8:	613b      	str	r3, [r7, #16]
 80025da:	693b      	ldr	r3, [r7, #16]
    GPIO_InitStruct.Pin = GPIO_PIN_15;
 80025dc:	211c      	movs	r1, #28
 80025de:	187b      	adds	r3, r7, r1
 80025e0:	2280      	movs	r2, #128	; 0x80
 80025e2:	0212      	lsls	r2, r2, #8
 80025e4:	601a      	str	r2, [r3, #0]
    GPIO_InitStruct.Mode = GPIO_MODE_AF_PP;
 80025e6:	000c      	movs	r4, r1
 80025e8:	193b      	adds	r3, r7, r4
 80025ea:	2202      	movs	r2, #2
 80025ec:	605a      	str	r2, [r3, #4]
    GPIO_InitStruct.Pull = GPIO_NOPULL;
 80025ee:	193b      	adds	r3, r7, r4
 80025f0:	2200      	movs	r2, #0
 80025f2:	609a      	str	r2, [r3, #8]
    GPIO_InitStruct.Speed = GPIO_SPEED_FREQ_LOW;
 80025f4:	193b      	adds	r3, r7, r4
 80025f6:	2200      	movs	r2, #0
 80025f8:	60da      	str	r2, [r3, #12]
    GPIO_InitStruct.Alternate = GPIO_AF2_TIM2;
 80025fa:	193b      	adds	r3, r7, r4
 80025fc:	2202      	movs	r2, #2
 80025fe:	611a      	str	r2, [r3, #16]
    HAL_GPIO_Init(GPIOA, &GPIO_InitStruct);
 8002600:	193a      	adds	r2, r7, r4
 8002602:	2390      	movs	r3, #144	; 0x90
 8002604:	05db      	lsls	r3, r3, #23
 8002606:	0011      	movs	r1, r2
 8002608:	0018      	movs	r0, r3
 800260a:	f000 f9b1 	bl	8002970 <HAL_GPIO_Init>
    GPIO_InitStruct.Pin = GPIO_PIN_3;
 800260e:	0021      	movs	r1, r4
 8002610:	187b      	adds	r3, r7, r1
 8002612:	2208      	movs	r2, #8
 8002614:	601a      	str	r2, [r3, #0]
    GPIO_InitStruct.Mode = GPIO_MODE_AF_PP;
 8002616:	187b      	adds	r3, r7, r1
 8002618:	2202      	movs	r2, #2
 800261a:	605a      	str	r2, [r3, #4]
    GPIO_InitStruct.Pull = GPIO_NOPULL;
 800261c:	187b      	adds	r3, r7, r1
 800261e:	2200      	movs	r2, #0
 8002620:	609a      	str	r2, [r3, #8]
    GPIO_InitStruct.Speed = GPIO_SPEED_FREQ_LOW;
 8002622:	187b      	adds	r3, r7, r1
 8002624:	2200      	movs	r2, #0
 8002626:	60da      	str	r2, [r3, #12]
    GPIO_InitStruct.Alternate = GPIO_AF2_TIM2;
 8002628:	187b      	adds	r3, r7, r1
 800262a:	2202      	movs	r2, #2
 800262c:	611a      	str	r2, [r3, #16]
    HAL_GPIO_Init(GPIOB, &GPIO_InitStruct);
 800262e:	187b      	adds	r3, r7, r1
 8002630:	4a1b      	ldr	r2, [pc, #108]	; (80026a0 <HAL_TIM_MspPostInit+0x178>)
 8002632:	0019      	movs	r1, r3
 8002634:	0010      	movs	r0, r2
 8002636:	f000 f99b 	bl	8002970 <HAL_GPIO_Init>
}
 800263a:	e028      	b.n	800268e <HAL_TIM_MspPostInit+0x166>
  else if(timHandle->Instance==TIM3)
 800263c:	687b      	ldr	r3, [r7, #4]
 800263e:	681b      	ldr	r3, [r3, #0]
 8002640:	4a18      	ldr	r2, [pc, #96]	; (80026a4 <HAL_TIM_MspPostInit+0x17c>)
 8002642:	4293      	cmp	r3, r2
 8002644:	d123      	bne.n	800268e <HAL_TIM_MspPostInit+0x166>
    __HAL_RCC_GPIOB_CLK_ENABLE();
 8002646:	4b15      	ldr	r3, [pc, #84]	; (800269c <HAL_TIM_MspPostInit+0x174>)
 8002648:	695a      	ldr	r2, [r3, #20]
 800264a:	4b14      	ldr	r3, [pc, #80]	; (800269c <HAL_TIM_MspPostInit+0x174>)
 800264c:	2180      	movs	r1, #128	; 0x80
 800264e:	02c9      	lsls	r1, r1, #11
 8002650:	430a      	orrs	r2, r1
 8002652:	615a      	str	r2, [r3, #20]
 8002654:	4b11      	ldr	r3, [pc, #68]	; (800269c <HAL_TIM_MspPostInit+0x174>)
 8002656:	695a      	ldr	r2, [r3, #20]
 8002658:	2380      	movs	r3, #128	; 0x80
 800265a:	02db      	lsls	r3, r3, #11
 800265c:	4013      	ands	r3, r2
 800265e:	60fb      	str	r3, [r7, #12]
 8002660:	68fb      	ldr	r3, [r7, #12]
    GPIO_InitStruct.Pin = GPIO_PIN_0|GPIO_PIN_1|GPIO_PIN_4|GPIO_PIN_5;
 8002662:	211c      	movs	r1, #28
 8002664:	187b      	adds	r3, r7, r1
 8002666:	2233      	movs	r2, #51	; 0x33
 8002668:	601a      	str	r2, [r3, #0]
    GPIO_InitStruct.Mode = GPIO_MODE_AF_PP;
 800266a:	187b      	adds	r3, r7, r1
 800266c:	2202      	movs	r2, #2
 800266e:	605a      	str	r2, [r3, #4]
    GPIO_InitStruct.Pull = GPIO_NOPULL;
 8002670:	187b      	adds	r3, r7, r1
 8002672:	2200      	movs	r2, #0
 8002674:	609a      	str	r2, [r3, #8]
    GPIO_InitStruct.Speed = GPIO_SPEED_FREQ_LOW;
 8002676:	187b      	adds	r3, r7, r1
 8002678:	2200      	movs	r2, #0
 800267a:	60da      	str	r2, [r3, #12]
    GPIO_InitStruct.Alternate = GPIO_AF1_TIM3;
 800267c:	187b      	adds	r3, r7, r1
 800267e:	2201      	movs	r2, #1
 8002680:	611a      	str	r2, [r3, #16]
    HAL_GPIO_Init(GPIOB, &GPIO_InitStruct);
 8002682:	187b      	adds	r3, r7, r1
 8002684:	4a06      	ldr	r2, [pc, #24]	; (80026a0 <HAL_TIM_MspPostInit+0x178>)
 8002686:	0019      	movs	r1, r3
 8002688:	0010      	movs	r0, r2
 800268a:	f000 f971 	bl	8002970 <HAL_GPIO_Init>
}
 800268e:	46c0      	nop			; (mov r8, r8)
 8002690:	46bd      	mov	sp, r7
 8002692:	b00d      	add	sp, #52	; 0x34
 8002694:	bd90      	pop	{r4, r7, pc}
 8002696:	46c0      	nop			; (mov r8, r8)
 8002698:	40012c00 	.word	0x40012c00
 800269c:	40021000 	.word	0x40021000
 80026a0:	48000400 	.word	0x48000400
 80026a4:	40000400 	.word	0x40000400

080026a8 <Reset_Handler>:

  .section .text.Reset_Handler
  .weak Reset_Handler
  .type Reset_Handler, %function
Reset_Handler:
  ldr   r0, =_estack
 80026a8:	480d      	ldr	r0, [pc, #52]	; (80026e0 <LoopForever+0x2>)
  mov   sp, r0          /* set stack pointer */
 80026aa:	4685      	mov	sp, r0

/* Copy the data segment initializers from flash to SRAM */
  ldr r0, =_sdata
 80026ac:	480d      	ldr	r0, [pc, #52]	; (80026e4 <LoopForever+0x6>)
  ldr r1, =_edata
 80026ae:	490e      	ldr	r1, [pc, #56]	; (80026e8 <LoopForever+0xa>)
  ldr r2, =_sidata
 80026b0:	4a0e      	ldr	r2, [pc, #56]	; (80026ec <LoopForever+0xe>)
  movs r3, #0
 80026b2:	2300      	movs	r3, #0
  b LoopCopyDataInit
 80026b4:	e002      	b.n	80026bc <LoopCopyDataInit>

080026b6 <CopyDataInit>:

CopyDataInit:
  ldr r4, [r2, r3]
 80026b6:	58d4      	ldr	r4, [r2, r3]
  str r4, [r0, r3]
 80026b8:	50c4      	str	r4, [r0, r3]
  adds r3, r3, #4
 80026ba:	3304      	adds	r3, #4

080026bc <LoopCopyDataInit>:

LoopCopyDataInit:
  adds r4, r0, r3
 80026bc:	18c4      	adds	r4, r0, r3
  cmp r4, r1
 80026be:	428c      	cmp	r4, r1
  bcc CopyDataInit
 80026c0:	d3f9      	bcc.n	80026b6 <CopyDataInit>
  
/* Zero fill the bss segment. */
  ldr r2, =_sbss
 80026c2:	4a0b      	ldr	r2, [pc, #44]	; (80026f0 <LoopForever+0x12>)
  ldr r4, =_ebss
 80026c4:	4c0b      	ldr	r4, [pc, #44]	; (80026f4 <LoopForever+0x16>)
  movs r3, #0
 80026c6:	2300      	movs	r3, #0
  b LoopFillZerobss
 80026c8:	e001      	b.n	80026ce <LoopFillZerobss>

080026ca <FillZerobss>:

FillZerobss:
  str  r3, [r2]
 80026ca:	6013      	str	r3, [r2, #0]
  adds r2, r2, #4
 80026cc:	3204      	adds	r2, #4

080026ce <LoopFillZerobss>:

LoopFillZerobss:
  cmp r2, r4
 80026ce:	42a2      	cmp	r2, r4
  bcc FillZerobss
 80026d0:	d3fb      	bcc.n	80026ca <FillZerobss>

/* Call the clock system intitialization function.*/
  bl  SystemInit
 80026d2:	f7ff fd24 	bl	800211e <SystemInit>
/* Call static constructors */
  bl __libc_init_array
 80026d6:	f001 fd1f 	bl	8004118 <__libc_init_array>
/* Call the application's entry point.*/
  bl main
 80026da:	f7ff fba5 	bl	8001e28 <main>

080026de <LoopForever>:

LoopForever:
    b LoopForever
 80026de:	e7fe      	b.n	80026de <LoopForever>
  ldr   r0, =_estack
 80026e0:	20002000 	.word	0x20002000
  ldr r0, =_sdata
 80026e4:	20000000 	.word	0x20000000
  ldr r1, =_edata
 80026e8:	20000080 	.word	0x20000080
  ldr r2, =_sidata
 80026ec:	08004464 	.word	0x08004464
  ldr r2, =_sbss
 80026f0:	20000080 	.word	0x20000080
  ldr r4, =_ebss
 80026f4:	20000168 	.word	0x20000168

080026f8 <ADC1_COMP_IRQHandler>:
 * @retval : None
*/
    .section .text.Default_Handler,"ax",%progbits
Default_Handler:
Infinite_Loop:
  b Infinite_Loop
 80026f8:	e7fe      	b.n	80026f8 <ADC1_COMP_IRQHandler>
	...

080026fc <HAL_Init>:
  *       In the default implementation,Systick is used as source of time base.
  *       The tick variable is incremented each 1ms in its ISR.
  * @retval HAL status
  */
HAL_StatusTypeDef HAL_Init(void)
{
 80026fc:	b580      	push	{r7, lr}
 80026fe:	af00      	add	r7, sp, #0
  /* Configure Flash prefetch */ 
#if (PREFETCH_ENABLE != 0)
  __HAL_FLASH_PREFETCH_BUFFER_ENABLE();
 8002700:	4b07      	ldr	r3, [pc, #28]	; (8002720 <HAL_Init+0x24>)
 8002702:	681a      	ldr	r2, [r3, #0]
 8002704:	4b06      	ldr	r3, [pc, #24]	; (8002720 <HAL_Init+0x24>)
 8002706:	2110      	movs	r1, #16
 8002708:	430a      	orrs	r2, r1
 800270a:	601a      	str	r2, [r3, #0]
#endif /* PREFETCH_ENABLE */

  /* Use systick as time base source and configure 1ms tick (default clock after Reset is HSI) */

  HAL_InitTick(TICK_INT_PRIORITY);
 800270c:	2000      	movs	r0, #0
 800270e:	f000 f809 	bl	8002724 <HAL_InitTick>

  /* Init the low level hardware */
  HAL_MspInit();
 8002712:	f7ff fcc7 	bl	80020a4 <HAL_MspInit>

  /* Return function status */
  return HAL_OK;
 8002716:	2300      	movs	r3, #0
}
 8002718:	0018      	movs	r0, r3
 800271a:	46bd      	mov	sp, r7
 800271c:	bd80      	pop	{r7, pc}
 800271e:	46c0      	nop			; (mov r8, r8)
 8002720:	40022000 	.word	0x40022000

08002724 <HAL_InitTick>:
  *       implementation  in user file.
  * @param TickPriority Tick interrupt priority.
  * @retval HAL status
  */
__weak HAL_StatusTypeDef HAL_InitTick(uint32_t TickPriority)
{
 8002724:	b590      	push	{r4, r7, lr}
 8002726:	b083      	sub	sp, #12
 8002728:	af00      	add	r7, sp, #0
 800272a:	6078      	str	r0, [r7, #4]
  /*Configure the SysTick to have interrupt in 1ms time basis*/
  if (HAL_SYSTICK_Config(SystemCoreClock / (1000U / uwTickFreq)) > 0U)
 800272c:	4b14      	ldr	r3, [pc, #80]	; (8002780 <HAL_InitTick+0x5c>)
 800272e:	681c      	ldr	r4, [r3, #0]
 8002730:	4b14      	ldr	r3, [pc, #80]	; (8002784 <HAL_InitTick+0x60>)
 8002732:	781b      	ldrb	r3, [r3, #0]
 8002734:	0019      	movs	r1, r3
 8002736:	23fa      	movs	r3, #250	; 0xfa
 8002738:	0098      	lsls	r0, r3, #2
 800273a:	f7fd fce5 	bl	8000108 <__udivsi3>
 800273e:	0003      	movs	r3, r0
 8002740:	0019      	movs	r1, r3
 8002742:	0020      	movs	r0, r4
 8002744:	f7fd fce0 	bl	8000108 <__udivsi3>
 8002748:	0003      	movs	r3, r0
 800274a:	0018      	movs	r0, r3
 800274c:	f000 f903 	bl	8002956 <HAL_SYSTICK_Config>
 8002750:	1e03      	subs	r3, r0, #0
 8002752:	d001      	beq.n	8002758 <HAL_InitTick+0x34>
  {
    return HAL_ERROR;
 8002754:	2301      	movs	r3, #1
 8002756:	e00f      	b.n	8002778 <HAL_InitTick+0x54>
  }

  /* Configure the SysTick IRQ priority */
  if (TickPriority < (1UL << __NVIC_PRIO_BITS))
 8002758:	687b      	ldr	r3, [r7, #4]
 800275a:	2b03      	cmp	r3, #3
 800275c:	d80b      	bhi.n	8002776 <HAL_InitTick+0x52>
  {
    HAL_NVIC_SetPriority(SysTick_IRQn, TickPriority, 0U);
 800275e:	6879      	ldr	r1, [r7, #4]
 8002760:	2301      	movs	r3, #1
 8002762:	425b      	negs	r3, r3
 8002764:	2200      	movs	r2, #0
 8002766:	0018      	movs	r0, r3
 8002768:	f000 f8e0 	bl	800292c <HAL_NVIC_SetPriority>
    uwTickPrio = TickPriority;
 800276c:	4b06      	ldr	r3, [pc, #24]	; (8002788 <HAL_InitTick+0x64>)
 800276e:	687a      	ldr	r2, [r7, #4]
 8002770:	601a      	str	r2, [r3, #0]
  {
    return HAL_ERROR;
  }

   /* Return function status */
  return HAL_OK;
 8002772:	2300      	movs	r3, #0
 8002774:	e000      	b.n	8002778 <HAL_InitTick+0x54>
    return HAL_ERROR;
 8002776:	2301      	movs	r3, #1
}
 8002778:	0018      	movs	r0, r3
 800277a:	46bd      	mov	sp, r7
 800277c:	b003      	add	sp, #12
 800277e:	bd90      	pop	{r4, r7, pc}
 8002780:	2000000c 	.word	0x2000000c
 8002784:	20000014 	.word	0x20000014
 8002788:	20000010 	.word	0x20000010

0800278c <HAL_IncTick>:
  * @note This function is declared as __weak to be overwritten in case of other 
  *       implementations in user file.
  * @retval None
  */
__weak void HAL_IncTick(void)
{
 800278c:	b580      	push	{r7, lr}
 800278e:	af00      	add	r7, sp, #0
  uwTick += uwTickFreq;
 8002790:	4b05      	ldr	r3, [pc, #20]	; (80027a8 <HAL_IncTick+0x1c>)
 8002792:	781b      	ldrb	r3, [r3, #0]
 8002794:	001a      	movs	r2, r3
 8002796:	4b05      	ldr	r3, [pc, #20]	; (80027ac <HAL_IncTick+0x20>)
 8002798:	681b      	ldr	r3, [r3, #0]
 800279a:	18d2      	adds	r2, r2, r3
 800279c:	4b03      	ldr	r3, [pc, #12]	; (80027ac <HAL_IncTick+0x20>)
 800279e:	601a      	str	r2, [r3, #0]
}
 80027a0:	46c0      	nop			; (mov r8, r8)
 80027a2:	46bd      	mov	sp, r7
 80027a4:	bd80      	pop	{r7, pc}
 80027a6:	46c0      	nop			; (mov r8, r8)
 80027a8:	20000014 	.word	0x20000014
 80027ac:	20000164 	.word	0x20000164

080027b0 <HAL_GetTick>:
  * @note   This function is declared as __weak  to be overwritten  in case of other 
  *       implementations in user file.
  * @retval tick value
  */
__weak uint32_t HAL_GetTick(void)
{
 80027b0:	b580      	push	{r7, lr}
 80027b2:	af00      	add	r7, sp, #0
  return uwTick;
 80027b4:	4b02      	ldr	r3, [pc, #8]	; (80027c0 <HAL_GetTick+0x10>)
 80027b6:	681b      	ldr	r3, [r3, #0]
}
 80027b8:	0018      	movs	r0, r3
 80027ba:	46bd      	mov	sp, r7
 80027bc:	bd80      	pop	{r7, pc}
 80027be:	46c0      	nop			; (mov r8, r8)
 80027c0:	20000164 	.word	0x20000164

080027c4 <HAL_Delay>:
  *       implementations in user file.
  * @param Delay specifies the delay time length, in milliseconds.
  * @retval None
  */
__weak void HAL_Delay(uint32_t Delay)
{
 80027c4:	b580      	push	{r7, lr}
 80027c6:	b084      	sub	sp, #16
 80027c8:	af00      	add	r7, sp, #0
 80027ca:	6078      	str	r0, [r7, #4]
  uint32_t tickstart = HAL_GetTick();
 80027cc:	f7ff fff0 	bl	80027b0 <HAL_GetTick>
 80027d0:	0003      	movs	r3, r0
 80027d2:	60bb      	str	r3, [r7, #8]
  uint32_t wait = Delay;
 80027d4:	687b      	ldr	r3, [r7, #4]
 80027d6:	60fb      	str	r3, [r7, #12]
  
  /* Add a freq to guarantee minimum wait */
  if (wait < HAL_MAX_DELAY)
 80027d8:	68fb      	ldr	r3, [r7, #12]
 80027da:	3301      	adds	r3, #1
 80027dc:	d005      	beq.n	80027ea <HAL_Delay+0x26>
  {
    wait += (uint32_t)(uwTickFreq);
 80027de:	4b09      	ldr	r3, [pc, #36]	; (8002804 <HAL_Delay+0x40>)
 80027e0:	781b      	ldrb	r3, [r3, #0]
 80027e2:	001a      	movs	r2, r3
 80027e4:	68fb      	ldr	r3, [r7, #12]
 80027e6:	189b      	adds	r3, r3, r2
 80027e8:	60fb      	str	r3, [r7, #12]
  }
  
  while((HAL_GetTick() - tickstart) < wait)
 80027ea:	46c0      	nop			; (mov r8, r8)
 80027ec:	f7ff ffe0 	bl	80027b0 <HAL_GetTick>
 80027f0:	0002      	movs	r2, r0
 80027f2:	68bb      	ldr	r3, [r7, #8]
 80027f4:	1ad3      	subs	r3, r2, r3
 80027f6:	68fa      	ldr	r2, [r7, #12]
 80027f8:	429a      	cmp	r2, r3
 80027fa:	d8f7      	bhi.n	80027ec <HAL_Delay+0x28>
  {
  }
}
 80027fc:	46c0      	nop			; (mov r8, r8)
 80027fe:	46bd      	mov	sp, r7
 8002800:	b004      	add	sp, #16
 8002802:	bd80      	pop	{r7, pc}
 8002804:	20000014 	.word	0x20000014

08002808 <__NVIC_SetPriority>:
  \param [in]      IRQn  Interrupt number.
  \param [in]  priority  Priority to set.
  \note    The priority cannot be set for every processor exception.
 */
__STATIC_INLINE void __NVIC_SetPriority(IRQn_Type IRQn, uint32_t priority)
{
 8002808:	b590      	push	{r4, r7, lr}
 800280a:	b083      	sub	sp, #12
 800280c:	af00      	add	r7, sp, #0
 800280e:	0002      	movs	r2, r0
 8002810:	6039      	str	r1, [r7, #0]
 8002812:	1dfb      	adds	r3, r7, #7
 8002814:	701a      	strb	r2, [r3, #0]
  if ((int32_t)(IRQn) >= 0)
 8002816:	1dfb      	adds	r3, r7, #7
 8002818:	781b      	ldrb	r3, [r3, #0]
 800281a:	2b7f      	cmp	r3, #127	; 0x7f
 800281c:	d828      	bhi.n	8002870 <__NVIC_SetPriority+0x68>
  {
    NVIC->IP[_IP_IDX(IRQn)]  = ((uint32_t)(NVIC->IP[_IP_IDX(IRQn)]  & ~(0xFFUL << _BIT_SHIFT(IRQn))) |
 800281e:	4a2f      	ldr	r2, [pc, #188]	; (80028dc <__NVIC_SetPriority+0xd4>)
 8002820:	1dfb      	adds	r3, r7, #7
 8002822:	781b      	ldrb	r3, [r3, #0]
 8002824:	b25b      	sxtb	r3, r3
 8002826:	089b      	lsrs	r3, r3, #2
 8002828:	33c0      	adds	r3, #192	; 0xc0
 800282a:	009b      	lsls	r3, r3, #2
 800282c:	589b      	ldr	r3, [r3, r2]
 800282e:	1dfa      	adds	r2, r7, #7
 8002830:	7812      	ldrb	r2, [r2, #0]
 8002832:	0011      	movs	r1, r2
 8002834:	2203      	movs	r2, #3
 8002836:	400a      	ands	r2, r1
 8002838:	00d2      	lsls	r2, r2, #3
 800283a:	21ff      	movs	r1, #255	; 0xff
 800283c:	4091      	lsls	r1, r2
 800283e:	000a      	movs	r2, r1
 8002840:	43d2      	mvns	r2, r2
 8002842:	401a      	ands	r2, r3
 8002844:	0011      	movs	r1, r2
       (((priority << (8U - __NVIC_PRIO_BITS)) & (uint32_t)0xFFUL) << _BIT_SHIFT(IRQn)));
 8002846:	683b      	ldr	r3, [r7, #0]
 8002848:	019b      	lsls	r3, r3, #6
 800284a:	22ff      	movs	r2, #255	; 0xff
 800284c:	401a      	ands	r2, r3
 800284e:	1dfb      	adds	r3, r7, #7
 8002850:	781b      	ldrb	r3, [r3, #0]
 8002852:	0018      	movs	r0, r3
 8002854:	2303      	movs	r3, #3
 8002856:	4003      	ands	r3, r0
 8002858:	00db      	lsls	r3, r3, #3
 800285a:	409a      	lsls	r2, r3
    NVIC->IP[_IP_IDX(IRQn)]  = ((uint32_t)(NVIC->IP[_IP_IDX(IRQn)]  & ~(0xFFUL << _BIT_SHIFT(IRQn))) |
 800285c:	481f      	ldr	r0, [pc, #124]	; (80028dc <__NVIC_SetPriority+0xd4>)
 800285e:	1dfb      	adds	r3, r7, #7
 8002860:	781b      	ldrb	r3, [r3, #0]
 8002862:	b25b      	sxtb	r3, r3
 8002864:	089b      	lsrs	r3, r3, #2
 8002866:	430a      	orrs	r2, r1
 8002868:	33c0      	adds	r3, #192	; 0xc0
 800286a:	009b      	lsls	r3, r3, #2
 800286c:	501a      	str	r2, [r3, r0]
  else
  {
    SCB->SHP[_SHP_IDX(IRQn)] = ((uint32_t)(SCB->SHP[_SHP_IDX(IRQn)] & ~(0xFFUL << _BIT_SHIFT(IRQn))) |
       (((priority << (8U - __NVIC_PRIO_BITS)) & (uint32_t)0xFFUL) << _BIT_SHIFT(IRQn)));
  }
}
 800286e:	e031      	b.n	80028d4 <__NVIC_SetPriority+0xcc>
    SCB->SHP[_SHP_IDX(IRQn)] = ((uint32_t)(SCB->SHP[_SHP_IDX(IRQn)] & ~(0xFFUL << _BIT_SHIFT(IRQn))) |
 8002870:	4a1b      	ldr	r2, [pc, #108]	; (80028e0 <__NVIC_SetPriority+0xd8>)
 8002872:	1dfb      	adds	r3, r7, #7
 8002874:	781b      	ldrb	r3, [r3, #0]
 8002876:	0019      	movs	r1, r3
 8002878:	230f      	movs	r3, #15
 800287a:	400b      	ands	r3, r1
 800287c:	3b08      	subs	r3, #8
 800287e:	089b      	lsrs	r3, r3, #2
 8002880:	3306      	adds	r3, #6
 8002882:	009b      	lsls	r3, r3, #2
 8002884:	18d3      	adds	r3, r2, r3
 8002886:	3304      	adds	r3, #4
 8002888:	681b      	ldr	r3, [r3, #0]
 800288a:	1dfa      	adds	r2, r7, #7
 800288c:	7812      	ldrb	r2, [r2, #0]
 800288e:	0011      	movs	r1, r2
 8002890:	2203      	movs	r2, #3
 8002892:	400a      	ands	r2, r1
 8002894:	00d2      	lsls	r2, r2, #3
 8002896:	21ff      	movs	r1, #255	; 0xff
 8002898:	4091      	lsls	r1, r2
 800289a:	000a      	movs	r2, r1
 800289c:	43d2      	mvns	r2, r2
 800289e:	401a      	ands	r2, r3
 80028a0:	0011      	movs	r1, r2
       (((priority << (8U - __NVIC_PRIO_BITS)) & (uint32_t)0xFFUL) << _BIT_SHIFT(IRQn)));
 80028a2:	683b      	ldr	r3, [r7, #0]
 80028a4:	019b      	lsls	r3, r3, #6
 80028a6:	22ff      	movs	r2, #255	; 0xff
 80028a8:	401a      	ands	r2, r3
 80028aa:	1dfb      	adds	r3, r7, #7
 80028ac:	781b      	ldrb	r3, [r3, #0]
 80028ae:	0018      	movs	r0, r3
 80028b0:	2303      	movs	r3, #3
 80028b2:	4003      	ands	r3, r0
 80028b4:	00db      	lsls	r3, r3, #3
 80028b6:	409a      	lsls	r2, r3
    SCB->SHP[_SHP_IDX(IRQn)] = ((uint32_t)(SCB->SHP[_SHP_IDX(IRQn)] & ~(0xFFUL << _BIT_SHIFT(IRQn))) |
 80028b8:	4809      	ldr	r0, [pc, #36]	; (80028e0 <__NVIC_SetPriority+0xd8>)
 80028ba:	1dfb      	adds	r3, r7, #7
 80028bc:	781b      	ldrb	r3, [r3, #0]
 80028be:	001c      	movs	r4, r3
 80028c0:	230f      	movs	r3, #15
 80028c2:	4023      	ands	r3, r4
 80028c4:	3b08      	subs	r3, #8
 80028c6:	089b      	lsrs	r3, r3, #2
 80028c8:	430a      	orrs	r2, r1
 80028ca:	3306      	adds	r3, #6
 80028cc:	009b      	lsls	r3, r3, #2
 80028ce:	18c3      	adds	r3, r0, r3
 80028d0:	3304      	adds	r3, #4
 80028d2:	601a      	str	r2, [r3, #0]
}
 80028d4:	46c0      	nop			; (mov r8, r8)
 80028d6:	46bd      	mov	sp, r7
 80028d8:	b003      	add	sp, #12
 80028da:	bd90      	pop	{r4, r7, pc}
 80028dc:	e000e100 	.word	0xe000e100
 80028e0:	e000ed00 	.word	0xe000ed00

080028e4 <SysTick_Config>:
  \note    When the variable <b>__Vendor_SysTickConfig</b> is set to 1, then the
           function <b>SysTick_Config</b> is not included. In this case, the file <b><i>device</i>.h</b>
           must contain a vendor-specific implementation of this function.
 */
__STATIC_INLINE uint32_t SysTick_Config(uint32_t ticks)
{
 80028e4:	b580      	push	{r7, lr}
 80028e6:	b082      	sub	sp, #8
 80028e8:	af00      	add	r7, sp, #0
 80028ea:	6078      	str	r0, [r7, #4]
  if ((ticks - 1UL) > SysTick_LOAD_RELOAD_Msk)
 80028ec:	687b      	ldr	r3, [r7, #4]
 80028ee:	3b01      	subs	r3, #1
 80028f0:	4a0c      	ldr	r2, [pc, #48]	; (8002924 <SysTick_Config+0x40>)
 80028f2:	4293      	cmp	r3, r2
 80028f4:	d901      	bls.n	80028fa <SysTick_Config+0x16>
  {
    return (1UL);                                                   /* Reload value impossible */
 80028f6:	2301      	movs	r3, #1
 80028f8:	e010      	b.n	800291c <SysTick_Config+0x38>
  }

  SysTick->LOAD  = (uint32_t)(ticks - 1UL);                         /* set reload register */
 80028fa:	4b0b      	ldr	r3, [pc, #44]	; (8002928 <SysTick_Config+0x44>)
 80028fc:	687a      	ldr	r2, [r7, #4]
 80028fe:	3a01      	subs	r2, #1
 8002900:	605a      	str	r2, [r3, #4]
  NVIC_SetPriority (SysTick_IRQn, (1UL << __NVIC_PRIO_BITS) - 1UL); /* set Priority for Systick Interrupt */
 8002902:	2301      	movs	r3, #1
 8002904:	425b      	negs	r3, r3
 8002906:	2103      	movs	r1, #3
 8002908:	0018      	movs	r0, r3
 800290a:	f7ff ff7d 	bl	8002808 <__NVIC_SetPriority>
  SysTick->VAL   = 0UL;                                             /* Load the SysTick Counter Value */
 800290e:	4b06      	ldr	r3, [pc, #24]	; (8002928 <SysTick_Config+0x44>)
 8002910:	2200      	movs	r2, #0
 8002912:	609a      	str	r2, [r3, #8]
  SysTick->CTRL  = SysTick_CTRL_CLKSOURCE_Msk |
 8002914:	4b04      	ldr	r3, [pc, #16]	; (8002928 <SysTick_Config+0x44>)
 8002916:	2207      	movs	r2, #7
 8002918:	601a      	str	r2, [r3, #0]
                   SysTick_CTRL_TICKINT_Msk   |
                   SysTick_CTRL_ENABLE_Msk;                         /* Enable SysTick IRQ and SysTick Timer */
  return (0UL);                                                     /* Function successful */
 800291a:	2300      	movs	r3, #0
}
 800291c:	0018      	movs	r0, r3
 800291e:	46bd      	mov	sp, r7
 8002920:	b002      	add	sp, #8
 8002922:	bd80      	pop	{r7, pc}
 8002924:	00ffffff 	.word	0x00ffffff
 8002928:	e000e010 	.word	0xe000e010

0800292c <HAL_NVIC_SetPriority>:
  *         with stm32f0xx devices, this parameter is a dummy value and it is ignored, because 
  *         no subpriority supported in Cortex M0 based products.   
  * @retval None
  */
void HAL_NVIC_SetPriority(IRQn_Type IRQn, uint32_t PreemptPriority, uint32_t SubPriority)
{ 
 800292c:	b580      	push	{r7, lr}
 800292e:	b084      	sub	sp, #16
 8002930:	af00      	add	r7, sp, #0
 8002932:	60b9      	str	r1, [r7, #8]
 8002934:	607a      	str	r2, [r7, #4]
 8002936:	210f      	movs	r1, #15
 8002938:	187b      	adds	r3, r7, r1
 800293a:	1c02      	adds	r2, r0, #0
 800293c:	701a      	strb	r2, [r3, #0]
  /* Check the parameters */
  assert_param(IS_NVIC_PREEMPTION_PRIORITY(PreemptPriority));
  NVIC_SetPriority(IRQn,PreemptPriority);
 800293e:	68ba      	ldr	r2, [r7, #8]
 8002940:	187b      	adds	r3, r7, r1
 8002942:	781b      	ldrb	r3, [r3, #0]
 8002944:	b25b      	sxtb	r3, r3
 8002946:	0011      	movs	r1, r2
 8002948:	0018      	movs	r0, r3
 800294a:	f7ff ff5d 	bl	8002808 <__NVIC_SetPriority>
}
 800294e:	46c0      	nop			; (mov r8, r8)
 8002950:	46bd      	mov	sp, r7
 8002952:	b004      	add	sp, #16
 8002954:	bd80      	pop	{r7, pc}

08002956 <HAL_SYSTICK_Config>:
  * @param  TicksNumb Specifies the ticks Number of ticks between two interrupts.
  * @retval status:  - 0  Function succeeded.
  *                  - 1  Function failed.
  */
uint32_t HAL_SYSTICK_Config(uint32_t TicksNumb)
{
 8002956:	b580      	push	{r7, lr}
 8002958:	b082      	sub	sp, #8
 800295a:	af00      	add	r7, sp, #0
 800295c:	6078      	str	r0, [r7, #4]
   return SysTick_Config(TicksNumb);
 800295e:	687b      	ldr	r3, [r7, #4]
 8002960:	0018      	movs	r0, r3
 8002962:	f7ff ffbf 	bl	80028e4 <SysTick_Config>
 8002966:	0003      	movs	r3, r0
}
 8002968:	0018      	movs	r0, r3
 800296a:	46bd      	mov	sp, r7
 800296c:	b002      	add	sp, #8
 800296e:	bd80      	pop	{r7, pc}

08002970 <HAL_GPIO_Init>:
  * @param  GPIO_Init pointer to a GPIO_InitTypeDef structure that contains
  *         the configuration information for the specified GPIO peripheral.
  * @retval None
  */
void HAL_GPIO_Init(GPIO_TypeDef  *GPIOx, GPIO_InitTypeDef *GPIO_Init)
{ 
 8002970:	b580      	push	{r7, lr}
 8002972:	b086      	sub	sp, #24
 8002974:	af00      	add	r7, sp, #0
 8002976:	6078      	str	r0, [r7, #4]
 8002978:	6039      	str	r1, [r7, #0]
  uint32_t position = 0x00u;
 800297a:	2300      	movs	r3, #0
 800297c:	617b      	str	r3, [r7, #20]
  assert_param(IS_GPIO_PIN(GPIO_Init->Pin));
  assert_param(IS_GPIO_MODE(GPIO_Init->Mode));
  assert_param(IS_GPIO_PULL(GPIO_Init->Pull));

  /* Configure the port pins */
  while (((GPIO_Init->Pin) >> position) != 0x00u)
 800297e:	e14f      	b.n	8002c20 <HAL_GPIO_Init+0x2b0>
  {
    /* Get current io position */
    iocurrent = (GPIO_Init->Pin) & (1uL << position);
 8002980:	683b      	ldr	r3, [r7, #0]
 8002982:	681b      	ldr	r3, [r3, #0]
 8002984:	2101      	movs	r1, #1
 8002986:	697a      	ldr	r2, [r7, #20]
 8002988:	4091      	lsls	r1, r2
 800298a:	000a      	movs	r2, r1
 800298c:	4013      	ands	r3, r2
 800298e:	60fb      	str	r3, [r7, #12]

    if (iocurrent != 0x00u)
 8002990:	68fb      	ldr	r3, [r7, #12]
 8002992:	2b00      	cmp	r3, #0
 8002994:	d100      	bne.n	8002998 <HAL_GPIO_Init+0x28>
 8002996:	e140      	b.n	8002c1a <HAL_GPIO_Init+0x2aa>
    {
      /*--------------------- GPIO Mode Configuration ------------------------*/
      /* In case of Alternate function mode selection */
      if((GPIO_Init->Mode == GPIO_MODE_AF_PP) || (GPIO_Init->Mode == GPIO_MODE_AF_OD))
 8002998:	683b      	ldr	r3, [r7, #0]
 800299a:	685b      	ldr	r3, [r3, #4]
 800299c:	2b02      	cmp	r3, #2
 800299e:	d003      	beq.n	80029a8 <HAL_GPIO_Init+0x38>
 80029a0:	683b      	ldr	r3, [r7, #0]
 80029a2:	685b      	ldr	r3, [r3, #4]
 80029a4:	2b12      	cmp	r3, #18
 80029a6:	d123      	bne.n	80029f0 <HAL_GPIO_Init+0x80>
        /* Check the Alternate function parameters */
        assert_param(IS_GPIO_AF_INSTANCE(GPIOx));
        assert_param(IS_GPIO_AF(GPIO_Init->Alternate));

        /* Configure Alternate function mapped with the current IO */
        temp = GPIOx->AFR[position >> 3u];
 80029a8:	697b      	ldr	r3, [r7, #20]
 80029aa:	08da      	lsrs	r2, r3, #3
 80029ac:	687b      	ldr	r3, [r7, #4]
 80029ae:	3208      	adds	r2, #8
 80029b0:	0092      	lsls	r2, r2, #2
 80029b2:	58d3      	ldr	r3, [r2, r3]
 80029b4:	613b      	str	r3, [r7, #16]
        temp &= ~(0xFu << ((position & 0x07u) * 4u));
 80029b6:	697b      	ldr	r3, [r7, #20]
 80029b8:	2207      	movs	r2, #7
 80029ba:	4013      	ands	r3, r2
 80029bc:	009b      	lsls	r3, r3, #2
 80029be:	220f      	movs	r2, #15
 80029c0:	409a      	lsls	r2, r3
 80029c2:	0013      	movs	r3, r2
 80029c4:	43da      	mvns	r2, r3
 80029c6:	693b      	ldr	r3, [r7, #16]
 80029c8:	4013      	ands	r3, r2
 80029ca:	613b      	str	r3, [r7, #16]
        temp |= ((GPIO_Init->Alternate) << ((position & 0x07u) * 4u));
 80029cc:	683b      	ldr	r3, [r7, #0]
 80029ce:	691a      	ldr	r2, [r3, #16]
 80029d0:	697b      	ldr	r3, [r7, #20]
 80029d2:	2107      	movs	r1, #7
 80029d4:	400b      	ands	r3, r1
 80029d6:	009b      	lsls	r3, r3, #2
 80029d8:	409a      	lsls	r2, r3
 80029da:	0013      	movs	r3, r2
 80029dc:	693a      	ldr	r2, [r7, #16]
 80029de:	4313      	orrs	r3, r2
 80029e0:	613b      	str	r3, [r7, #16]
        GPIOx->AFR[position >> 3u] = temp;
 80029e2:	697b      	ldr	r3, [r7, #20]
 80029e4:	08da      	lsrs	r2, r3, #3
 80029e6:	687b      	ldr	r3, [r7, #4]
 80029e8:	3208      	adds	r2, #8
 80029ea:	0092      	lsls	r2, r2, #2
 80029ec:	6939      	ldr	r1, [r7, #16]
 80029ee:	50d1      	str	r1, [r2, r3]
      }

      /* Configure IO Direction mode (Input, Output, Alternate or Analog) */
      temp = GPIOx->MODER;
 80029f0:	687b      	ldr	r3, [r7, #4]
 80029f2:	681b      	ldr	r3, [r3, #0]
 80029f4:	613b      	str	r3, [r7, #16]
      temp &= ~(GPIO_MODER_MODER0 << (position * 2u));
 80029f6:	697b      	ldr	r3, [r7, #20]
 80029f8:	005b      	lsls	r3, r3, #1
 80029fa:	2203      	movs	r2, #3
 80029fc:	409a      	lsls	r2, r3
 80029fe:	0013      	movs	r3, r2
 8002a00:	43da      	mvns	r2, r3
 8002a02:	693b      	ldr	r3, [r7, #16]
 8002a04:	4013      	ands	r3, r2
 8002a06:	613b      	str	r3, [r7, #16]
      temp |= ((GPIO_Init->Mode & GPIO_MODE) << (position * 2u));
 8002a08:	683b      	ldr	r3, [r7, #0]
 8002a0a:	685b      	ldr	r3, [r3, #4]
 8002a0c:	2203      	movs	r2, #3
 8002a0e:	401a      	ands	r2, r3
 8002a10:	697b      	ldr	r3, [r7, #20]
 8002a12:	005b      	lsls	r3, r3, #1
 8002a14:	409a      	lsls	r2, r3
 8002a16:	0013      	movs	r3, r2
 8002a18:	693a      	ldr	r2, [r7, #16]
 8002a1a:	4313      	orrs	r3, r2
 8002a1c:	613b      	str	r3, [r7, #16]
      GPIOx->MODER = temp;
 8002a1e:	687b      	ldr	r3, [r7, #4]
 8002a20:	693a      	ldr	r2, [r7, #16]
 8002a22:	601a      	str	r2, [r3, #0]

      /* In case of Output or Alternate function mode selection */
      if((GPIO_Init->Mode == GPIO_MODE_OUTPUT_PP) || (GPIO_Init->Mode == GPIO_MODE_AF_PP) ||
 8002a24:	683b      	ldr	r3, [r7, #0]
 8002a26:	685b      	ldr	r3, [r3, #4]
 8002a28:	2b01      	cmp	r3, #1
 8002a2a:	d00b      	beq.n	8002a44 <HAL_GPIO_Init+0xd4>
 8002a2c:	683b      	ldr	r3, [r7, #0]
 8002a2e:	685b      	ldr	r3, [r3, #4]
 8002a30:	2b02      	cmp	r3, #2
 8002a32:	d007      	beq.n	8002a44 <HAL_GPIO_Init+0xd4>
         (GPIO_Init->Mode == GPIO_MODE_OUTPUT_OD) || (GPIO_Init->Mode == GPIO_MODE_AF_OD))
 8002a34:	683b      	ldr	r3, [r7, #0]
 8002a36:	685b      	ldr	r3, [r3, #4]
      if((GPIO_Init->Mode == GPIO_MODE_OUTPUT_PP) || (GPIO_Init->Mode == GPIO_MODE_AF_PP) ||
 8002a38:	2b11      	cmp	r3, #17
 8002a3a:	d003      	beq.n	8002a44 <HAL_GPIO_Init+0xd4>
         (GPIO_Init->Mode == GPIO_MODE_OUTPUT_OD) || (GPIO_Init->Mode == GPIO_MODE_AF_OD))
 8002a3c:	683b      	ldr	r3, [r7, #0]
 8002a3e:	685b      	ldr	r3, [r3, #4]
 8002a40:	2b12      	cmp	r3, #18
 8002a42:	d130      	bne.n	8002aa6 <HAL_GPIO_Init+0x136>
      {
        /* Check the Speed parameter */
        assert_param(IS_GPIO_SPEED(GPIO_Init->Speed));
        /* Configure the IO Speed */
        temp = GPIOx->OSPEEDR;
 8002a44:	687b      	ldr	r3, [r7, #4]
 8002a46:	689b      	ldr	r3, [r3, #8]
 8002a48:	613b      	str	r3, [r7, #16]
        temp &= ~(GPIO_OSPEEDER_OSPEEDR0 << (position * 2u));
 8002a4a:	697b      	ldr	r3, [r7, #20]
 8002a4c:	005b      	lsls	r3, r3, #1
 8002a4e:	2203      	movs	r2, #3
 8002a50:	409a      	lsls	r2, r3
 8002a52:	0013      	movs	r3, r2
 8002a54:	43da      	mvns	r2, r3
 8002a56:	693b      	ldr	r3, [r7, #16]
 8002a58:	4013      	ands	r3, r2
 8002a5a:	613b      	str	r3, [r7, #16]
        temp |= (GPIO_Init->Speed << (position * 2u));
 8002a5c:	683b      	ldr	r3, [r7, #0]
 8002a5e:	68da      	ldr	r2, [r3, #12]
 8002a60:	697b      	ldr	r3, [r7, #20]
 8002a62:	005b      	lsls	r3, r3, #1
 8002a64:	409a      	lsls	r2, r3
 8002a66:	0013      	movs	r3, r2
 8002a68:	693a      	ldr	r2, [r7, #16]
 8002a6a:	4313      	orrs	r3, r2
 8002a6c:	613b      	str	r3, [r7, #16]
        GPIOx->OSPEEDR = temp;
 8002a6e:	687b      	ldr	r3, [r7, #4]
 8002a70:	693a      	ldr	r2, [r7, #16]
 8002a72:	609a      	str	r2, [r3, #8]

        /* Configure the IO Output Type */
        temp = GPIOx->OTYPER;
 8002a74:	687b      	ldr	r3, [r7, #4]
 8002a76:	685b      	ldr	r3, [r3, #4]
 8002a78:	613b      	str	r3, [r7, #16]
        temp &= ~(GPIO_OTYPER_OT_0 << position) ;
 8002a7a:	2201      	movs	r2, #1
 8002a7c:	697b      	ldr	r3, [r7, #20]
 8002a7e:	409a      	lsls	r2, r3
 8002a80:	0013      	movs	r3, r2
 8002a82:	43da      	mvns	r2, r3
 8002a84:	693b      	ldr	r3, [r7, #16]
 8002a86:	4013      	ands	r3, r2
 8002a88:	613b      	str	r3, [r7, #16]
        temp |= (((GPIO_Init->Mode & GPIO_OUTPUT_TYPE) >> 4u) << position);
 8002a8a:	683b      	ldr	r3, [r7, #0]
 8002a8c:	685b      	ldr	r3, [r3, #4]
 8002a8e:	091b      	lsrs	r3, r3, #4
 8002a90:	2201      	movs	r2, #1
 8002a92:	401a      	ands	r2, r3
 8002a94:	697b      	ldr	r3, [r7, #20]
 8002a96:	409a      	lsls	r2, r3
 8002a98:	0013      	movs	r3, r2
 8002a9a:	693a      	ldr	r2, [r7, #16]
 8002a9c:	4313      	orrs	r3, r2
 8002a9e:	613b      	str	r3, [r7, #16]
        GPIOx->OTYPER = temp;
 8002aa0:	687b      	ldr	r3, [r7, #4]
 8002aa2:	693a      	ldr	r2, [r7, #16]
 8002aa4:	605a      	str	r2, [r3, #4]
      }

      /* Activate the Pull-up or Pull down resistor for the current IO */
      temp = GPIOx->PUPDR;
 8002aa6:	687b      	ldr	r3, [r7, #4]
 8002aa8:	68db      	ldr	r3, [r3, #12]
 8002aaa:	613b      	str	r3, [r7, #16]
      temp &= ~(GPIO_PUPDR_PUPDR0 << (position * 2u));
 8002aac:	697b      	ldr	r3, [r7, #20]
 8002aae:	005b      	lsls	r3, r3, #1
 8002ab0:	2203      	movs	r2, #3
 8002ab2:	409a      	lsls	r2, r3
 8002ab4:	0013      	movs	r3, r2
 8002ab6:	43da      	mvns	r2, r3
 8002ab8:	693b      	ldr	r3, [r7, #16]
 8002aba:	4013      	ands	r3, r2
 8002abc:	613b      	str	r3, [r7, #16]
      temp |= ((GPIO_Init->Pull) << (position * 2u));
 8002abe:	683b      	ldr	r3, [r7, #0]
 8002ac0:	689a      	ldr	r2, [r3, #8]
 8002ac2:	697b      	ldr	r3, [r7, #20]
 8002ac4:	005b      	lsls	r3, r3, #1
 8002ac6:	409a      	lsls	r2, r3
 8002ac8:	0013      	movs	r3, r2
 8002aca:	693a      	ldr	r2, [r7, #16]
 8002acc:	4313      	orrs	r3, r2
 8002ace:	613b      	str	r3, [r7, #16]
      GPIOx->PUPDR = temp;
 8002ad0:	687b      	ldr	r3, [r7, #4]
 8002ad2:	693a      	ldr	r2, [r7, #16]
 8002ad4:	60da      	str	r2, [r3, #12]

      /*--------------------- EXTI Mode Configuration ------------------------*/
      /* Configure the External Interrupt or event for the current IO */
      if((GPIO_Init->Mode & EXTI_MODE) == EXTI_MODE)
 8002ad6:	683b      	ldr	r3, [r7, #0]
 8002ad8:	685a      	ldr	r2, [r3, #4]
 8002ada:	2380      	movs	r3, #128	; 0x80
 8002adc:	055b      	lsls	r3, r3, #21
 8002ade:	4013      	ands	r3, r2
 8002ae0:	d100      	bne.n	8002ae4 <HAL_GPIO_Init+0x174>
 8002ae2:	e09a      	b.n	8002c1a <HAL_GPIO_Init+0x2aa>
      {
        /* Enable SYSCFG Clock */
        __HAL_RCC_SYSCFG_CLK_ENABLE();
 8002ae4:	4b54      	ldr	r3, [pc, #336]	; (8002c38 <HAL_GPIO_Init+0x2c8>)
 8002ae6:	699a      	ldr	r2, [r3, #24]
 8002ae8:	4b53      	ldr	r3, [pc, #332]	; (8002c38 <HAL_GPIO_Init+0x2c8>)
 8002aea:	2101      	movs	r1, #1
 8002aec:	430a      	orrs	r2, r1
 8002aee:	619a      	str	r2, [r3, #24]
 8002af0:	4b51      	ldr	r3, [pc, #324]	; (8002c38 <HAL_GPIO_Init+0x2c8>)
 8002af2:	699b      	ldr	r3, [r3, #24]
 8002af4:	2201      	movs	r2, #1
 8002af6:	4013      	ands	r3, r2
 8002af8:	60bb      	str	r3, [r7, #8]
 8002afa:	68bb      	ldr	r3, [r7, #8]

        temp = SYSCFG->EXTICR[position >> 2u];
 8002afc:	4a4f      	ldr	r2, [pc, #316]	; (8002c3c <HAL_GPIO_Init+0x2cc>)
 8002afe:	697b      	ldr	r3, [r7, #20]
 8002b00:	089b      	lsrs	r3, r3, #2
 8002b02:	3302      	adds	r3, #2
 8002b04:	009b      	lsls	r3, r3, #2
 8002b06:	589b      	ldr	r3, [r3, r2]
 8002b08:	613b      	str	r3, [r7, #16]
        temp &= ~(0x0FuL << (4u * (position & 0x03u)));
 8002b0a:	697b      	ldr	r3, [r7, #20]
 8002b0c:	2203      	movs	r2, #3
 8002b0e:	4013      	ands	r3, r2
 8002b10:	009b      	lsls	r3, r3, #2
 8002b12:	220f      	movs	r2, #15
 8002b14:	409a      	lsls	r2, r3
 8002b16:	0013      	movs	r3, r2
 8002b18:	43da      	mvns	r2, r3
 8002b1a:	693b      	ldr	r3, [r7, #16]
 8002b1c:	4013      	ands	r3, r2
 8002b1e:	613b      	str	r3, [r7, #16]
        temp |= (GPIO_GET_INDEX(GPIOx) << (4u * (position & 0x03u)));
 8002b20:	687a      	ldr	r2, [r7, #4]
 8002b22:	2390      	movs	r3, #144	; 0x90
 8002b24:	05db      	lsls	r3, r3, #23
 8002b26:	429a      	cmp	r2, r3
 8002b28:	d013      	beq.n	8002b52 <HAL_GPIO_Init+0x1e2>
 8002b2a:	687b      	ldr	r3, [r7, #4]
 8002b2c:	4a44      	ldr	r2, [pc, #272]	; (8002c40 <HAL_GPIO_Init+0x2d0>)
 8002b2e:	4293      	cmp	r3, r2
 8002b30:	d00d      	beq.n	8002b4e <HAL_GPIO_Init+0x1de>
 8002b32:	687b      	ldr	r3, [r7, #4]
 8002b34:	4a43      	ldr	r2, [pc, #268]	; (8002c44 <HAL_GPIO_Init+0x2d4>)
 8002b36:	4293      	cmp	r3, r2
 8002b38:	d007      	beq.n	8002b4a <HAL_GPIO_Init+0x1da>
 8002b3a:	687b      	ldr	r3, [r7, #4]
 8002b3c:	4a42      	ldr	r2, [pc, #264]	; (8002c48 <HAL_GPIO_Init+0x2d8>)
 8002b3e:	4293      	cmp	r3, r2
 8002b40:	d101      	bne.n	8002b46 <HAL_GPIO_Init+0x1d6>
 8002b42:	2303      	movs	r3, #3
 8002b44:	e006      	b.n	8002b54 <HAL_GPIO_Init+0x1e4>
 8002b46:	2305      	movs	r3, #5
 8002b48:	e004      	b.n	8002b54 <HAL_GPIO_Init+0x1e4>
 8002b4a:	2302      	movs	r3, #2
 8002b4c:	e002      	b.n	8002b54 <HAL_GPIO_Init+0x1e4>
 8002b4e:	2301      	movs	r3, #1
 8002b50:	e000      	b.n	8002b54 <HAL_GPIO_Init+0x1e4>
 8002b52:	2300      	movs	r3, #0
 8002b54:	697a      	ldr	r2, [r7, #20]
 8002b56:	2103      	movs	r1, #3
 8002b58:	400a      	ands	r2, r1
 8002b5a:	0092      	lsls	r2, r2, #2
 8002b5c:	4093      	lsls	r3, r2
 8002b5e:	693a      	ldr	r2, [r7, #16]
 8002b60:	4313      	orrs	r3, r2
 8002b62:	613b      	str	r3, [r7, #16]
        SYSCFG->EXTICR[position >> 2u] = temp;
 8002b64:	4935      	ldr	r1, [pc, #212]	; (8002c3c <HAL_GPIO_Init+0x2cc>)
 8002b66:	697b      	ldr	r3, [r7, #20]
 8002b68:	089b      	lsrs	r3, r3, #2
 8002b6a:	3302      	adds	r3, #2
 8002b6c:	009b      	lsls	r3, r3, #2
 8002b6e:	693a      	ldr	r2, [r7, #16]
 8002b70:	505a      	str	r2, [r3, r1]

        /* Clear EXTI line configuration */
        temp = EXTI->IMR;
 8002b72:	4b36      	ldr	r3, [pc, #216]	; (8002c4c <HAL_GPIO_Init+0x2dc>)
 8002b74:	681b      	ldr	r3, [r3, #0]
 8002b76:	613b      	str	r3, [r7, #16]
        temp &= ~(iocurrent);
 8002b78:	68fb      	ldr	r3, [r7, #12]
 8002b7a:	43da      	mvns	r2, r3
 8002b7c:	693b      	ldr	r3, [r7, #16]
 8002b7e:	4013      	ands	r3, r2
 8002b80:	613b      	str	r3, [r7, #16]
        if((GPIO_Init->Mode & GPIO_MODE_IT) == GPIO_MODE_IT)
 8002b82:	683b      	ldr	r3, [r7, #0]
 8002b84:	685a      	ldr	r2, [r3, #4]
 8002b86:	2380      	movs	r3, #128	; 0x80
 8002b88:	025b      	lsls	r3, r3, #9
 8002b8a:	4013      	ands	r3, r2
 8002b8c:	d003      	beq.n	8002b96 <HAL_GPIO_Init+0x226>
        {
          temp |= iocurrent;
 8002b8e:	693a      	ldr	r2, [r7, #16]
 8002b90:	68fb      	ldr	r3, [r7, #12]
 8002b92:	4313      	orrs	r3, r2
 8002b94:	613b      	str	r3, [r7, #16]
        }
        EXTI->IMR = temp;
 8002b96:	4b2d      	ldr	r3, [pc, #180]	; (8002c4c <HAL_GPIO_Init+0x2dc>)
 8002b98:	693a      	ldr	r2, [r7, #16]
 8002b9a:	601a      	str	r2, [r3, #0]

        temp = EXTI->EMR;
 8002b9c:	4b2b      	ldr	r3, [pc, #172]	; (8002c4c <HAL_GPIO_Init+0x2dc>)
 8002b9e:	685b      	ldr	r3, [r3, #4]
 8002ba0:	613b      	str	r3, [r7, #16]
        temp &= ~(iocurrent);
 8002ba2:	68fb      	ldr	r3, [r7, #12]
 8002ba4:	43da      	mvns	r2, r3
 8002ba6:	693b      	ldr	r3, [r7, #16]
 8002ba8:	4013      	ands	r3, r2
 8002baa:	613b      	str	r3, [r7, #16]
        if((GPIO_Init->Mode & GPIO_MODE_EVT) == GPIO_MODE_EVT)
 8002bac:	683b      	ldr	r3, [r7, #0]
 8002bae:	685a      	ldr	r2, [r3, #4]
 8002bb0:	2380      	movs	r3, #128	; 0x80
 8002bb2:	029b      	lsls	r3, r3, #10
 8002bb4:	4013      	ands	r3, r2
 8002bb6:	d003      	beq.n	8002bc0 <HAL_GPIO_Init+0x250>
        {
          temp |= iocurrent;
 8002bb8:	693a      	ldr	r2, [r7, #16]
 8002bba:	68fb      	ldr	r3, [r7, #12]
 8002bbc:	4313      	orrs	r3, r2
 8002bbe:	613b      	str	r3, [r7, #16]
        }
        EXTI->EMR = temp;
 8002bc0:	4b22      	ldr	r3, [pc, #136]	; (8002c4c <HAL_GPIO_Init+0x2dc>)
 8002bc2:	693a      	ldr	r2, [r7, #16]
 8002bc4:	605a      	str	r2, [r3, #4]

        /* Clear Rising Falling edge configuration */
        temp = EXTI->RTSR;
 8002bc6:	4b21      	ldr	r3, [pc, #132]	; (8002c4c <HAL_GPIO_Init+0x2dc>)
 8002bc8:	689b      	ldr	r3, [r3, #8]
 8002bca:	613b      	str	r3, [r7, #16]
        temp &= ~(iocurrent);
 8002bcc:	68fb      	ldr	r3, [r7, #12]
 8002bce:	43da      	mvns	r2, r3
 8002bd0:	693b      	ldr	r3, [r7, #16]
 8002bd2:	4013      	ands	r3, r2
 8002bd4:	613b      	str	r3, [r7, #16]
        if((GPIO_Init->Mode & RISING_EDGE) == RISING_EDGE)
 8002bd6:	683b      	ldr	r3, [r7, #0]
 8002bd8:	685a      	ldr	r2, [r3, #4]
 8002bda:	2380      	movs	r3, #128	; 0x80
 8002bdc:	035b      	lsls	r3, r3, #13
 8002bde:	4013      	ands	r3, r2
 8002be0:	d003      	beq.n	8002bea <HAL_GPIO_Init+0x27a>
        {
          temp |= iocurrent;
 8002be2:	693a      	ldr	r2, [r7, #16]
 8002be4:	68fb      	ldr	r3, [r7, #12]
 8002be6:	4313      	orrs	r3, r2
 8002be8:	613b      	str	r3, [r7, #16]
        }
        EXTI->RTSR = temp;
 8002bea:	4b18      	ldr	r3, [pc, #96]	; (8002c4c <HAL_GPIO_Init+0x2dc>)
 8002bec:	693a      	ldr	r2, [r7, #16]
 8002bee:	609a      	str	r2, [r3, #8]

        temp = EXTI->FTSR;
 8002bf0:	4b16      	ldr	r3, [pc, #88]	; (8002c4c <HAL_GPIO_Init+0x2dc>)
 8002bf2:	68db      	ldr	r3, [r3, #12]
 8002bf4:	613b      	str	r3, [r7, #16]
        temp &= ~(iocurrent);
 8002bf6:	68fb      	ldr	r3, [r7, #12]
 8002bf8:	43da      	mvns	r2, r3
 8002bfa:	693b      	ldr	r3, [r7, #16]
 8002bfc:	4013      	ands	r3, r2
 8002bfe:	613b      	str	r3, [r7, #16]
        if((GPIO_Init->Mode & FALLING_EDGE) == FALLING_EDGE)
 8002c00:	683b      	ldr	r3, [r7, #0]
 8002c02:	685a      	ldr	r2, [r3, #4]
 8002c04:	2380      	movs	r3, #128	; 0x80
 8002c06:	039b      	lsls	r3, r3, #14
 8002c08:	4013      	ands	r3, r2
 8002c0a:	d003      	beq.n	8002c14 <HAL_GPIO_Init+0x2a4>
        {
          temp |= iocurrent;
 8002c0c:	693a      	ldr	r2, [r7, #16]
 8002c0e:	68fb      	ldr	r3, [r7, #12]
 8002c10:	4313      	orrs	r3, r2
 8002c12:	613b      	str	r3, [r7, #16]
        }
        EXTI->FTSR = temp;
 8002c14:	4b0d      	ldr	r3, [pc, #52]	; (8002c4c <HAL_GPIO_Init+0x2dc>)
 8002c16:	693a      	ldr	r2, [r7, #16]
 8002c18:	60da      	str	r2, [r3, #12]
      }
    }

    position++;
 8002c1a:	697b      	ldr	r3, [r7, #20]
 8002c1c:	3301      	adds	r3, #1
 8002c1e:	617b      	str	r3, [r7, #20]
  while (((GPIO_Init->Pin) >> position) != 0x00u)
 8002c20:	683b      	ldr	r3, [r7, #0]
 8002c22:	681a      	ldr	r2, [r3, #0]
 8002c24:	697b      	ldr	r3, [r7, #20]
 8002c26:	40da      	lsrs	r2, r3
 8002c28:	1e13      	subs	r3, r2, #0
 8002c2a:	d000      	beq.n	8002c2e <HAL_GPIO_Init+0x2be>
 8002c2c:	e6a8      	b.n	8002980 <HAL_GPIO_Init+0x10>
  } 
}
 8002c2e:	46c0      	nop			; (mov r8, r8)
 8002c30:	46bd      	mov	sp, r7
 8002c32:	b006      	add	sp, #24
 8002c34:	bd80      	pop	{r7, pc}
 8002c36:	46c0      	nop			; (mov r8, r8)
 8002c38:	40021000 	.word	0x40021000
 8002c3c:	40010000 	.word	0x40010000
 8002c40:	48000400 	.word	0x48000400
 8002c44:	48000800 	.word	0x48000800
 8002c48:	48000c00 	.word	0x48000c00
 8002c4c:	40010400 	.word	0x40010400

08002c50 <HAL_RCC_OscConfig>:
  *         supported by this macro. User should request a transition to HSE Off
  *         first and then HSE On or HSE Bypass.
  * @retval HAL status
  */
HAL_StatusTypeDef HAL_RCC_OscConfig(RCC_OscInitTypeDef  *RCC_OscInitStruct)
{
 8002c50:	b580      	push	{r7, lr}
 8002c52:	b088      	sub	sp, #32
 8002c54:	af00      	add	r7, sp, #0
 8002c56:	6078      	str	r0, [r7, #4]
  uint32_t tickstart;
  uint32_t pll_config;
  uint32_t pll_config2;

  /* Check Null pointer */
  if(RCC_OscInitStruct == NULL)
 8002c58:	687b      	ldr	r3, [r7, #4]
 8002c5a:	2b00      	cmp	r3, #0
 8002c5c:	d101      	bne.n	8002c62 <HAL_RCC_OscConfig+0x12>
  {
    return HAL_ERROR;
 8002c5e:	2301      	movs	r3, #1
 8002c60:	e303      	b.n	800326a <HAL_RCC_OscConfig+0x61a>

  /* Check the parameters */
  assert_param(IS_RCC_OSCILLATORTYPE(RCC_OscInitStruct->OscillatorType));

  /*------------------------------- HSE Configuration ------------------------*/ 
  if(((RCC_OscInitStruct->OscillatorType) & RCC_OSCILLATORTYPE_HSE) == RCC_OSCILLATORTYPE_HSE)
 8002c62:	687b      	ldr	r3, [r7, #4]
 8002c64:	681b      	ldr	r3, [r3, #0]
 8002c66:	2201      	movs	r2, #1
 8002c68:	4013      	ands	r3, r2
 8002c6a:	d100      	bne.n	8002c6e <HAL_RCC_OscConfig+0x1e>
 8002c6c:	e08d      	b.n	8002d8a <HAL_RCC_OscConfig+0x13a>
  {
    /* Check the parameters */
    assert_param(IS_RCC_HSE(RCC_OscInitStruct->HSEState));

    /* When the HSE is used as system clock or clock source for PLL in these cases it is not allowed to be disabled */
    if((__HAL_RCC_GET_SYSCLK_SOURCE() == RCC_SYSCLKSOURCE_STATUS_HSE) 
 8002c6e:	4bc4      	ldr	r3, [pc, #784]	; (8002f80 <HAL_RCC_OscConfig+0x330>)
 8002c70:	685b      	ldr	r3, [r3, #4]
 8002c72:	220c      	movs	r2, #12
 8002c74:	4013      	ands	r3, r2
 8002c76:	2b04      	cmp	r3, #4
 8002c78:	d00e      	beq.n	8002c98 <HAL_RCC_OscConfig+0x48>
       || ((__HAL_RCC_GET_SYSCLK_SOURCE() == RCC_SYSCLKSOURCE_STATUS_PLLCLK) && (__HAL_RCC_GET_PLL_OSCSOURCE() == RCC_PLLSOURCE_HSE)))
 8002c7a:	4bc1      	ldr	r3, [pc, #772]	; (8002f80 <HAL_RCC_OscConfig+0x330>)
 8002c7c:	685b      	ldr	r3, [r3, #4]
 8002c7e:	220c      	movs	r2, #12
 8002c80:	4013      	ands	r3, r2
 8002c82:	2b08      	cmp	r3, #8
 8002c84:	d116      	bne.n	8002cb4 <HAL_RCC_OscConfig+0x64>
 8002c86:	4bbe      	ldr	r3, [pc, #760]	; (8002f80 <HAL_RCC_OscConfig+0x330>)
 8002c88:	685a      	ldr	r2, [r3, #4]
 8002c8a:	2380      	movs	r3, #128	; 0x80
 8002c8c:	025b      	lsls	r3, r3, #9
 8002c8e:	401a      	ands	r2, r3
 8002c90:	2380      	movs	r3, #128	; 0x80
 8002c92:	025b      	lsls	r3, r3, #9
 8002c94:	429a      	cmp	r2, r3
 8002c96:	d10d      	bne.n	8002cb4 <HAL_RCC_OscConfig+0x64>
    {
      if((__HAL_RCC_GET_FLAG(RCC_FLAG_HSERDY) != RESET) && (RCC_OscInitStruct->HSEState == RCC_HSE_OFF))
 8002c98:	4bb9      	ldr	r3, [pc, #740]	; (8002f80 <HAL_RCC_OscConfig+0x330>)
 8002c9a:	681a      	ldr	r2, [r3, #0]
 8002c9c:	2380      	movs	r3, #128	; 0x80
 8002c9e:	029b      	lsls	r3, r3, #10
 8002ca0:	4013      	ands	r3, r2
 8002ca2:	d100      	bne.n	8002ca6 <HAL_RCC_OscConfig+0x56>
 8002ca4:	e070      	b.n	8002d88 <HAL_RCC_OscConfig+0x138>
 8002ca6:	687b      	ldr	r3, [r7, #4]
 8002ca8:	685b      	ldr	r3, [r3, #4]
 8002caa:	2b00      	cmp	r3, #0
 8002cac:	d000      	beq.n	8002cb0 <HAL_RCC_OscConfig+0x60>
 8002cae:	e06b      	b.n	8002d88 <HAL_RCC_OscConfig+0x138>
      {
        return HAL_ERROR;
 8002cb0:	2301      	movs	r3, #1
 8002cb2:	e2da      	b.n	800326a <HAL_RCC_OscConfig+0x61a>
      }
    }
    else
    {
      /* Set the new HSE configuration ---------------------------------------*/
      __HAL_RCC_HSE_CONFIG(RCC_OscInitStruct->HSEState);
 8002cb4:	687b      	ldr	r3, [r7, #4]
 8002cb6:	685b      	ldr	r3, [r3, #4]
 8002cb8:	2b01      	cmp	r3, #1
 8002cba:	d107      	bne.n	8002ccc <HAL_RCC_OscConfig+0x7c>
 8002cbc:	4bb0      	ldr	r3, [pc, #704]	; (8002f80 <HAL_RCC_OscConfig+0x330>)
 8002cbe:	681a      	ldr	r2, [r3, #0]
 8002cc0:	4baf      	ldr	r3, [pc, #700]	; (8002f80 <HAL_RCC_OscConfig+0x330>)
 8002cc2:	2180      	movs	r1, #128	; 0x80
 8002cc4:	0249      	lsls	r1, r1, #9
 8002cc6:	430a      	orrs	r2, r1
 8002cc8:	601a      	str	r2, [r3, #0]
 8002cca:	e02f      	b.n	8002d2c <HAL_RCC_OscConfig+0xdc>
 8002ccc:	687b      	ldr	r3, [r7, #4]
 8002cce:	685b      	ldr	r3, [r3, #4]
 8002cd0:	2b00      	cmp	r3, #0
 8002cd2:	d10c      	bne.n	8002cee <HAL_RCC_OscConfig+0x9e>
 8002cd4:	4baa      	ldr	r3, [pc, #680]	; (8002f80 <HAL_RCC_OscConfig+0x330>)
 8002cd6:	681a      	ldr	r2, [r3, #0]
 8002cd8:	4ba9      	ldr	r3, [pc, #676]	; (8002f80 <HAL_RCC_OscConfig+0x330>)
 8002cda:	49aa      	ldr	r1, [pc, #680]	; (8002f84 <HAL_RCC_OscConfig+0x334>)
 8002cdc:	400a      	ands	r2, r1
 8002cde:	601a      	str	r2, [r3, #0]
 8002ce0:	4ba7      	ldr	r3, [pc, #668]	; (8002f80 <HAL_RCC_OscConfig+0x330>)
 8002ce2:	681a      	ldr	r2, [r3, #0]
 8002ce4:	4ba6      	ldr	r3, [pc, #664]	; (8002f80 <HAL_RCC_OscConfig+0x330>)
 8002ce6:	49a8      	ldr	r1, [pc, #672]	; (8002f88 <HAL_RCC_OscConfig+0x338>)
 8002ce8:	400a      	ands	r2, r1
 8002cea:	601a      	str	r2, [r3, #0]
 8002cec:	e01e      	b.n	8002d2c <HAL_RCC_OscConfig+0xdc>
 8002cee:	687b      	ldr	r3, [r7, #4]
 8002cf0:	685b      	ldr	r3, [r3, #4]
 8002cf2:	2b05      	cmp	r3, #5
 8002cf4:	d10e      	bne.n	8002d14 <HAL_RCC_OscConfig+0xc4>
 8002cf6:	4ba2      	ldr	r3, [pc, #648]	; (8002f80 <HAL_RCC_OscConfig+0x330>)
 8002cf8:	681a      	ldr	r2, [r3, #0]
 8002cfa:	4ba1      	ldr	r3, [pc, #644]	; (8002f80 <HAL_RCC_OscConfig+0x330>)
 8002cfc:	2180      	movs	r1, #128	; 0x80
 8002cfe:	02c9      	lsls	r1, r1, #11
 8002d00:	430a      	orrs	r2, r1
 8002d02:	601a      	str	r2, [r3, #0]
 8002d04:	4b9e      	ldr	r3, [pc, #632]	; (8002f80 <HAL_RCC_OscConfig+0x330>)
 8002d06:	681a      	ldr	r2, [r3, #0]
 8002d08:	4b9d      	ldr	r3, [pc, #628]	; (8002f80 <HAL_RCC_OscConfig+0x330>)
 8002d0a:	2180      	movs	r1, #128	; 0x80
 8002d0c:	0249      	lsls	r1, r1, #9
 8002d0e:	430a      	orrs	r2, r1
 8002d10:	601a      	str	r2, [r3, #0]
 8002d12:	e00b      	b.n	8002d2c <HAL_RCC_OscConfig+0xdc>
 8002d14:	4b9a      	ldr	r3, [pc, #616]	; (8002f80 <HAL_RCC_OscConfig+0x330>)
 8002d16:	681a      	ldr	r2, [r3, #0]
 8002d18:	4b99      	ldr	r3, [pc, #612]	; (8002f80 <HAL_RCC_OscConfig+0x330>)
 8002d1a:	499a      	ldr	r1, [pc, #616]	; (8002f84 <HAL_RCC_OscConfig+0x334>)
 8002d1c:	400a      	ands	r2, r1
 8002d1e:	601a      	str	r2, [r3, #0]
 8002d20:	4b97      	ldr	r3, [pc, #604]	; (8002f80 <HAL_RCC_OscConfig+0x330>)
 8002d22:	681a      	ldr	r2, [r3, #0]
 8002d24:	4b96      	ldr	r3, [pc, #600]	; (8002f80 <HAL_RCC_OscConfig+0x330>)
 8002d26:	4998      	ldr	r1, [pc, #608]	; (8002f88 <HAL_RCC_OscConfig+0x338>)
 8002d28:	400a      	ands	r2, r1
 8002d2a:	601a      	str	r2, [r3, #0]
      

       /* Check the HSE State */
      if(RCC_OscInitStruct->HSEState != RCC_HSE_OFF)
 8002d2c:	687b      	ldr	r3, [r7, #4]
 8002d2e:	685b      	ldr	r3, [r3, #4]
 8002d30:	2b00      	cmp	r3, #0
 8002d32:	d014      	beq.n	8002d5e <HAL_RCC_OscConfig+0x10e>
      {
        /* Get Start Tick */
        tickstart = HAL_GetTick();
 8002d34:	f7ff fd3c 	bl	80027b0 <HAL_GetTick>
 8002d38:	0003      	movs	r3, r0
 8002d3a:	61bb      	str	r3, [r7, #24]
        
        /* Wait till HSE is ready */
        while(__HAL_RCC_GET_FLAG(RCC_FLAG_HSERDY) == RESET)
 8002d3c:	e008      	b.n	8002d50 <HAL_RCC_OscConfig+0x100>
        {
          if((HAL_GetTick() - tickstart ) > HSE_TIMEOUT_VALUE)
 8002d3e:	f7ff fd37 	bl	80027b0 <HAL_GetTick>
 8002d42:	0002      	movs	r2, r0
 8002d44:	69bb      	ldr	r3, [r7, #24]
 8002d46:	1ad3      	subs	r3, r2, r3
 8002d48:	2b64      	cmp	r3, #100	; 0x64
 8002d4a:	d901      	bls.n	8002d50 <HAL_RCC_OscConfig+0x100>
          {
            return HAL_TIMEOUT;
 8002d4c:	2303      	movs	r3, #3
 8002d4e:	e28c      	b.n	800326a <HAL_RCC_OscConfig+0x61a>
        while(__HAL_RCC_GET_FLAG(RCC_FLAG_HSERDY) == RESET)
 8002d50:	4b8b      	ldr	r3, [pc, #556]	; (8002f80 <HAL_RCC_OscConfig+0x330>)
 8002d52:	681a      	ldr	r2, [r3, #0]
 8002d54:	2380      	movs	r3, #128	; 0x80
 8002d56:	029b      	lsls	r3, r3, #10
 8002d58:	4013      	ands	r3, r2
 8002d5a:	d0f0      	beq.n	8002d3e <HAL_RCC_OscConfig+0xee>
 8002d5c:	e015      	b.n	8002d8a <HAL_RCC_OscConfig+0x13a>
        }
      }
      else
      {
        /* Get Start Tick */
        tickstart = HAL_GetTick();
 8002d5e:	f7ff fd27 	bl	80027b0 <HAL_GetTick>
 8002d62:	0003      	movs	r3, r0
 8002d64:	61bb      	str	r3, [r7, #24]
        
        /* Wait till HSE is disabled */
        while(__HAL_RCC_GET_FLAG(RCC_FLAG_HSERDY) != RESET)
 8002d66:	e008      	b.n	8002d7a <HAL_RCC_OscConfig+0x12a>
        {
           if((HAL_GetTick() - tickstart ) > HSE_TIMEOUT_VALUE)
 8002d68:	f7ff fd22 	bl	80027b0 <HAL_GetTick>
 8002d6c:	0002      	movs	r2, r0
 8002d6e:	69bb      	ldr	r3, [r7, #24]
 8002d70:	1ad3      	subs	r3, r2, r3
 8002d72:	2b64      	cmp	r3, #100	; 0x64
 8002d74:	d901      	bls.n	8002d7a <HAL_RCC_OscConfig+0x12a>
          {
            return HAL_TIMEOUT;
 8002d76:	2303      	movs	r3, #3
 8002d78:	e277      	b.n	800326a <HAL_RCC_OscConfig+0x61a>
        while(__HAL_RCC_GET_FLAG(RCC_FLAG_HSERDY) != RESET)
 8002d7a:	4b81      	ldr	r3, [pc, #516]	; (8002f80 <HAL_RCC_OscConfig+0x330>)
 8002d7c:	681a      	ldr	r2, [r3, #0]
 8002d7e:	2380      	movs	r3, #128	; 0x80
 8002d80:	029b      	lsls	r3, r3, #10
 8002d82:	4013      	ands	r3, r2
 8002d84:	d1f0      	bne.n	8002d68 <HAL_RCC_OscConfig+0x118>
 8002d86:	e000      	b.n	8002d8a <HAL_RCC_OscConfig+0x13a>
      if((__HAL_RCC_GET_FLAG(RCC_FLAG_HSERDY) != RESET) && (RCC_OscInitStruct->HSEState == RCC_HSE_OFF))
 8002d88:	46c0      	nop			; (mov r8, r8)
        }
      }
    }
  }
  /*----------------------------- HSI Configuration --------------------------*/ 
  if(((RCC_OscInitStruct->OscillatorType) & RCC_OSCILLATORTYPE_HSI) == RCC_OSCILLATORTYPE_HSI)
 8002d8a:	687b      	ldr	r3, [r7, #4]
 8002d8c:	681b      	ldr	r3, [r3, #0]
 8002d8e:	2202      	movs	r2, #2
 8002d90:	4013      	ands	r3, r2
 8002d92:	d100      	bne.n	8002d96 <HAL_RCC_OscConfig+0x146>
 8002d94:	e069      	b.n	8002e6a <HAL_RCC_OscConfig+0x21a>
    /* Check the parameters */
    assert_param(IS_RCC_HSI(RCC_OscInitStruct->HSIState));
    assert_param(IS_RCC_CALIBRATION_VALUE(RCC_OscInitStruct->HSICalibrationValue));
    
    /* Check if HSI is used as system clock or as PLL source when PLL is selected as system clock */ 
    if((__HAL_RCC_GET_SYSCLK_SOURCE() == RCC_SYSCLKSOURCE_STATUS_HSI) 
 8002d96:	4b7a      	ldr	r3, [pc, #488]	; (8002f80 <HAL_RCC_OscConfig+0x330>)
 8002d98:	685b      	ldr	r3, [r3, #4]
 8002d9a:	220c      	movs	r2, #12
 8002d9c:	4013      	ands	r3, r2
 8002d9e:	d00b      	beq.n	8002db8 <HAL_RCC_OscConfig+0x168>
       || ((__HAL_RCC_GET_SYSCLK_SOURCE() == RCC_SYSCLKSOURCE_STATUS_PLLCLK) && (__HAL_RCC_GET_PLL_OSCSOURCE() == RCC_PLLSOURCE_HSI)))
 8002da0:	4b77      	ldr	r3, [pc, #476]	; (8002f80 <HAL_RCC_OscConfig+0x330>)
 8002da2:	685b      	ldr	r3, [r3, #4]
 8002da4:	220c      	movs	r2, #12
 8002da6:	4013      	ands	r3, r2
 8002da8:	2b08      	cmp	r3, #8
 8002daa:	d11c      	bne.n	8002de6 <HAL_RCC_OscConfig+0x196>
 8002dac:	4b74      	ldr	r3, [pc, #464]	; (8002f80 <HAL_RCC_OscConfig+0x330>)
 8002dae:	685a      	ldr	r2, [r3, #4]
 8002db0:	2380      	movs	r3, #128	; 0x80
 8002db2:	025b      	lsls	r3, r3, #9
 8002db4:	4013      	ands	r3, r2
 8002db6:	d116      	bne.n	8002de6 <HAL_RCC_OscConfig+0x196>
    {
      /* When HSI is used as system clock it will not disabled */
      if((__HAL_RCC_GET_FLAG(RCC_FLAG_HSIRDY) != RESET) && (RCC_OscInitStruct->HSIState != RCC_HSI_ON))
 8002db8:	4b71      	ldr	r3, [pc, #452]	; (8002f80 <HAL_RCC_OscConfig+0x330>)
 8002dba:	681b      	ldr	r3, [r3, #0]
 8002dbc:	2202      	movs	r2, #2
 8002dbe:	4013      	ands	r3, r2
 8002dc0:	d005      	beq.n	8002dce <HAL_RCC_OscConfig+0x17e>
 8002dc2:	687b      	ldr	r3, [r7, #4]
 8002dc4:	68db      	ldr	r3, [r3, #12]
 8002dc6:	2b01      	cmp	r3, #1
 8002dc8:	d001      	beq.n	8002dce <HAL_RCC_OscConfig+0x17e>
      {
        return HAL_ERROR;
 8002dca:	2301      	movs	r3, #1
 8002dcc:	e24d      	b.n	800326a <HAL_RCC_OscConfig+0x61a>
      }
      /* Otherwise, just the calibration is allowed */
      else
      {
        /* Adjusts the Internal High Speed oscillator (HSI) calibration value.*/
        __HAL_RCC_HSI_CALIBRATIONVALUE_ADJUST(RCC_OscInitStruct->HSICalibrationValue);
 8002dce:	4b6c      	ldr	r3, [pc, #432]	; (8002f80 <HAL_RCC_OscConfig+0x330>)
 8002dd0:	681b      	ldr	r3, [r3, #0]
 8002dd2:	22f8      	movs	r2, #248	; 0xf8
 8002dd4:	4393      	bics	r3, r2
 8002dd6:	0019      	movs	r1, r3
 8002dd8:	687b      	ldr	r3, [r7, #4]
 8002dda:	691b      	ldr	r3, [r3, #16]
 8002ddc:	00da      	lsls	r2, r3, #3
 8002dde:	4b68      	ldr	r3, [pc, #416]	; (8002f80 <HAL_RCC_OscConfig+0x330>)
 8002de0:	430a      	orrs	r2, r1
 8002de2:	601a      	str	r2, [r3, #0]
      if((__HAL_RCC_GET_FLAG(RCC_FLAG_HSIRDY) != RESET) && (RCC_OscInitStruct->HSIState != RCC_HSI_ON))
 8002de4:	e041      	b.n	8002e6a <HAL_RCC_OscConfig+0x21a>
      }
    }
    else
    {
      /* Check the HSI State */
      if(RCC_OscInitStruct->HSIState != RCC_HSI_OFF)
 8002de6:	687b      	ldr	r3, [r7, #4]
 8002de8:	68db      	ldr	r3, [r3, #12]
 8002dea:	2b00      	cmp	r3, #0
 8002dec:	d024      	beq.n	8002e38 <HAL_RCC_OscConfig+0x1e8>
      {
       /* Enable the Internal High Speed oscillator (HSI). */
        __HAL_RCC_HSI_ENABLE();
 8002dee:	4b64      	ldr	r3, [pc, #400]	; (8002f80 <HAL_RCC_OscConfig+0x330>)
 8002df0:	681a      	ldr	r2, [r3, #0]
 8002df2:	4b63      	ldr	r3, [pc, #396]	; (8002f80 <HAL_RCC_OscConfig+0x330>)
 8002df4:	2101      	movs	r1, #1
 8002df6:	430a      	orrs	r2, r1
 8002df8:	601a      	str	r2, [r3, #0]
        
        /* Get Start Tick */
        tickstart = HAL_GetTick();
 8002dfa:	f7ff fcd9 	bl	80027b0 <HAL_GetTick>
 8002dfe:	0003      	movs	r3, r0
 8002e00:	61bb      	str	r3, [r7, #24]
        
        /* Wait till HSI is ready */
        while(__HAL_RCC_GET_FLAG(RCC_FLAG_HSIRDY) == RESET)
 8002e02:	e008      	b.n	8002e16 <HAL_RCC_OscConfig+0x1c6>
        {
          if((HAL_GetTick() - tickstart ) > HSI_TIMEOUT_VALUE)
 8002e04:	f7ff fcd4 	bl	80027b0 <HAL_GetTick>
 8002e08:	0002      	movs	r2, r0
 8002e0a:	69bb      	ldr	r3, [r7, #24]
 8002e0c:	1ad3      	subs	r3, r2, r3
 8002e0e:	2b02      	cmp	r3, #2
 8002e10:	d901      	bls.n	8002e16 <HAL_RCC_OscConfig+0x1c6>
          {
            return HAL_TIMEOUT;
 8002e12:	2303      	movs	r3, #3
 8002e14:	e229      	b.n	800326a <HAL_RCC_OscConfig+0x61a>
        while(__HAL_RCC_GET_FLAG(RCC_FLAG_HSIRDY) == RESET)
 8002e16:	4b5a      	ldr	r3, [pc, #360]	; (8002f80 <HAL_RCC_OscConfig+0x330>)
 8002e18:	681b      	ldr	r3, [r3, #0]
 8002e1a:	2202      	movs	r2, #2
 8002e1c:	4013      	ands	r3, r2
 8002e1e:	d0f1      	beq.n	8002e04 <HAL_RCC_OscConfig+0x1b4>
          }
        }
                
        /* Adjusts the Internal High Speed oscillator (HSI) calibration value.*/
        __HAL_RCC_HSI_CALIBRATIONVALUE_ADJUST(RCC_OscInitStruct->HSICalibrationValue);
 8002e20:	4b57      	ldr	r3, [pc, #348]	; (8002f80 <HAL_RCC_OscConfig+0x330>)
 8002e22:	681b      	ldr	r3, [r3, #0]
 8002e24:	22f8      	movs	r2, #248	; 0xf8
 8002e26:	4393      	bics	r3, r2
 8002e28:	0019      	movs	r1, r3
 8002e2a:	687b      	ldr	r3, [r7, #4]
 8002e2c:	691b      	ldr	r3, [r3, #16]
 8002e2e:	00da      	lsls	r2, r3, #3
 8002e30:	4b53      	ldr	r3, [pc, #332]	; (8002f80 <HAL_RCC_OscConfig+0x330>)
 8002e32:	430a      	orrs	r2, r1
 8002e34:	601a      	str	r2, [r3, #0]
 8002e36:	e018      	b.n	8002e6a <HAL_RCC_OscConfig+0x21a>
      }
      else
      {
        /* Disable the Internal High Speed oscillator (HSI). */
        __HAL_RCC_HSI_DISABLE();
 8002e38:	4b51      	ldr	r3, [pc, #324]	; (8002f80 <HAL_RCC_OscConfig+0x330>)
 8002e3a:	681a      	ldr	r2, [r3, #0]
 8002e3c:	4b50      	ldr	r3, [pc, #320]	; (8002f80 <HAL_RCC_OscConfig+0x330>)
 8002e3e:	2101      	movs	r1, #1
 8002e40:	438a      	bics	r2, r1
 8002e42:	601a      	str	r2, [r3, #0]
        
        /* Get Start Tick */
        tickstart = HAL_GetTick();
 8002e44:	f7ff fcb4 	bl	80027b0 <HAL_GetTick>
 8002e48:	0003      	movs	r3, r0
 8002e4a:	61bb      	str	r3, [r7, #24]
        
        /* Wait till HSI is disabled */
        while(__HAL_RCC_GET_FLAG(RCC_FLAG_HSIRDY) != RESET)
 8002e4c:	e008      	b.n	8002e60 <HAL_RCC_OscConfig+0x210>
        {
          if((HAL_GetTick() - tickstart ) > HSI_TIMEOUT_VALUE)
 8002e4e:	f7ff fcaf 	bl	80027b0 <HAL_GetTick>
 8002e52:	0002      	movs	r2, r0
 8002e54:	69bb      	ldr	r3, [r7, #24]
 8002e56:	1ad3      	subs	r3, r2, r3
 8002e58:	2b02      	cmp	r3, #2
 8002e5a:	d901      	bls.n	8002e60 <HAL_RCC_OscConfig+0x210>
          {
            return HAL_TIMEOUT;
 8002e5c:	2303      	movs	r3, #3
 8002e5e:	e204      	b.n	800326a <HAL_RCC_OscConfig+0x61a>
        while(__HAL_RCC_GET_FLAG(RCC_FLAG_HSIRDY) != RESET)
 8002e60:	4b47      	ldr	r3, [pc, #284]	; (8002f80 <HAL_RCC_OscConfig+0x330>)
 8002e62:	681b      	ldr	r3, [r3, #0]
 8002e64:	2202      	movs	r2, #2
 8002e66:	4013      	ands	r3, r2
 8002e68:	d1f1      	bne.n	8002e4e <HAL_RCC_OscConfig+0x1fe>
        }
      }
    }
  }
  /*------------------------------ LSI Configuration -------------------------*/ 
  if(((RCC_OscInitStruct->OscillatorType) & RCC_OSCILLATORTYPE_LSI) == RCC_OSCILLATORTYPE_LSI)
 8002e6a:	687b      	ldr	r3, [r7, #4]
 8002e6c:	681b      	ldr	r3, [r3, #0]
 8002e6e:	2208      	movs	r2, #8
 8002e70:	4013      	ands	r3, r2
 8002e72:	d036      	beq.n	8002ee2 <HAL_RCC_OscConfig+0x292>
  {
    /* Check the parameters */
    assert_param(IS_RCC_LSI(RCC_OscInitStruct->LSIState));
    
    /* Check the LSI State */
    if(RCC_OscInitStruct->LSIState != RCC_LSI_OFF)
 8002e74:	687b      	ldr	r3, [r7, #4]
 8002e76:	69db      	ldr	r3, [r3, #28]
 8002e78:	2b00      	cmp	r3, #0
 8002e7a:	d019      	beq.n	8002eb0 <HAL_RCC_OscConfig+0x260>
    {
      /* Enable the Internal Low Speed oscillator (LSI). */
      __HAL_RCC_LSI_ENABLE();
 8002e7c:	4b40      	ldr	r3, [pc, #256]	; (8002f80 <HAL_RCC_OscConfig+0x330>)
 8002e7e:	6a5a      	ldr	r2, [r3, #36]	; 0x24
 8002e80:	4b3f      	ldr	r3, [pc, #252]	; (8002f80 <HAL_RCC_OscConfig+0x330>)
 8002e82:	2101      	movs	r1, #1
 8002e84:	430a      	orrs	r2, r1
 8002e86:	625a      	str	r2, [r3, #36]	; 0x24
      
      /* Get Start Tick */
      tickstart = HAL_GetTick();
 8002e88:	f7ff fc92 	bl	80027b0 <HAL_GetTick>
 8002e8c:	0003      	movs	r3, r0
 8002e8e:	61bb      	str	r3, [r7, #24]
      
      /* Wait till LSI is ready */  
      while(__HAL_RCC_GET_FLAG(RCC_FLAG_LSIRDY) == RESET)
 8002e90:	e008      	b.n	8002ea4 <HAL_RCC_OscConfig+0x254>
      {
        if((HAL_GetTick() - tickstart ) > LSI_TIMEOUT_VALUE)
 8002e92:	f7ff fc8d 	bl	80027b0 <HAL_GetTick>
 8002e96:	0002      	movs	r2, r0
 8002e98:	69bb      	ldr	r3, [r7, #24]
 8002e9a:	1ad3      	subs	r3, r2, r3
 8002e9c:	2b02      	cmp	r3, #2
 8002e9e:	d901      	bls.n	8002ea4 <HAL_RCC_OscConfig+0x254>
        {
          return HAL_TIMEOUT;
 8002ea0:	2303      	movs	r3, #3
 8002ea2:	e1e2      	b.n	800326a <HAL_RCC_OscConfig+0x61a>
      while(__HAL_RCC_GET_FLAG(RCC_FLAG_LSIRDY) == RESET)
 8002ea4:	4b36      	ldr	r3, [pc, #216]	; (8002f80 <HAL_RCC_OscConfig+0x330>)
 8002ea6:	6a5b      	ldr	r3, [r3, #36]	; 0x24
 8002ea8:	2202      	movs	r2, #2
 8002eaa:	4013      	ands	r3, r2
 8002eac:	d0f1      	beq.n	8002e92 <HAL_RCC_OscConfig+0x242>
 8002eae:	e018      	b.n	8002ee2 <HAL_RCC_OscConfig+0x292>
      }
    }
    else
    {
      /* Disable the Internal Low Speed oscillator (LSI). */
      __HAL_RCC_LSI_DISABLE();
 8002eb0:	4b33      	ldr	r3, [pc, #204]	; (8002f80 <HAL_RCC_OscConfig+0x330>)
 8002eb2:	6a5a      	ldr	r2, [r3, #36]	; 0x24
 8002eb4:	4b32      	ldr	r3, [pc, #200]	; (8002f80 <HAL_RCC_OscConfig+0x330>)
 8002eb6:	2101      	movs	r1, #1
 8002eb8:	438a      	bics	r2, r1
 8002eba:	625a      	str	r2, [r3, #36]	; 0x24
      
      /* Get Start Tick */
      tickstart = HAL_GetTick();
 8002ebc:	f7ff fc78 	bl	80027b0 <HAL_GetTick>
 8002ec0:	0003      	movs	r3, r0
 8002ec2:	61bb      	str	r3, [r7, #24]
      
      /* Wait till LSI is disabled */  
      while(__HAL_RCC_GET_FLAG(RCC_FLAG_LSIRDY) != RESET)
 8002ec4:	e008      	b.n	8002ed8 <HAL_RCC_OscConfig+0x288>
      {
        if((HAL_GetTick() - tickstart ) > LSI_TIMEOUT_VALUE)
 8002ec6:	f7ff fc73 	bl	80027b0 <HAL_GetTick>
 8002eca:	0002      	movs	r2, r0
 8002ecc:	69bb      	ldr	r3, [r7, #24]
 8002ece:	1ad3      	subs	r3, r2, r3
 8002ed0:	2b02      	cmp	r3, #2
 8002ed2:	d901      	bls.n	8002ed8 <HAL_RCC_OscConfig+0x288>
        {
          return HAL_TIMEOUT;
 8002ed4:	2303      	movs	r3, #3
 8002ed6:	e1c8      	b.n	800326a <HAL_RCC_OscConfig+0x61a>
      while(__HAL_RCC_GET_FLAG(RCC_FLAG_LSIRDY) != RESET)
 8002ed8:	4b29      	ldr	r3, [pc, #164]	; (8002f80 <HAL_RCC_OscConfig+0x330>)
 8002eda:	6a5b      	ldr	r3, [r3, #36]	; 0x24
 8002edc:	2202      	movs	r2, #2
 8002ede:	4013      	ands	r3, r2
 8002ee0:	d1f1      	bne.n	8002ec6 <HAL_RCC_OscConfig+0x276>
        }
      }
    }
  }
  /*------------------------------ LSE Configuration -------------------------*/ 
  if(((RCC_OscInitStruct->OscillatorType) & RCC_OSCILLATORTYPE_LSE) == RCC_OSCILLATORTYPE_LSE)
 8002ee2:	687b      	ldr	r3, [r7, #4]
 8002ee4:	681b      	ldr	r3, [r3, #0]
 8002ee6:	2204      	movs	r2, #4
 8002ee8:	4013      	ands	r3, r2
 8002eea:	d100      	bne.n	8002eee <HAL_RCC_OscConfig+0x29e>
 8002eec:	e0b6      	b.n	800305c <HAL_RCC_OscConfig+0x40c>
  {
    FlagStatus       pwrclkchanged = RESET;
 8002eee:	231f      	movs	r3, #31
 8002ef0:	18fb      	adds	r3, r7, r3
 8002ef2:	2200      	movs	r2, #0
 8002ef4:	701a      	strb	r2, [r3, #0]
    /* Check the parameters */
    assert_param(IS_RCC_LSE(RCC_OscInitStruct->LSEState));

    /* Update LSE configuration in Backup Domain control register    */
    /* Requires to enable write access to Backup Domain of necessary */
    if(__HAL_RCC_PWR_IS_CLK_DISABLED())
 8002ef6:	4b22      	ldr	r3, [pc, #136]	; (8002f80 <HAL_RCC_OscConfig+0x330>)
 8002ef8:	69da      	ldr	r2, [r3, #28]
 8002efa:	2380      	movs	r3, #128	; 0x80
 8002efc:	055b      	lsls	r3, r3, #21
 8002efe:	4013      	ands	r3, r2
 8002f00:	d111      	bne.n	8002f26 <HAL_RCC_OscConfig+0x2d6>
    {
      __HAL_RCC_PWR_CLK_ENABLE();
 8002f02:	4b1f      	ldr	r3, [pc, #124]	; (8002f80 <HAL_RCC_OscConfig+0x330>)
 8002f04:	69da      	ldr	r2, [r3, #28]
 8002f06:	4b1e      	ldr	r3, [pc, #120]	; (8002f80 <HAL_RCC_OscConfig+0x330>)
 8002f08:	2180      	movs	r1, #128	; 0x80
 8002f0a:	0549      	lsls	r1, r1, #21
 8002f0c:	430a      	orrs	r2, r1
 8002f0e:	61da      	str	r2, [r3, #28]
 8002f10:	4b1b      	ldr	r3, [pc, #108]	; (8002f80 <HAL_RCC_OscConfig+0x330>)
 8002f12:	69da      	ldr	r2, [r3, #28]
 8002f14:	2380      	movs	r3, #128	; 0x80
 8002f16:	055b      	lsls	r3, r3, #21
 8002f18:	4013      	ands	r3, r2
 8002f1a:	60fb      	str	r3, [r7, #12]
 8002f1c:	68fb      	ldr	r3, [r7, #12]
      pwrclkchanged = SET;
 8002f1e:	231f      	movs	r3, #31
 8002f20:	18fb      	adds	r3, r7, r3
 8002f22:	2201      	movs	r2, #1
 8002f24:	701a      	strb	r2, [r3, #0]
    }
    
    if(HAL_IS_BIT_CLR(PWR->CR, PWR_CR_DBP))
 8002f26:	4b19      	ldr	r3, [pc, #100]	; (8002f8c <HAL_RCC_OscConfig+0x33c>)
 8002f28:	681a      	ldr	r2, [r3, #0]
 8002f2a:	2380      	movs	r3, #128	; 0x80
 8002f2c:	005b      	lsls	r3, r3, #1
 8002f2e:	4013      	ands	r3, r2
 8002f30:	d11a      	bne.n	8002f68 <HAL_RCC_OscConfig+0x318>
    {
      /* Enable write access to Backup domain */
      SET_BIT(PWR->CR, PWR_CR_DBP);
 8002f32:	4b16      	ldr	r3, [pc, #88]	; (8002f8c <HAL_RCC_OscConfig+0x33c>)
 8002f34:	681a      	ldr	r2, [r3, #0]
 8002f36:	4b15      	ldr	r3, [pc, #84]	; (8002f8c <HAL_RCC_OscConfig+0x33c>)
 8002f38:	2180      	movs	r1, #128	; 0x80
 8002f3a:	0049      	lsls	r1, r1, #1
 8002f3c:	430a      	orrs	r2, r1
 8002f3e:	601a      	str	r2, [r3, #0]
      
      /* Wait for Backup domain Write protection disable */
      tickstart = HAL_GetTick();
 8002f40:	f7ff fc36 	bl	80027b0 <HAL_GetTick>
 8002f44:	0003      	movs	r3, r0
 8002f46:	61bb      	str	r3, [r7, #24]

      while(HAL_IS_BIT_CLR(PWR->CR, PWR_CR_DBP))
 8002f48:	e008      	b.n	8002f5c <HAL_RCC_OscConfig+0x30c>
      {
        if((HAL_GetTick() - tickstart) > RCC_DBP_TIMEOUT_VALUE)
 8002f4a:	f7ff fc31 	bl	80027b0 <HAL_GetTick>
 8002f4e:	0002      	movs	r2, r0
 8002f50:	69bb      	ldr	r3, [r7, #24]
 8002f52:	1ad3      	subs	r3, r2, r3
 8002f54:	2b64      	cmp	r3, #100	; 0x64
 8002f56:	d901      	bls.n	8002f5c <HAL_RCC_OscConfig+0x30c>
        {
          return HAL_TIMEOUT;
 8002f58:	2303      	movs	r3, #3
 8002f5a:	e186      	b.n	800326a <HAL_RCC_OscConfig+0x61a>
      while(HAL_IS_BIT_CLR(PWR->CR, PWR_CR_DBP))
 8002f5c:	4b0b      	ldr	r3, [pc, #44]	; (8002f8c <HAL_RCC_OscConfig+0x33c>)
 8002f5e:	681a      	ldr	r2, [r3, #0]
 8002f60:	2380      	movs	r3, #128	; 0x80
 8002f62:	005b      	lsls	r3, r3, #1
 8002f64:	4013      	ands	r3, r2
 8002f66:	d0f0      	beq.n	8002f4a <HAL_RCC_OscConfig+0x2fa>
        }
      }
    }

    /* Set the new LSE configuration -----------------------------------------*/
    __HAL_RCC_LSE_CONFIG(RCC_OscInitStruct->LSEState);
 8002f68:	687b      	ldr	r3, [r7, #4]
 8002f6a:	689b      	ldr	r3, [r3, #8]
 8002f6c:	2b01      	cmp	r3, #1
 8002f6e:	d10f      	bne.n	8002f90 <HAL_RCC_OscConfig+0x340>
 8002f70:	4b03      	ldr	r3, [pc, #12]	; (8002f80 <HAL_RCC_OscConfig+0x330>)
 8002f72:	6a1a      	ldr	r2, [r3, #32]
 8002f74:	4b02      	ldr	r3, [pc, #8]	; (8002f80 <HAL_RCC_OscConfig+0x330>)
 8002f76:	2101      	movs	r1, #1
 8002f78:	430a      	orrs	r2, r1
 8002f7a:	621a      	str	r2, [r3, #32]
 8002f7c:	e036      	b.n	8002fec <HAL_RCC_OscConfig+0x39c>
 8002f7e:	46c0      	nop			; (mov r8, r8)
 8002f80:	40021000 	.word	0x40021000
 8002f84:	fffeffff 	.word	0xfffeffff
 8002f88:	fffbffff 	.word	0xfffbffff
 8002f8c:	40007000 	.word	0x40007000
 8002f90:	687b      	ldr	r3, [r7, #4]
 8002f92:	689b      	ldr	r3, [r3, #8]
 8002f94:	2b00      	cmp	r3, #0
 8002f96:	d10c      	bne.n	8002fb2 <HAL_RCC_OscConfig+0x362>
 8002f98:	4bb6      	ldr	r3, [pc, #728]	; (8003274 <HAL_RCC_OscConfig+0x624>)
 8002f9a:	6a1a      	ldr	r2, [r3, #32]
 8002f9c:	4bb5      	ldr	r3, [pc, #724]	; (8003274 <HAL_RCC_OscConfig+0x624>)
 8002f9e:	2101      	movs	r1, #1
 8002fa0:	438a      	bics	r2, r1
 8002fa2:	621a      	str	r2, [r3, #32]
 8002fa4:	4bb3      	ldr	r3, [pc, #716]	; (8003274 <HAL_RCC_OscConfig+0x624>)
 8002fa6:	6a1a      	ldr	r2, [r3, #32]
 8002fa8:	4bb2      	ldr	r3, [pc, #712]	; (8003274 <HAL_RCC_OscConfig+0x624>)
 8002faa:	2104      	movs	r1, #4
 8002fac:	438a      	bics	r2, r1
 8002fae:	621a      	str	r2, [r3, #32]
 8002fb0:	e01c      	b.n	8002fec <HAL_RCC_OscConfig+0x39c>
 8002fb2:	687b      	ldr	r3, [r7, #4]
 8002fb4:	689b      	ldr	r3, [r3, #8]
 8002fb6:	2b05      	cmp	r3, #5
 8002fb8:	d10c      	bne.n	8002fd4 <HAL_RCC_OscConfig+0x384>
 8002fba:	4bae      	ldr	r3, [pc, #696]	; (8003274 <HAL_RCC_OscConfig+0x624>)
 8002fbc:	6a1a      	ldr	r2, [r3, #32]
 8002fbe:	4bad      	ldr	r3, [pc, #692]	; (8003274 <HAL_RCC_OscConfig+0x624>)
 8002fc0:	2104      	movs	r1, #4
 8002fc2:	430a      	orrs	r2, r1
 8002fc4:	621a      	str	r2, [r3, #32]
 8002fc6:	4bab      	ldr	r3, [pc, #684]	; (8003274 <HAL_RCC_OscConfig+0x624>)
 8002fc8:	6a1a      	ldr	r2, [r3, #32]
 8002fca:	4baa      	ldr	r3, [pc, #680]	; (8003274 <HAL_RCC_OscConfig+0x624>)
 8002fcc:	2101      	movs	r1, #1
 8002fce:	430a      	orrs	r2, r1
 8002fd0:	621a      	str	r2, [r3, #32]
 8002fd2:	e00b      	b.n	8002fec <HAL_RCC_OscConfig+0x39c>
 8002fd4:	4ba7      	ldr	r3, [pc, #668]	; (8003274 <HAL_RCC_OscConfig+0x624>)
 8002fd6:	6a1a      	ldr	r2, [r3, #32]
 8002fd8:	4ba6      	ldr	r3, [pc, #664]	; (8003274 <HAL_RCC_OscConfig+0x624>)
 8002fda:	2101      	movs	r1, #1
 8002fdc:	438a      	bics	r2, r1
 8002fde:	621a      	str	r2, [r3, #32]
 8002fe0:	4ba4      	ldr	r3, [pc, #656]	; (8003274 <HAL_RCC_OscConfig+0x624>)
 8002fe2:	6a1a      	ldr	r2, [r3, #32]
 8002fe4:	4ba3      	ldr	r3, [pc, #652]	; (8003274 <HAL_RCC_OscConfig+0x624>)
 8002fe6:	2104      	movs	r1, #4
 8002fe8:	438a      	bics	r2, r1
 8002fea:	621a      	str	r2, [r3, #32]
    /* Check the LSE State */
    if(RCC_OscInitStruct->LSEState != RCC_LSE_OFF)
 8002fec:	687b      	ldr	r3, [r7, #4]
 8002fee:	689b      	ldr	r3, [r3, #8]
 8002ff0:	2b00      	cmp	r3, #0
 8002ff2:	d014      	beq.n	800301e <HAL_RCC_OscConfig+0x3ce>
    {
      /* Get Start Tick */
      tickstart = HAL_GetTick();
 8002ff4:	f7ff fbdc 	bl	80027b0 <HAL_GetTick>
 8002ff8:	0003      	movs	r3, r0
 8002ffa:	61bb      	str	r3, [r7, #24]
      
      /* Wait till LSE is ready */  
      while(__HAL_RCC_GET_FLAG(RCC_FLAG_LSERDY) == RESET)
 8002ffc:	e009      	b.n	8003012 <HAL_RCC_OscConfig+0x3c2>
      {
        if((HAL_GetTick() - tickstart ) > RCC_LSE_TIMEOUT_VALUE)
 8002ffe:	f7ff fbd7 	bl	80027b0 <HAL_GetTick>
 8003002:	0002      	movs	r2, r0
 8003004:	69bb      	ldr	r3, [r7, #24]
 8003006:	1ad3      	subs	r3, r2, r3
 8003008:	4a9b      	ldr	r2, [pc, #620]	; (8003278 <HAL_RCC_OscConfig+0x628>)
 800300a:	4293      	cmp	r3, r2
 800300c:	d901      	bls.n	8003012 <HAL_RCC_OscConfig+0x3c2>
        {
          return HAL_TIMEOUT;
 800300e:	2303      	movs	r3, #3
 8003010:	e12b      	b.n	800326a <HAL_RCC_OscConfig+0x61a>
      while(__HAL_RCC_GET_FLAG(RCC_FLAG_LSERDY) == RESET)
 8003012:	4b98      	ldr	r3, [pc, #608]	; (8003274 <HAL_RCC_OscConfig+0x624>)
 8003014:	6a1b      	ldr	r3, [r3, #32]
 8003016:	2202      	movs	r2, #2
 8003018:	4013      	ands	r3, r2
 800301a:	d0f0      	beq.n	8002ffe <HAL_RCC_OscConfig+0x3ae>
 800301c:	e013      	b.n	8003046 <HAL_RCC_OscConfig+0x3f6>
      }
    }
    else
    {
      /* Get Start Tick */
      tickstart = HAL_GetTick();
 800301e:	f7ff fbc7 	bl	80027b0 <HAL_GetTick>
 8003022:	0003      	movs	r3, r0
 8003024:	61bb      	str	r3, [r7, #24]
      
      /* Wait till LSE is disabled */  
      while(__HAL_RCC_GET_FLAG(RCC_FLAG_LSERDY) != RESET)
 8003026:	e009      	b.n	800303c <HAL_RCC_OscConfig+0x3ec>
      {
        if((HAL_GetTick() - tickstart ) > RCC_LSE_TIMEOUT_VALUE)
 8003028:	f7ff fbc2 	bl	80027b0 <HAL_GetTick>
 800302c:	0002      	movs	r2, r0
 800302e:	69bb      	ldr	r3, [r7, #24]
 8003030:	1ad3      	subs	r3, r2, r3
 8003032:	4a91      	ldr	r2, [pc, #580]	; (8003278 <HAL_RCC_OscConfig+0x628>)
 8003034:	4293      	cmp	r3, r2
 8003036:	d901      	bls.n	800303c <HAL_RCC_OscConfig+0x3ec>
        {
          return HAL_TIMEOUT;
 8003038:	2303      	movs	r3, #3
 800303a:	e116      	b.n	800326a <HAL_RCC_OscConfig+0x61a>
      while(__HAL_RCC_GET_FLAG(RCC_FLAG_LSERDY) != RESET)
 800303c:	4b8d      	ldr	r3, [pc, #564]	; (8003274 <HAL_RCC_OscConfig+0x624>)
 800303e:	6a1b      	ldr	r3, [r3, #32]
 8003040:	2202      	movs	r2, #2
 8003042:	4013      	ands	r3, r2
 8003044:	d1f0      	bne.n	8003028 <HAL_RCC_OscConfig+0x3d8>
        }
      }
    }

    /* Require to disable power clock if necessary */
    if(pwrclkchanged == SET)
 8003046:	231f      	movs	r3, #31
 8003048:	18fb      	adds	r3, r7, r3
 800304a:	781b      	ldrb	r3, [r3, #0]
 800304c:	2b01      	cmp	r3, #1
 800304e:	d105      	bne.n	800305c <HAL_RCC_OscConfig+0x40c>
    {
      __HAL_RCC_PWR_CLK_DISABLE();
 8003050:	4b88      	ldr	r3, [pc, #544]	; (8003274 <HAL_RCC_OscConfig+0x624>)
 8003052:	69da      	ldr	r2, [r3, #28]
 8003054:	4b87      	ldr	r3, [pc, #540]	; (8003274 <HAL_RCC_OscConfig+0x624>)
 8003056:	4989      	ldr	r1, [pc, #548]	; (800327c <HAL_RCC_OscConfig+0x62c>)
 8003058:	400a      	ands	r2, r1
 800305a:	61da      	str	r2, [r3, #28]
    }
  }

  /*----------------------------- HSI14 Configuration --------------------------*/
  if(((RCC_OscInitStruct->OscillatorType) & RCC_OSCILLATORTYPE_HSI14) == RCC_OSCILLATORTYPE_HSI14)
 800305c:	687b      	ldr	r3, [r7, #4]
 800305e:	681b      	ldr	r3, [r3, #0]
 8003060:	2210      	movs	r2, #16
 8003062:	4013      	ands	r3, r2
 8003064:	d063      	beq.n	800312e <HAL_RCC_OscConfig+0x4de>
    /* Check the parameters */
    assert_param(IS_RCC_HSI14(RCC_OscInitStruct->HSI14State));
    assert_param(IS_RCC_CALIBRATION_VALUE(RCC_OscInitStruct->HSI14CalibrationValue));

    /* Check the HSI14 State */
    if(RCC_OscInitStruct->HSI14State == RCC_HSI14_ON)
 8003066:	687b      	ldr	r3, [r7, #4]
 8003068:	695b      	ldr	r3, [r3, #20]
 800306a:	2b01      	cmp	r3, #1
 800306c:	d12a      	bne.n	80030c4 <HAL_RCC_OscConfig+0x474>
    {
      /* Disable ADC control of the Internal High Speed oscillator HSI14 */
      __HAL_RCC_HSI14ADC_DISABLE();
 800306e:	4b81      	ldr	r3, [pc, #516]	; (8003274 <HAL_RCC_OscConfig+0x624>)
 8003070:	6b5a      	ldr	r2, [r3, #52]	; 0x34
 8003072:	4b80      	ldr	r3, [pc, #512]	; (8003274 <HAL_RCC_OscConfig+0x624>)
 8003074:	2104      	movs	r1, #4
 8003076:	430a      	orrs	r2, r1
 8003078:	635a      	str	r2, [r3, #52]	; 0x34

      /* Enable the Internal High Speed oscillator (HSI). */
      __HAL_RCC_HSI14_ENABLE();
 800307a:	4b7e      	ldr	r3, [pc, #504]	; (8003274 <HAL_RCC_OscConfig+0x624>)
 800307c:	6b5a      	ldr	r2, [r3, #52]	; 0x34
 800307e:	4b7d      	ldr	r3, [pc, #500]	; (8003274 <HAL_RCC_OscConfig+0x624>)
 8003080:	2101      	movs	r1, #1
 8003082:	430a      	orrs	r2, r1
 8003084:	635a      	str	r2, [r3, #52]	; 0x34

      /* Get Start Tick */
      tickstart = HAL_GetTick();
 8003086:	f7ff fb93 	bl	80027b0 <HAL_GetTick>
 800308a:	0003      	movs	r3, r0
 800308c:	61bb      	str	r3, [r7, #24]
      
      /* Wait till HSI is ready */  
      while(__HAL_RCC_GET_FLAG(RCC_FLAG_HSI14RDY) == RESET)
 800308e:	e008      	b.n	80030a2 <HAL_RCC_OscConfig+0x452>
      {
        if((HAL_GetTick() - tickstart) > HSI14_TIMEOUT_VALUE)
 8003090:	f7ff fb8e 	bl	80027b0 <HAL_GetTick>
 8003094:	0002      	movs	r2, r0
 8003096:	69bb      	ldr	r3, [r7, #24]
 8003098:	1ad3      	subs	r3, r2, r3
 800309a:	2b02      	cmp	r3, #2
 800309c:	d901      	bls.n	80030a2 <HAL_RCC_OscConfig+0x452>
        {
          return HAL_TIMEOUT;
 800309e:	2303      	movs	r3, #3
 80030a0:	e0e3      	b.n	800326a <HAL_RCC_OscConfig+0x61a>
      while(__HAL_RCC_GET_FLAG(RCC_FLAG_HSI14RDY) == RESET)
 80030a2:	4b74      	ldr	r3, [pc, #464]	; (8003274 <HAL_RCC_OscConfig+0x624>)
 80030a4:	6b5b      	ldr	r3, [r3, #52]	; 0x34
 80030a6:	2202      	movs	r2, #2
 80030a8:	4013      	ands	r3, r2
 80030aa:	d0f1      	beq.n	8003090 <HAL_RCC_OscConfig+0x440>
        }      
      } 

      /* Adjusts the Internal High Speed oscillator 14Mhz (HSI14) calibration value. */
      __HAL_RCC_HSI14_CALIBRATIONVALUE_ADJUST(RCC_OscInitStruct->HSI14CalibrationValue);
 80030ac:	4b71      	ldr	r3, [pc, #452]	; (8003274 <HAL_RCC_OscConfig+0x624>)
 80030ae:	6b5b      	ldr	r3, [r3, #52]	; 0x34
 80030b0:	22f8      	movs	r2, #248	; 0xf8
 80030b2:	4393      	bics	r3, r2
 80030b4:	0019      	movs	r1, r3
 80030b6:	687b      	ldr	r3, [r7, #4]
 80030b8:	699b      	ldr	r3, [r3, #24]
 80030ba:	00da      	lsls	r2, r3, #3
 80030bc:	4b6d      	ldr	r3, [pc, #436]	; (8003274 <HAL_RCC_OscConfig+0x624>)
 80030be:	430a      	orrs	r2, r1
 80030c0:	635a      	str	r2, [r3, #52]	; 0x34
 80030c2:	e034      	b.n	800312e <HAL_RCC_OscConfig+0x4de>
    }
    else if(RCC_OscInitStruct->HSI14State == RCC_HSI14_ADC_CONTROL)
 80030c4:	687b      	ldr	r3, [r7, #4]
 80030c6:	695b      	ldr	r3, [r3, #20]
 80030c8:	3305      	adds	r3, #5
 80030ca:	d111      	bne.n	80030f0 <HAL_RCC_OscConfig+0x4a0>
    {
      /* Enable ADC control of the Internal High Speed oscillator HSI14 */
      __HAL_RCC_HSI14ADC_ENABLE();
 80030cc:	4b69      	ldr	r3, [pc, #420]	; (8003274 <HAL_RCC_OscConfig+0x624>)
 80030ce:	6b5a      	ldr	r2, [r3, #52]	; 0x34
 80030d0:	4b68      	ldr	r3, [pc, #416]	; (8003274 <HAL_RCC_OscConfig+0x624>)
 80030d2:	2104      	movs	r1, #4
 80030d4:	438a      	bics	r2, r1
 80030d6:	635a      	str	r2, [r3, #52]	; 0x34

      /* Adjusts the Internal High Speed oscillator 14Mhz (HSI14) calibration value. */
      __HAL_RCC_HSI14_CALIBRATIONVALUE_ADJUST(RCC_OscInitStruct->HSI14CalibrationValue);
 80030d8:	4b66      	ldr	r3, [pc, #408]	; (8003274 <HAL_RCC_OscConfig+0x624>)
 80030da:	6b5b      	ldr	r3, [r3, #52]	; 0x34
 80030dc:	22f8      	movs	r2, #248	; 0xf8
 80030de:	4393      	bics	r3, r2
 80030e0:	0019      	movs	r1, r3
 80030e2:	687b      	ldr	r3, [r7, #4]
 80030e4:	699b      	ldr	r3, [r3, #24]
 80030e6:	00da      	lsls	r2, r3, #3
 80030e8:	4b62      	ldr	r3, [pc, #392]	; (8003274 <HAL_RCC_OscConfig+0x624>)
 80030ea:	430a      	orrs	r2, r1
 80030ec:	635a      	str	r2, [r3, #52]	; 0x34
 80030ee:	e01e      	b.n	800312e <HAL_RCC_OscConfig+0x4de>
    }
    else
    {
      /* Disable ADC control of the Internal High Speed oscillator HSI14 */
      __HAL_RCC_HSI14ADC_DISABLE();
 80030f0:	4b60      	ldr	r3, [pc, #384]	; (8003274 <HAL_RCC_OscConfig+0x624>)
 80030f2:	6b5a      	ldr	r2, [r3, #52]	; 0x34
 80030f4:	4b5f      	ldr	r3, [pc, #380]	; (8003274 <HAL_RCC_OscConfig+0x624>)
 80030f6:	2104      	movs	r1, #4
 80030f8:	430a      	orrs	r2, r1
 80030fa:	635a      	str	r2, [r3, #52]	; 0x34

      /* Disable the Internal High Speed oscillator (HSI). */
      __HAL_RCC_HSI14_DISABLE();
 80030fc:	4b5d      	ldr	r3, [pc, #372]	; (8003274 <HAL_RCC_OscConfig+0x624>)
 80030fe:	6b5a      	ldr	r2, [r3, #52]	; 0x34
 8003100:	4b5c      	ldr	r3, [pc, #368]	; (8003274 <HAL_RCC_OscConfig+0x624>)
 8003102:	2101      	movs	r1, #1
 8003104:	438a      	bics	r2, r1
 8003106:	635a      	str	r2, [r3, #52]	; 0x34

      /* Get Start Tick */
      tickstart = HAL_GetTick();
 8003108:	f7ff fb52 	bl	80027b0 <HAL_GetTick>
 800310c:	0003      	movs	r3, r0
 800310e:	61bb      	str	r3, [r7, #24]
      
      /* Wait till HSI is ready */  
      while(__HAL_RCC_GET_FLAG(RCC_FLAG_HSI14RDY) != RESET)
 8003110:	e008      	b.n	8003124 <HAL_RCC_OscConfig+0x4d4>
      {
        if((HAL_GetTick() - tickstart) > HSI14_TIMEOUT_VALUE)
 8003112:	f7ff fb4d 	bl	80027b0 <HAL_GetTick>
 8003116:	0002      	movs	r2, r0
 8003118:	69bb      	ldr	r3, [r7, #24]
 800311a:	1ad3      	subs	r3, r2, r3
 800311c:	2b02      	cmp	r3, #2
 800311e:	d901      	bls.n	8003124 <HAL_RCC_OscConfig+0x4d4>
        {
          return HAL_TIMEOUT;
 8003120:	2303      	movs	r3, #3
 8003122:	e0a2      	b.n	800326a <HAL_RCC_OscConfig+0x61a>
      while(__HAL_RCC_GET_FLAG(RCC_FLAG_HSI14RDY) != RESET)
 8003124:	4b53      	ldr	r3, [pc, #332]	; (8003274 <HAL_RCC_OscConfig+0x624>)
 8003126:	6b5b      	ldr	r3, [r3, #52]	; 0x34
 8003128:	2202      	movs	r2, #2
 800312a:	4013      	ands	r3, r2
 800312c:	d1f1      	bne.n	8003112 <HAL_RCC_OscConfig+0x4c2>
#endif /* RCC_HSI48_SUPPORT */
       
  /*-------------------------------- PLL Configuration -----------------------*/
  /* Check the parameters */
  assert_param(IS_RCC_PLL(RCC_OscInitStruct->PLL.PLLState));
  if ((RCC_OscInitStruct->PLL.PLLState) != RCC_PLL_NONE)
 800312e:	687b      	ldr	r3, [r7, #4]
 8003130:	6a1b      	ldr	r3, [r3, #32]
 8003132:	2b00      	cmp	r3, #0
 8003134:	d100      	bne.n	8003138 <HAL_RCC_OscConfig+0x4e8>
 8003136:	e097      	b.n	8003268 <HAL_RCC_OscConfig+0x618>
  {
    /* Check if the PLL is used as system clock or not */
    if(__HAL_RCC_GET_SYSCLK_SOURCE() != RCC_SYSCLKSOURCE_STATUS_PLLCLK)
 8003138:	4b4e      	ldr	r3, [pc, #312]	; (8003274 <HAL_RCC_OscConfig+0x624>)
 800313a:	685b      	ldr	r3, [r3, #4]
 800313c:	220c      	movs	r2, #12
 800313e:	4013      	ands	r3, r2
 8003140:	2b08      	cmp	r3, #8
 8003142:	d100      	bne.n	8003146 <HAL_RCC_OscConfig+0x4f6>
 8003144:	e06b      	b.n	800321e <HAL_RCC_OscConfig+0x5ce>
    { 
      if((RCC_OscInitStruct->PLL.PLLState) == RCC_PLL_ON)
 8003146:	687b      	ldr	r3, [r7, #4]
 8003148:	6a1b      	ldr	r3, [r3, #32]
 800314a:	2b02      	cmp	r3, #2
 800314c:	d14c      	bne.n	80031e8 <HAL_RCC_OscConfig+0x598>
        assert_param(IS_RCC_PLLSOURCE(RCC_OscInitStruct->PLL.PLLSource));
        assert_param(IS_RCC_PLL_MUL(RCC_OscInitStruct->PLL.PLLMUL));
        assert_param(IS_RCC_PREDIV(RCC_OscInitStruct->PLL.PREDIV));
  
        /* Disable the main PLL. */
        __HAL_RCC_PLL_DISABLE();
 800314e:	4b49      	ldr	r3, [pc, #292]	; (8003274 <HAL_RCC_OscConfig+0x624>)
 8003150:	681a      	ldr	r2, [r3, #0]
 8003152:	4b48      	ldr	r3, [pc, #288]	; (8003274 <HAL_RCC_OscConfig+0x624>)
 8003154:	494a      	ldr	r1, [pc, #296]	; (8003280 <HAL_RCC_OscConfig+0x630>)
 8003156:	400a      	ands	r2, r1
 8003158:	601a      	str	r2, [r3, #0]
        
        /* Get Start Tick */
        tickstart = HAL_GetTick();
 800315a:	f7ff fb29 	bl	80027b0 <HAL_GetTick>
 800315e:	0003      	movs	r3, r0
 8003160:	61bb      	str	r3, [r7, #24]
        
        /* Wait till PLL is disabled */
        while(__HAL_RCC_GET_FLAG(RCC_FLAG_PLLRDY)  != RESET)
 8003162:	e008      	b.n	8003176 <HAL_RCC_OscConfig+0x526>
        {
          if((HAL_GetTick() - tickstart ) > PLL_TIMEOUT_VALUE)
 8003164:	f7ff fb24 	bl	80027b0 <HAL_GetTick>
 8003168:	0002      	movs	r2, r0
 800316a:	69bb      	ldr	r3, [r7, #24]
 800316c:	1ad3      	subs	r3, r2, r3
 800316e:	2b02      	cmp	r3, #2
 8003170:	d901      	bls.n	8003176 <HAL_RCC_OscConfig+0x526>
          {
            return HAL_TIMEOUT;
 8003172:	2303      	movs	r3, #3
 8003174:	e079      	b.n	800326a <HAL_RCC_OscConfig+0x61a>
        while(__HAL_RCC_GET_FLAG(RCC_FLAG_PLLRDY)  != RESET)
 8003176:	4b3f      	ldr	r3, [pc, #252]	; (8003274 <HAL_RCC_OscConfig+0x624>)
 8003178:	681a      	ldr	r2, [r3, #0]
 800317a:	2380      	movs	r3, #128	; 0x80
 800317c:	049b      	lsls	r3, r3, #18
 800317e:	4013      	ands	r3, r2
 8003180:	d1f0      	bne.n	8003164 <HAL_RCC_OscConfig+0x514>
          }
        }

        /* Configure the main PLL clock source, predivider and multiplication factor. */
        __HAL_RCC_PLL_CONFIG(RCC_OscInitStruct->PLL.PLLSource,
 8003182:	4b3c      	ldr	r3, [pc, #240]	; (8003274 <HAL_RCC_OscConfig+0x624>)
 8003184:	6adb      	ldr	r3, [r3, #44]	; 0x2c
 8003186:	220f      	movs	r2, #15
 8003188:	4393      	bics	r3, r2
 800318a:	0019      	movs	r1, r3
 800318c:	687b      	ldr	r3, [r7, #4]
 800318e:	6ada      	ldr	r2, [r3, #44]	; 0x2c
 8003190:	4b38      	ldr	r3, [pc, #224]	; (8003274 <HAL_RCC_OscConfig+0x624>)
 8003192:	430a      	orrs	r2, r1
 8003194:	62da      	str	r2, [r3, #44]	; 0x2c
 8003196:	4b37      	ldr	r3, [pc, #220]	; (8003274 <HAL_RCC_OscConfig+0x624>)
 8003198:	685b      	ldr	r3, [r3, #4]
 800319a:	4a3a      	ldr	r2, [pc, #232]	; (8003284 <HAL_RCC_OscConfig+0x634>)
 800319c:	4013      	ands	r3, r2
 800319e:	0019      	movs	r1, r3
 80031a0:	687b      	ldr	r3, [r7, #4]
 80031a2:	6a9a      	ldr	r2, [r3, #40]	; 0x28
 80031a4:	687b      	ldr	r3, [r7, #4]
 80031a6:	6a5b      	ldr	r3, [r3, #36]	; 0x24
 80031a8:	431a      	orrs	r2, r3
 80031aa:	4b32      	ldr	r3, [pc, #200]	; (8003274 <HAL_RCC_OscConfig+0x624>)
 80031ac:	430a      	orrs	r2, r1
 80031ae:	605a      	str	r2, [r3, #4]
                             RCC_OscInitStruct->PLL.PREDIV,
                             RCC_OscInitStruct->PLL.PLLMUL);
        /* Enable the main PLL. */
        __HAL_RCC_PLL_ENABLE();
 80031b0:	4b30      	ldr	r3, [pc, #192]	; (8003274 <HAL_RCC_OscConfig+0x624>)
 80031b2:	681a      	ldr	r2, [r3, #0]
 80031b4:	4b2f      	ldr	r3, [pc, #188]	; (8003274 <HAL_RCC_OscConfig+0x624>)
 80031b6:	2180      	movs	r1, #128	; 0x80
 80031b8:	0449      	lsls	r1, r1, #17
 80031ba:	430a      	orrs	r2, r1
 80031bc:	601a      	str	r2, [r3, #0]
        
        /* Get Start Tick */
        tickstart = HAL_GetTick();
 80031be:	f7ff faf7 	bl	80027b0 <HAL_GetTick>
 80031c2:	0003      	movs	r3, r0
 80031c4:	61bb      	str	r3, [r7, #24]
        
        /* Wait till PLL is ready */
        while(__HAL_RCC_GET_FLAG(RCC_FLAG_PLLRDY)  == RESET)
 80031c6:	e008      	b.n	80031da <HAL_RCC_OscConfig+0x58a>
        {
          if((HAL_GetTick() - tickstart ) > PLL_TIMEOUT_VALUE)
 80031c8:	f7ff faf2 	bl	80027b0 <HAL_GetTick>
 80031cc:	0002      	movs	r2, r0
 80031ce:	69bb      	ldr	r3, [r7, #24]
 80031d0:	1ad3      	subs	r3, r2, r3
 80031d2:	2b02      	cmp	r3, #2
 80031d4:	d901      	bls.n	80031da <HAL_RCC_OscConfig+0x58a>
          {
            return HAL_TIMEOUT;
 80031d6:	2303      	movs	r3, #3
 80031d8:	e047      	b.n	800326a <HAL_RCC_OscConfig+0x61a>
        while(__HAL_RCC_GET_FLAG(RCC_FLAG_PLLRDY)  == RESET)
 80031da:	4b26      	ldr	r3, [pc, #152]	; (8003274 <HAL_RCC_OscConfig+0x624>)
 80031dc:	681a      	ldr	r2, [r3, #0]
 80031de:	2380      	movs	r3, #128	; 0x80
 80031e0:	049b      	lsls	r3, r3, #18
 80031e2:	4013      	ands	r3, r2
 80031e4:	d0f0      	beq.n	80031c8 <HAL_RCC_OscConfig+0x578>
 80031e6:	e03f      	b.n	8003268 <HAL_RCC_OscConfig+0x618>
        }
      }
      else
      {
        /* Disable the main PLL. */
        __HAL_RCC_PLL_DISABLE();
 80031e8:	4b22      	ldr	r3, [pc, #136]	; (8003274 <HAL_RCC_OscConfig+0x624>)
 80031ea:	681a      	ldr	r2, [r3, #0]
 80031ec:	4b21      	ldr	r3, [pc, #132]	; (8003274 <HAL_RCC_OscConfig+0x624>)
 80031ee:	4924      	ldr	r1, [pc, #144]	; (8003280 <HAL_RCC_OscConfig+0x630>)
 80031f0:	400a      	ands	r2, r1
 80031f2:	601a      	str	r2, [r3, #0]
 
        /* Get Start Tick */
        tickstart = HAL_GetTick();
 80031f4:	f7ff fadc 	bl	80027b0 <HAL_GetTick>
 80031f8:	0003      	movs	r3, r0
 80031fa:	61bb      	str	r3, [r7, #24]
        
        /* Wait till PLL is disabled */  
        while(__HAL_RCC_GET_FLAG(RCC_FLAG_PLLRDY)  != RESET)
 80031fc:	e008      	b.n	8003210 <HAL_RCC_OscConfig+0x5c0>
        {
          if((HAL_GetTick() - tickstart ) > PLL_TIMEOUT_VALUE)
 80031fe:	f7ff fad7 	bl	80027b0 <HAL_GetTick>
 8003202:	0002      	movs	r2, r0
 8003204:	69bb      	ldr	r3, [r7, #24]
 8003206:	1ad3      	subs	r3, r2, r3
 8003208:	2b02      	cmp	r3, #2
 800320a:	d901      	bls.n	8003210 <HAL_RCC_OscConfig+0x5c0>
          {
            return HAL_TIMEOUT;
 800320c:	2303      	movs	r3, #3
 800320e:	e02c      	b.n	800326a <HAL_RCC_OscConfig+0x61a>
        while(__HAL_RCC_GET_FLAG(RCC_FLAG_PLLRDY)  != RESET)
 8003210:	4b18      	ldr	r3, [pc, #96]	; (8003274 <HAL_RCC_OscConfig+0x624>)
 8003212:	681a      	ldr	r2, [r3, #0]
 8003214:	2380      	movs	r3, #128	; 0x80
 8003216:	049b      	lsls	r3, r3, #18
 8003218:	4013      	ands	r3, r2
 800321a:	d1f0      	bne.n	80031fe <HAL_RCC_OscConfig+0x5ae>
 800321c:	e024      	b.n	8003268 <HAL_RCC_OscConfig+0x618>
      }
    }
    else
    {
      /* Check if there is a request to disable the PLL used as System clock source */
      if((RCC_OscInitStruct->PLL.PLLState) == RCC_PLL_OFF)
 800321e:	687b      	ldr	r3, [r7, #4]
 8003220:	6a1b      	ldr	r3, [r3, #32]
 8003222:	2b01      	cmp	r3, #1
 8003224:	d101      	bne.n	800322a <HAL_RCC_OscConfig+0x5da>
      {
        return HAL_ERROR;
 8003226:	2301      	movs	r3, #1
 8003228:	e01f      	b.n	800326a <HAL_RCC_OscConfig+0x61a>
      }
      else
      {
        /* Do not return HAL_ERROR if request repeats the current configuration */
        pll_config  = RCC->CFGR;
 800322a:	4b12      	ldr	r3, [pc, #72]	; (8003274 <HAL_RCC_OscConfig+0x624>)
 800322c:	685b      	ldr	r3, [r3, #4]
 800322e:	617b      	str	r3, [r7, #20]
        pll_config2 = RCC->CFGR2;
 8003230:	4b10      	ldr	r3, [pc, #64]	; (8003274 <HAL_RCC_OscConfig+0x624>)
 8003232:	6adb      	ldr	r3, [r3, #44]	; 0x2c
 8003234:	613b      	str	r3, [r7, #16]
        if((READ_BIT(pll_config,  RCC_CFGR_PLLSRC)  != RCC_OscInitStruct->PLL.PLLSource) ||
 8003236:	697a      	ldr	r2, [r7, #20]
 8003238:	2380      	movs	r3, #128	; 0x80
 800323a:	025b      	lsls	r3, r3, #9
 800323c:	401a      	ands	r2, r3
 800323e:	687b      	ldr	r3, [r7, #4]
 8003240:	6a5b      	ldr	r3, [r3, #36]	; 0x24
 8003242:	429a      	cmp	r2, r3
 8003244:	d10e      	bne.n	8003264 <HAL_RCC_OscConfig+0x614>
           (READ_BIT(pll_config2, RCC_CFGR2_PREDIV) != RCC_OscInitStruct->PLL.PREDIV)    ||
 8003246:	693b      	ldr	r3, [r7, #16]
 8003248:	220f      	movs	r2, #15
 800324a:	401a      	ands	r2, r3
 800324c:	687b      	ldr	r3, [r7, #4]
 800324e:	6adb      	ldr	r3, [r3, #44]	; 0x2c
        if((READ_BIT(pll_config,  RCC_CFGR_PLLSRC)  != RCC_OscInitStruct->PLL.PLLSource) ||
 8003250:	429a      	cmp	r2, r3
 8003252:	d107      	bne.n	8003264 <HAL_RCC_OscConfig+0x614>
           (READ_BIT(pll_config,  RCC_CFGR_PLLMUL)  != RCC_OscInitStruct->PLL.PLLMUL))
 8003254:	697a      	ldr	r2, [r7, #20]
 8003256:	23f0      	movs	r3, #240	; 0xf0
 8003258:	039b      	lsls	r3, r3, #14
 800325a:	401a      	ands	r2, r3
 800325c:	687b      	ldr	r3, [r7, #4]
 800325e:	6a9b      	ldr	r3, [r3, #40]	; 0x28
           (READ_BIT(pll_config2, RCC_CFGR2_PREDIV) != RCC_OscInitStruct->PLL.PREDIV)    ||
 8003260:	429a      	cmp	r2, r3
 8003262:	d001      	beq.n	8003268 <HAL_RCC_OscConfig+0x618>
        {
          return HAL_ERROR;
 8003264:	2301      	movs	r3, #1
 8003266:	e000      	b.n	800326a <HAL_RCC_OscConfig+0x61a>
        }
      }
    }
  }

  return HAL_OK;
 8003268:	2300      	movs	r3, #0
}
 800326a:	0018      	movs	r0, r3
 800326c:	46bd      	mov	sp, r7
 800326e:	b008      	add	sp, #32
 8003270:	bd80      	pop	{r7, pc}
 8003272:	46c0      	nop			; (mov r8, r8)
 8003274:	40021000 	.word	0x40021000
 8003278:	00001388 	.word	0x00001388
 800327c:	efffffff 	.word	0xefffffff
 8003280:	feffffff 	.word	0xfeffffff
 8003284:	ffc2ffff 	.word	0xffc2ffff

08003288 <HAL_RCC_ClockConfig>:
  *         You can use @ref HAL_RCC_GetClockConfig() function to know which clock is
  *         currently used as system clock source.
  * @retval HAL status
  */
HAL_StatusTypeDef HAL_RCC_ClockConfig(RCC_ClkInitTypeDef  *RCC_ClkInitStruct, uint32_t FLatency)
{
 8003288:	b580      	push	{r7, lr}
 800328a:	b084      	sub	sp, #16
 800328c:	af00      	add	r7, sp, #0
 800328e:	6078      	str	r0, [r7, #4]
 8003290:	6039      	str	r1, [r7, #0]
  uint32_t tickstart;

  /* Check Null pointer */
  if(RCC_ClkInitStruct == NULL)
 8003292:	687b      	ldr	r3, [r7, #4]
 8003294:	2b00      	cmp	r3, #0
 8003296:	d101      	bne.n	800329c <HAL_RCC_ClockConfig+0x14>
  {
    return HAL_ERROR;
 8003298:	2301      	movs	r3, #1
 800329a:	e0b3      	b.n	8003404 <HAL_RCC_ClockConfig+0x17c>
  /* To correctly read data from FLASH memory, the number of wait states (LATENCY) 
  must be correctly programmed according to the frequency of the CPU clock 
    (HCLK) of the device. */

  /* Increasing the number of wait states because of higher CPU frequency */
  if(FLatency > __HAL_FLASH_GET_LATENCY())
 800329c:	4b5b      	ldr	r3, [pc, #364]	; (800340c <HAL_RCC_ClockConfig+0x184>)
 800329e:	681b      	ldr	r3, [r3, #0]
 80032a0:	2201      	movs	r2, #1
 80032a2:	4013      	ands	r3, r2
 80032a4:	683a      	ldr	r2, [r7, #0]
 80032a6:	429a      	cmp	r2, r3
 80032a8:	d911      	bls.n	80032ce <HAL_RCC_ClockConfig+0x46>
  {    
    /* Program the new number of wait states to the LATENCY bits in the FLASH_ACR register */
    __HAL_FLASH_SET_LATENCY(FLatency);
 80032aa:	4b58      	ldr	r3, [pc, #352]	; (800340c <HAL_RCC_ClockConfig+0x184>)
 80032ac:	681b      	ldr	r3, [r3, #0]
 80032ae:	2201      	movs	r2, #1
 80032b0:	4393      	bics	r3, r2
 80032b2:	0019      	movs	r1, r3
 80032b4:	4b55      	ldr	r3, [pc, #340]	; (800340c <HAL_RCC_ClockConfig+0x184>)
 80032b6:	683a      	ldr	r2, [r7, #0]
 80032b8:	430a      	orrs	r2, r1
 80032ba:	601a      	str	r2, [r3, #0]
    
    /* Check that the new number of wait states is taken into account to access the Flash
    memory by reading the FLASH_ACR register */
    if(__HAL_FLASH_GET_LATENCY() != FLatency)
 80032bc:	4b53      	ldr	r3, [pc, #332]	; (800340c <HAL_RCC_ClockConfig+0x184>)
 80032be:	681b      	ldr	r3, [r3, #0]
 80032c0:	2201      	movs	r2, #1
 80032c2:	4013      	ands	r3, r2
 80032c4:	683a      	ldr	r2, [r7, #0]
 80032c6:	429a      	cmp	r2, r3
 80032c8:	d001      	beq.n	80032ce <HAL_RCC_ClockConfig+0x46>
    {
      return HAL_ERROR;
 80032ca:	2301      	movs	r3, #1
 80032cc:	e09a      	b.n	8003404 <HAL_RCC_ClockConfig+0x17c>
    }
  }

  /*-------------------------- HCLK Configuration --------------------------*/
  if(((RCC_ClkInitStruct->ClockType) & RCC_CLOCKTYPE_HCLK) == RCC_CLOCKTYPE_HCLK)
 80032ce:	687b      	ldr	r3, [r7, #4]
 80032d0:	681b      	ldr	r3, [r3, #0]
 80032d2:	2202      	movs	r2, #2
 80032d4:	4013      	ands	r3, r2
 80032d6:	d015      	beq.n	8003304 <HAL_RCC_ClockConfig+0x7c>
  {
    /* Set the highest APB divider in order to ensure that we do not go through
       a non-spec phase whatever we decrease or increase HCLK. */
    if(((RCC_ClkInitStruct->ClockType) & RCC_CLOCKTYPE_PCLK1) == RCC_CLOCKTYPE_PCLK1)
 80032d8:	687b      	ldr	r3, [r7, #4]
 80032da:	681b      	ldr	r3, [r3, #0]
 80032dc:	2204      	movs	r2, #4
 80032de:	4013      	ands	r3, r2
 80032e0:	d006      	beq.n	80032f0 <HAL_RCC_ClockConfig+0x68>
    {
      MODIFY_REG(RCC->CFGR, RCC_CFGR_PPRE, RCC_HCLK_DIV16);
 80032e2:	4b4b      	ldr	r3, [pc, #300]	; (8003410 <HAL_RCC_ClockConfig+0x188>)
 80032e4:	685a      	ldr	r2, [r3, #4]
 80032e6:	4b4a      	ldr	r3, [pc, #296]	; (8003410 <HAL_RCC_ClockConfig+0x188>)
 80032e8:	21e0      	movs	r1, #224	; 0xe0
 80032ea:	00c9      	lsls	r1, r1, #3
 80032ec:	430a      	orrs	r2, r1
 80032ee:	605a      	str	r2, [r3, #4]
    }

    /* Set the new HCLK clock divider */
    assert_param(IS_RCC_HCLK(RCC_ClkInitStruct->AHBCLKDivider));
    MODIFY_REG(RCC->CFGR, RCC_CFGR_HPRE, RCC_ClkInitStruct->AHBCLKDivider);
 80032f0:	4b47      	ldr	r3, [pc, #284]	; (8003410 <HAL_RCC_ClockConfig+0x188>)
 80032f2:	685b      	ldr	r3, [r3, #4]
 80032f4:	22f0      	movs	r2, #240	; 0xf0
 80032f6:	4393      	bics	r3, r2
 80032f8:	0019      	movs	r1, r3
 80032fa:	687b      	ldr	r3, [r7, #4]
 80032fc:	689a      	ldr	r2, [r3, #8]
 80032fe:	4b44      	ldr	r3, [pc, #272]	; (8003410 <HAL_RCC_ClockConfig+0x188>)
 8003300:	430a      	orrs	r2, r1
 8003302:	605a      	str	r2, [r3, #4]
  }

  /*------------------------- SYSCLK Configuration ---------------------------*/ 
  if(((RCC_ClkInitStruct->ClockType) & RCC_CLOCKTYPE_SYSCLK) == RCC_CLOCKTYPE_SYSCLK)
 8003304:	687b      	ldr	r3, [r7, #4]
 8003306:	681b      	ldr	r3, [r3, #0]
 8003308:	2201      	movs	r2, #1
 800330a:	4013      	ands	r3, r2
 800330c:	d040      	beq.n	8003390 <HAL_RCC_ClockConfig+0x108>
  {
    assert_param(IS_RCC_SYSCLKSOURCE(RCC_ClkInitStruct->SYSCLKSource));
    
    /* HSE is selected as System Clock Source */
    if(RCC_ClkInitStruct->SYSCLKSource == RCC_SYSCLKSOURCE_HSE)
 800330e:	687b      	ldr	r3, [r7, #4]
 8003310:	685b      	ldr	r3, [r3, #4]
 8003312:	2b01      	cmp	r3, #1
 8003314:	d107      	bne.n	8003326 <HAL_RCC_ClockConfig+0x9e>
    {
      /* Check the HSE ready flag */  
      if(__HAL_RCC_GET_FLAG(RCC_FLAG_HSERDY) == RESET)
 8003316:	4b3e      	ldr	r3, [pc, #248]	; (8003410 <HAL_RCC_ClockConfig+0x188>)
 8003318:	681a      	ldr	r2, [r3, #0]
 800331a:	2380      	movs	r3, #128	; 0x80
 800331c:	029b      	lsls	r3, r3, #10
 800331e:	4013      	ands	r3, r2
 8003320:	d114      	bne.n	800334c <HAL_RCC_ClockConfig+0xc4>
      {
        return HAL_ERROR;
 8003322:	2301      	movs	r3, #1
 8003324:	e06e      	b.n	8003404 <HAL_RCC_ClockConfig+0x17c>
      }
    }
    /* PLL is selected as System Clock Source */
    else if(RCC_ClkInitStruct->SYSCLKSource == RCC_SYSCLKSOURCE_PLLCLK)
 8003326:	687b      	ldr	r3, [r7, #4]
 8003328:	685b      	ldr	r3, [r3, #4]
 800332a:	2b02      	cmp	r3, #2
 800332c:	d107      	bne.n	800333e <HAL_RCC_ClockConfig+0xb6>
    {
      /* Check the PLL ready flag */  
      if(__HAL_RCC_GET_FLAG(RCC_FLAG_PLLRDY) == RESET)
 800332e:	4b38      	ldr	r3, [pc, #224]	; (8003410 <HAL_RCC_ClockConfig+0x188>)
 8003330:	681a      	ldr	r2, [r3, #0]
 8003332:	2380      	movs	r3, #128	; 0x80
 8003334:	049b      	lsls	r3, r3, #18
 8003336:	4013      	ands	r3, r2
 8003338:	d108      	bne.n	800334c <HAL_RCC_ClockConfig+0xc4>
      {
        return HAL_ERROR;
 800333a:	2301      	movs	r3, #1
 800333c:	e062      	b.n	8003404 <HAL_RCC_ClockConfig+0x17c>
#endif /* RCC_CFGR_SWS_HSI48 */
    /* HSI is selected as System Clock Source */
    else
    {
      /* Check the HSI ready flag */  
      if(__HAL_RCC_GET_FLAG(RCC_FLAG_HSIRDY) == RESET)
 800333e:	4b34      	ldr	r3, [pc, #208]	; (8003410 <HAL_RCC_ClockConfig+0x188>)
 8003340:	681b      	ldr	r3, [r3, #0]
 8003342:	2202      	movs	r2, #2
 8003344:	4013      	ands	r3, r2
 8003346:	d101      	bne.n	800334c <HAL_RCC_ClockConfig+0xc4>
      {
        return HAL_ERROR;
 8003348:	2301      	movs	r3, #1
 800334a:	e05b      	b.n	8003404 <HAL_RCC_ClockConfig+0x17c>
      }
    }
    __HAL_RCC_SYSCLK_CONFIG(RCC_ClkInitStruct->SYSCLKSource);
 800334c:	4b30      	ldr	r3, [pc, #192]	; (8003410 <HAL_RCC_ClockConfig+0x188>)
 800334e:	685b      	ldr	r3, [r3, #4]
 8003350:	2203      	movs	r2, #3
 8003352:	4393      	bics	r3, r2
 8003354:	0019      	movs	r1, r3
 8003356:	687b      	ldr	r3, [r7, #4]
 8003358:	685a      	ldr	r2, [r3, #4]
 800335a:	4b2d      	ldr	r3, [pc, #180]	; (8003410 <HAL_RCC_ClockConfig+0x188>)
 800335c:	430a      	orrs	r2, r1
 800335e:	605a      	str	r2, [r3, #4]

    /* Get Start Tick */
    tickstart = HAL_GetTick();
 8003360:	f7ff fa26 	bl	80027b0 <HAL_GetTick>
 8003364:	0003      	movs	r3, r0
 8003366:	60fb      	str	r3, [r7, #12]
    
    while (__HAL_RCC_GET_SYSCLK_SOURCE() != (RCC_ClkInitStruct->SYSCLKSource << RCC_CFGR_SWS_Pos))
 8003368:	e009      	b.n	800337e <HAL_RCC_ClockConfig+0xf6>
    {
      if((HAL_GetTick() - tickstart ) > CLOCKSWITCH_TIMEOUT_VALUE)
 800336a:	f7ff fa21 	bl	80027b0 <HAL_GetTick>
 800336e:	0002      	movs	r2, r0
 8003370:	68fb      	ldr	r3, [r7, #12]
 8003372:	1ad3      	subs	r3, r2, r3
 8003374:	4a27      	ldr	r2, [pc, #156]	; (8003414 <HAL_RCC_ClockConfig+0x18c>)
 8003376:	4293      	cmp	r3, r2
 8003378:	d901      	bls.n	800337e <HAL_RCC_ClockConfig+0xf6>
      {
        return HAL_TIMEOUT;
 800337a:	2303      	movs	r3, #3
 800337c:	e042      	b.n	8003404 <HAL_RCC_ClockConfig+0x17c>
    while (__HAL_RCC_GET_SYSCLK_SOURCE() != (RCC_ClkInitStruct->SYSCLKSource << RCC_CFGR_SWS_Pos))
 800337e:	4b24      	ldr	r3, [pc, #144]	; (8003410 <HAL_RCC_ClockConfig+0x188>)
 8003380:	685b      	ldr	r3, [r3, #4]
 8003382:	220c      	movs	r2, #12
 8003384:	401a      	ands	r2, r3
 8003386:	687b      	ldr	r3, [r7, #4]
 8003388:	685b      	ldr	r3, [r3, #4]
 800338a:	009b      	lsls	r3, r3, #2
 800338c:	429a      	cmp	r2, r3
 800338e:	d1ec      	bne.n	800336a <HAL_RCC_ClockConfig+0xe2>
      }
    }
  }

  /* Decreasing the number of wait states because of lower CPU frequency */
  if(FLatency < __HAL_FLASH_GET_LATENCY())
 8003390:	4b1e      	ldr	r3, [pc, #120]	; (800340c <HAL_RCC_ClockConfig+0x184>)
 8003392:	681b      	ldr	r3, [r3, #0]
 8003394:	2201      	movs	r2, #1
 8003396:	4013      	ands	r3, r2
 8003398:	683a      	ldr	r2, [r7, #0]
 800339a:	429a      	cmp	r2, r3
 800339c:	d211      	bcs.n	80033c2 <HAL_RCC_ClockConfig+0x13a>
  {    
    /* Program the new number of wait states to the LATENCY bits in the FLASH_ACR register */
    __HAL_FLASH_SET_LATENCY(FLatency);
 800339e:	4b1b      	ldr	r3, [pc, #108]	; (800340c <HAL_RCC_ClockConfig+0x184>)
 80033a0:	681b      	ldr	r3, [r3, #0]
 80033a2:	2201      	movs	r2, #1
 80033a4:	4393      	bics	r3, r2
 80033a6:	0019      	movs	r1, r3
 80033a8:	4b18      	ldr	r3, [pc, #96]	; (800340c <HAL_RCC_ClockConfig+0x184>)
 80033aa:	683a      	ldr	r2, [r7, #0]
 80033ac:	430a      	orrs	r2, r1
 80033ae:	601a      	str	r2, [r3, #0]
    
    /* Check that the new number of wait states is taken into account to access the Flash
    memory by reading the FLASH_ACR register */
    if(__HAL_FLASH_GET_LATENCY() != FLatency)
 80033b0:	4b16      	ldr	r3, [pc, #88]	; (800340c <HAL_RCC_ClockConfig+0x184>)
 80033b2:	681b      	ldr	r3, [r3, #0]
 80033b4:	2201      	movs	r2, #1
 80033b6:	4013      	ands	r3, r2
 80033b8:	683a      	ldr	r2, [r7, #0]
 80033ba:	429a      	cmp	r2, r3
 80033bc:	d001      	beq.n	80033c2 <HAL_RCC_ClockConfig+0x13a>
    {
      return HAL_ERROR;
 80033be:	2301      	movs	r3, #1
 80033c0:	e020      	b.n	8003404 <HAL_RCC_ClockConfig+0x17c>
    }
  }    

  /*-------------------------- PCLK1 Configuration ---------------------------*/ 
  if(((RCC_ClkInitStruct->ClockType) & RCC_CLOCKTYPE_PCLK1) == RCC_CLOCKTYPE_PCLK1)
 80033c2:	687b      	ldr	r3, [r7, #4]
 80033c4:	681b      	ldr	r3, [r3, #0]
 80033c6:	2204      	movs	r2, #4
 80033c8:	4013      	ands	r3, r2
 80033ca:	d009      	beq.n	80033e0 <HAL_RCC_ClockConfig+0x158>
  {
    assert_param(IS_RCC_PCLK(RCC_ClkInitStruct->APB1CLKDivider));
    MODIFY_REG(RCC->CFGR, RCC_CFGR_PPRE, RCC_ClkInitStruct->APB1CLKDivider);
 80033cc:	4b10      	ldr	r3, [pc, #64]	; (8003410 <HAL_RCC_ClockConfig+0x188>)
 80033ce:	685b      	ldr	r3, [r3, #4]
 80033d0:	4a11      	ldr	r2, [pc, #68]	; (8003418 <HAL_RCC_ClockConfig+0x190>)
 80033d2:	4013      	ands	r3, r2
 80033d4:	0019      	movs	r1, r3
 80033d6:	687b      	ldr	r3, [r7, #4]
 80033d8:	68da      	ldr	r2, [r3, #12]
 80033da:	4b0d      	ldr	r3, [pc, #52]	; (8003410 <HAL_RCC_ClockConfig+0x188>)
 80033dc:	430a      	orrs	r2, r1
 80033de:	605a      	str	r2, [r3, #4]
  }
  
  /* Update the SystemCoreClock global variable */
  SystemCoreClock = HAL_RCC_GetSysClockFreq() >> AHBPrescTable[(RCC->CFGR & RCC_CFGR_HPRE)>> RCC_CFGR_HPRE_BITNUMBER];
 80033e0:	f000 f820 	bl	8003424 <HAL_RCC_GetSysClockFreq>
 80033e4:	0001      	movs	r1, r0
 80033e6:	4b0a      	ldr	r3, [pc, #40]	; (8003410 <HAL_RCC_ClockConfig+0x188>)
 80033e8:	685b      	ldr	r3, [r3, #4]
 80033ea:	091b      	lsrs	r3, r3, #4
 80033ec:	220f      	movs	r2, #15
 80033ee:	4013      	ands	r3, r2
 80033f0:	4a0a      	ldr	r2, [pc, #40]	; (800341c <HAL_RCC_ClockConfig+0x194>)
 80033f2:	5cd3      	ldrb	r3, [r2, r3]
 80033f4:	000a      	movs	r2, r1
 80033f6:	40da      	lsrs	r2, r3
 80033f8:	4b09      	ldr	r3, [pc, #36]	; (8003420 <HAL_RCC_ClockConfig+0x198>)
 80033fa:	601a      	str	r2, [r3, #0]

  /* Configure the source of time base considering new system clocks settings*/
  HAL_InitTick (TICK_INT_PRIORITY);
 80033fc:	2000      	movs	r0, #0
 80033fe:	f7ff f991 	bl	8002724 <HAL_InitTick>
  
  return HAL_OK;
 8003402:	2300      	movs	r3, #0
}
 8003404:	0018      	movs	r0, r3
 8003406:	46bd      	mov	sp, r7
 8003408:	b004      	add	sp, #16
 800340a:	bd80      	pop	{r7, pc}
 800340c:	40022000 	.word	0x40022000
 8003410:	40021000 	.word	0x40021000
 8003414:	00001388 	.word	0x00001388
 8003418:	fffff8ff 	.word	0xfffff8ff
 800341c:	08004444 	.word	0x08004444
 8003420:	2000000c 	.word	0x2000000c

08003424 <HAL_RCC_GetSysClockFreq>:
  *         right SYSCLK value. Otherwise, any configuration based on this function will be incorrect.
  *         
  * @retval SYSCLK frequency
  */
uint32_t HAL_RCC_GetSysClockFreq(void)
{
 8003424:	b590      	push	{r4, r7, lr}
 8003426:	b08f      	sub	sp, #60	; 0x3c
 8003428:	af00      	add	r7, sp, #0
  const uint8_t aPLLMULFactorTable[16] = { 2U,  3U,  4U,  5U,  6U,  7U,  8U,  9U,
 800342a:	2314      	movs	r3, #20
 800342c:	18fb      	adds	r3, r7, r3
 800342e:	4a2b      	ldr	r2, [pc, #172]	; (80034dc <HAL_RCC_GetSysClockFreq+0xb8>)
 8003430:	ca13      	ldmia	r2!, {r0, r1, r4}
 8003432:	c313      	stmia	r3!, {r0, r1, r4}
 8003434:	6812      	ldr	r2, [r2, #0]
 8003436:	601a      	str	r2, [r3, #0]
                                         10U, 11U, 12U, 13U, 14U, 15U, 16U, 16U};
  const uint8_t aPredivFactorTable[16] = { 1U, 2U,  3U,  4U,  5U,  6U,  7U,  8U,
 8003438:	1d3b      	adds	r3, r7, #4
 800343a:	4a29      	ldr	r2, [pc, #164]	; (80034e0 <HAL_RCC_GetSysClockFreq+0xbc>)
 800343c:	ca13      	ldmia	r2!, {r0, r1, r4}
 800343e:	c313      	stmia	r3!, {r0, r1, r4}
 8003440:	6812      	ldr	r2, [r2, #0]
 8003442:	601a      	str	r2, [r3, #0]
                                           9U,10U, 11U, 12U, 13U, 14U, 15U, 16U};

  uint32_t tmpreg = 0U, prediv = 0U, pllclk = 0U, pllmul = 0U;
 8003444:	2300      	movs	r3, #0
 8003446:	62fb      	str	r3, [r7, #44]	; 0x2c
 8003448:	2300      	movs	r3, #0
 800344a:	62bb      	str	r3, [r7, #40]	; 0x28
 800344c:	2300      	movs	r3, #0
 800344e:	637b      	str	r3, [r7, #52]	; 0x34
 8003450:	2300      	movs	r3, #0
 8003452:	627b      	str	r3, [r7, #36]	; 0x24
  uint32_t sysclockfreq = 0U;
 8003454:	2300      	movs	r3, #0
 8003456:	633b      	str	r3, [r7, #48]	; 0x30
  
  tmpreg = RCC->CFGR;
 8003458:	4b22      	ldr	r3, [pc, #136]	; (80034e4 <HAL_RCC_GetSysClockFreq+0xc0>)
 800345a:	685b      	ldr	r3, [r3, #4]
 800345c:	62fb      	str	r3, [r7, #44]	; 0x2c
  
  /* Get SYSCLK source -------------------------------------------------------*/
  switch (tmpreg & RCC_CFGR_SWS)
 800345e:	6afb      	ldr	r3, [r7, #44]	; 0x2c
 8003460:	220c      	movs	r2, #12
 8003462:	4013      	ands	r3, r2
 8003464:	2b04      	cmp	r3, #4
 8003466:	d002      	beq.n	800346e <HAL_RCC_GetSysClockFreq+0x4a>
 8003468:	2b08      	cmp	r3, #8
 800346a:	d003      	beq.n	8003474 <HAL_RCC_GetSysClockFreq+0x50>
 800346c:	e02d      	b.n	80034ca <HAL_RCC_GetSysClockFreq+0xa6>
  {
    case RCC_SYSCLKSOURCE_STATUS_HSE:  /* HSE used as system clock */
    {
      sysclockfreq = HSE_VALUE;
 800346e:	4b1e      	ldr	r3, [pc, #120]	; (80034e8 <HAL_RCC_GetSysClockFreq+0xc4>)
 8003470:	633b      	str	r3, [r7, #48]	; 0x30
      break;
 8003472:	e02d      	b.n	80034d0 <HAL_RCC_GetSysClockFreq+0xac>
    }
    case RCC_SYSCLKSOURCE_STATUS_PLLCLK:  /* PLL used as system clock */
    {
      pllmul = aPLLMULFactorTable[(uint32_t)(tmpreg & RCC_CFGR_PLLMUL) >> RCC_CFGR_PLLMUL_BITNUMBER];
 8003474:	6afb      	ldr	r3, [r7, #44]	; 0x2c
 8003476:	0c9b      	lsrs	r3, r3, #18
 8003478:	220f      	movs	r2, #15
 800347a:	4013      	ands	r3, r2
 800347c:	2214      	movs	r2, #20
 800347e:	18ba      	adds	r2, r7, r2
 8003480:	5cd3      	ldrb	r3, [r2, r3]
 8003482:	627b      	str	r3, [r7, #36]	; 0x24
      prediv = aPredivFactorTable[(uint32_t)(RCC->CFGR2 & RCC_CFGR2_PREDIV) >> RCC_CFGR2_PREDIV_BITNUMBER];
 8003484:	4b17      	ldr	r3, [pc, #92]	; (80034e4 <HAL_RCC_GetSysClockFreq+0xc0>)
 8003486:	6adb      	ldr	r3, [r3, #44]	; 0x2c
 8003488:	220f      	movs	r2, #15
 800348a:	4013      	ands	r3, r2
 800348c:	1d3a      	adds	r2, r7, #4
 800348e:	5cd3      	ldrb	r3, [r2, r3]
 8003490:	62bb      	str	r3, [r7, #40]	; 0x28
      if ((tmpreg & RCC_CFGR_PLLSRC) == RCC_PLLSOURCE_HSE)
 8003492:	6afa      	ldr	r2, [r7, #44]	; 0x2c
 8003494:	2380      	movs	r3, #128	; 0x80
 8003496:	025b      	lsls	r3, r3, #9
 8003498:	4013      	ands	r3, r2
 800349a:	d009      	beq.n	80034b0 <HAL_RCC_GetSysClockFreq+0x8c>
      {
        /* HSE used as PLL clock source : PLLCLK = HSE/PREDIV * PLLMUL */
        pllclk = (uint32_t)((uint64_t) HSE_VALUE / (uint64_t) (prediv)) * ((uint64_t) pllmul);
 800349c:	6ab9      	ldr	r1, [r7, #40]	; 0x28
 800349e:	4812      	ldr	r0, [pc, #72]	; (80034e8 <HAL_RCC_GetSysClockFreq+0xc4>)
 80034a0:	f7fc fe32 	bl	8000108 <__udivsi3>
 80034a4:	0003      	movs	r3, r0
 80034a6:	001a      	movs	r2, r3
 80034a8:	6a7b      	ldr	r3, [r7, #36]	; 0x24
 80034aa:	4353      	muls	r3, r2
 80034ac:	637b      	str	r3, [r7, #52]	; 0x34
 80034ae:	e009      	b.n	80034c4 <HAL_RCC_GetSysClockFreq+0xa0>
#if  (defined(STM32F042x6) || defined(STM32F048xx) || defined(STM32F070x6) || defined(STM32F071xB) || defined(STM32F072xB) || defined(STM32F078xx) || defined(STM32F070xB) || defined(STM32F091xC) || defined(STM32F098xx) || defined(STM32F030xC))
        /* HSI used as PLL clock source : PLLCLK = HSI/PREDIV * PLLMUL */
        pllclk = (uint32_t)((uint64_t) HSI_VALUE / (uint64_t) (prediv)) * ((uint64_t) pllmul);
#else
        /* HSI used as PLL clock source : PLLCLK = HSI/2 * PLLMUL */
        pllclk = (uint32_t)((uint64_t) (HSI_VALUE >> 1U) * ((uint64_t) pllmul));
 80034b0:	6a79      	ldr	r1, [r7, #36]	; 0x24
 80034b2:	000a      	movs	r2, r1
 80034b4:	0152      	lsls	r2, r2, #5
 80034b6:	1a52      	subs	r2, r2, r1
 80034b8:	0193      	lsls	r3, r2, #6
 80034ba:	1a9b      	subs	r3, r3, r2
 80034bc:	00db      	lsls	r3, r3, #3
 80034be:	185b      	adds	r3, r3, r1
 80034c0:	021b      	lsls	r3, r3, #8
 80034c2:	637b      	str	r3, [r7, #52]	; 0x34
#endif
      }
      sysclockfreq = pllclk;
 80034c4:	6b7b      	ldr	r3, [r7, #52]	; 0x34
 80034c6:	633b      	str	r3, [r7, #48]	; 0x30
      break;
 80034c8:	e002      	b.n	80034d0 <HAL_RCC_GetSysClockFreq+0xac>
    }
#endif /* RCC_CFGR_SWS_HSI48 */
    case RCC_SYSCLKSOURCE_STATUS_HSI:  /* HSI used as system clock source */
    default: /* HSI used as system clock */
    {
      sysclockfreq = HSI_VALUE;
 80034ca:	4b07      	ldr	r3, [pc, #28]	; (80034e8 <HAL_RCC_GetSysClockFreq+0xc4>)
 80034cc:	633b      	str	r3, [r7, #48]	; 0x30
      break;
 80034ce:	46c0      	nop			; (mov r8, r8)
    }
  }
  return sysclockfreq;
 80034d0:	6b3b      	ldr	r3, [r7, #48]	; 0x30
}
 80034d2:	0018      	movs	r0, r3
 80034d4:	46bd      	mov	sp, r7
 80034d6:	b00f      	add	sp, #60	; 0x3c
 80034d8:	bd90      	pop	{r4, r7, pc}
 80034da:	46c0      	nop			; (mov r8, r8)
 80034dc:	080043a4 	.word	0x080043a4
 80034e0:	080043b4 	.word	0x080043b4
 80034e4:	40021000 	.word	0x40021000
 80034e8:	007a1200 	.word	0x007a1200

080034ec <HAL_TIM_Base_Init>:
  *         Ex: call @ref HAL_TIM_Base_DeInit() before HAL_TIM_Base_Init()
  * @param  htim TIM Base handle
  * @retval HAL status
  */
HAL_StatusTypeDef HAL_TIM_Base_Init(TIM_HandleTypeDef *htim)
{
 80034ec:	b580      	push	{r7, lr}
 80034ee:	b082      	sub	sp, #8
 80034f0:	af00      	add	r7, sp, #0
 80034f2:	6078      	str	r0, [r7, #4]
  /* Check the TIM handle allocation */
  if (htim == NULL)
 80034f4:	687b      	ldr	r3, [r7, #4]
 80034f6:	2b00      	cmp	r3, #0
 80034f8:	d101      	bne.n	80034fe <HAL_TIM_Base_Init+0x12>
  {
    return HAL_ERROR;
 80034fa:	2301      	movs	r3, #1
 80034fc:	e01e      	b.n	800353c <HAL_TIM_Base_Init+0x50>
  assert_param(IS_TIM_INSTANCE(htim->Instance));
  assert_param(IS_TIM_COUNTER_MODE(htim->Init.CounterMode));
  assert_param(IS_TIM_CLOCKDIVISION_DIV(htim->Init.ClockDivision));
  assert_param(IS_TIM_AUTORELOAD_PRELOAD(htim->Init.AutoReloadPreload));

  if (htim->State == HAL_TIM_STATE_RESET)
 80034fe:	687b      	ldr	r3, [r7, #4]
 8003500:	223d      	movs	r2, #61	; 0x3d
 8003502:	5c9b      	ldrb	r3, [r3, r2]
 8003504:	b2db      	uxtb	r3, r3
 8003506:	2b00      	cmp	r3, #0
 8003508:	d107      	bne.n	800351a <HAL_TIM_Base_Init+0x2e>
  {
    /* Allocate lock resource and initialize it */
    htim->Lock = HAL_UNLOCKED;
 800350a:	687b      	ldr	r3, [r7, #4]
 800350c:	223c      	movs	r2, #60	; 0x3c
 800350e:	2100      	movs	r1, #0
 8003510:	5499      	strb	r1, [r3, r2]
    }
    /* Init the low level hardware : GPIO, CLOCK, NVIC */
    htim->Base_MspInitCallback(htim);
#else
    /* Init the low level hardware : GPIO, CLOCK, NVIC */
    HAL_TIM_Base_MspInit(htim);
 8003512:	687b      	ldr	r3, [r7, #4]
 8003514:	0018      	movs	r0, r3
 8003516:	f7fe ffb7 	bl	8002488 <HAL_TIM_Base_MspInit>
#endif /* USE_HAL_TIM_REGISTER_CALLBACKS */
  }

  /* Set the TIM state */
  htim->State = HAL_TIM_STATE_BUSY;
 800351a:	687b      	ldr	r3, [r7, #4]
 800351c:	223d      	movs	r2, #61	; 0x3d
 800351e:	2102      	movs	r1, #2
 8003520:	5499      	strb	r1, [r3, r2]

  /* Set the Time Base configuration */
  TIM_Base_SetConfig(htim->Instance, &htim->Init);
 8003522:	687b      	ldr	r3, [r7, #4]
 8003524:	681a      	ldr	r2, [r3, #0]
 8003526:	687b      	ldr	r3, [r7, #4]
 8003528:	3304      	adds	r3, #4
 800352a:	0019      	movs	r1, r3
 800352c:	0010      	movs	r0, r2
 800352e:	f000 f9f7 	bl	8003920 <TIM_Base_SetConfig>

  /* Initialize the TIM state*/
  htim->State = HAL_TIM_STATE_READY;
 8003532:	687b      	ldr	r3, [r7, #4]
 8003534:	223d      	movs	r2, #61	; 0x3d
 8003536:	2101      	movs	r1, #1
 8003538:	5499      	strb	r1, [r3, r2]

  return HAL_OK;
 800353a:	2300      	movs	r3, #0
}
 800353c:	0018      	movs	r0, r3
 800353e:	46bd      	mov	sp, r7
 8003540:	b002      	add	sp, #8
 8003542:	bd80      	pop	{r7, pc}

08003544 <HAL_TIM_PWM_Init>:
  *         Ex: call @ref HAL_TIM_PWM_DeInit() before HAL_TIM_PWM_Init()
  * @param  htim TIM PWM handle
  * @retval HAL status
  */
HAL_StatusTypeDef HAL_TIM_PWM_Init(TIM_HandleTypeDef *htim)
{
 8003544:	b580      	push	{r7, lr}
 8003546:	b082      	sub	sp, #8
 8003548:	af00      	add	r7, sp, #0
 800354a:	6078      	str	r0, [r7, #4]
  /* Check the TIM handle allocation */
  if (htim == NULL)
 800354c:	687b      	ldr	r3, [r7, #4]
 800354e:	2b00      	cmp	r3, #0
 8003550:	d101      	bne.n	8003556 <HAL_TIM_PWM_Init+0x12>
  {
    return HAL_ERROR;
 8003552:	2301      	movs	r3, #1
 8003554:	e01e      	b.n	8003594 <HAL_TIM_PWM_Init+0x50>
  assert_param(IS_TIM_INSTANCE(htim->Instance));
  assert_param(IS_TIM_COUNTER_MODE(htim->Init.CounterMode));
  assert_param(IS_TIM_CLOCKDIVISION_DIV(htim->Init.ClockDivision));
  assert_param(IS_TIM_AUTORELOAD_PRELOAD(htim->Init.AutoReloadPreload));

  if (htim->State == HAL_TIM_STATE_RESET)
 8003556:	687b      	ldr	r3, [r7, #4]
 8003558:	223d      	movs	r2, #61	; 0x3d
 800355a:	5c9b      	ldrb	r3, [r3, r2]
 800355c:	b2db      	uxtb	r3, r3
 800355e:	2b00      	cmp	r3, #0
 8003560:	d107      	bne.n	8003572 <HAL_TIM_PWM_Init+0x2e>
  {
    /* Allocate lock resource and initialize it */
    htim->Lock = HAL_UNLOCKED;
 8003562:	687b      	ldr	r3, [r7, #4]
 8003564:	223c      	movs	r2, #60	; 0x3c
 8003566:	2100      	movs	r1, #0
 8003568:	5499      	strb	r1, [r3, r2]
    }
    /* Init the low level hardware : GPIO, CLOCK, NVIC */
    htim->PWM_MspInitCallback(htim);
#else
    /* Init the low level hardware : GPIO, CLOCK, NVIC and DMA */
    HAL_TIM_PWM_MspInit(htim);
 800356a:	687b      	ldr	r3, [r7, #4]
 800356c:	0018      	movs	r0, r3
 800356e:	f7fe ffab 	bl	80024c8 <HAL_TIM_PWM_MspInit>
#endif /* USE_HAL_TIM_REGISTER_CALLBACKS */
  }

  /* Set the TIM state */
  htim->State = HAL_TIM_STATE_BUSY;
 8003572:	687b      	ldr	r3, [r7, #4]
 8003574:	223d      	movs	r2, #61	; 0x3d
 8003576:	2102      	movs	r1, #2
 8003578:	5499      	strb	r1, [r3, r2]

  /* Init the base time for the PWM */
  TIM_Base_SetConfig(htim->Instance, &htim->Init);
 800357a:	687b      	ldr	r3, [r7, #4]
 800357c:	681a      	ldr	r2, [r3, #0]
 800357e:	687b      	ldr	r3, [r7, #4]
 8003580:	3304      	adds	r3, #4
 8003582:	0019      	movs	r1, r3
 8003584:	0010      	movs	r0, r2
 8003586:	f000 f9cb 	bl	8003920 <TIM_Base_SetConfig>

  /* Initialize the TIM state*/
  htim->State = HAL_TIM_STATE_READY;
 800358a:	687b      	ldr	r3, [r7, #4]
 800358c:	223d      	movs	r2, #61	; 0x3d
 800358e:	2101      	movs	r1, #1
 8003590:	5499      	strb	r1, [r3, r2]

  return HAL_OK;
 8003592:	2300      	movs	r3, #0
}
 8003594:	0018      	movs	r0, r3
 8003596:	46bd      	mov	sp, r7
 8003598:	b002      	add	sp, #8
 800359a:	bd80      	pop	{r7, pc}

0800359c <HAL_TIM_PWM_Start>:
  *            @arg TIM_CHANNEL_3: TIM Channel 3 selected
  *            @arg TIM_CHANNEL_4: TIM Channel 4 selected
  * @retval HAL status
  */
HAL_StatusTypeDef HAL_TIM_PWM_Start(TIM_HandleTypeDef *htim, uint32_t Channel)
{
 800359c:	b580      	push	{r7, lr}
 800359e:	b084      	sub	sp, #16
 80035a0:	af00      	add	r7, sp, #0
 80035a2:	6078      	str	r0, [r7, #4]
 80035a4:	6039      	str	r1, [r7, #0]

  /* Check the parameters */
  assert_param(IS_TIM_CCX_INSTANCE(htim->Instance, Channel));

  /* Enable the Capture compare channel */
  TIM_CCxChannelCmd(htim->Instance, Channel, TIM_CCx_ENABLE);
 80035a6:	687b      	ldr	r3, [r7, #4]
 80035a8:	681b      	ldr	r3, [r3, #0]
 80035aa:	6839      	ldr	r1, [r7, #0]
 80035ac:	2201      	movs	r2, #1
 80035ae:	0018      	movs	r0, r3
 80035b0:	f000 fccc 	bl	8003f4c <TIM_CCxChannelCmd>

  if (IS_TIM_BREAK_INSTANCE(htim->Instance) != RESET)
 80035b4:	687b      	ldr	r3, [r7, #4]
 80035b6:	681b      	ldr	r3, [r3, #0]
 80035b8:	4a1a      	ldr	r2, [pc, #104]	; (8003624 <HAL_TIM_PWM_Start+0x88>)
 80035ba:	4293      	cmp	r3, r2
 80035bc:	d00e      	beq.n	80035dc <HAL_TIM_PWM_Start+0x40>
 80035be:	687b      	ldr	r3, [r7, #4]
 80035c0:	681b      	ldr	r3, [r3, #0]
 80035c2:	4a19      	ldr	r2, [pc, #100]	; (8003628 <HAL_TIM_PWM_Start+0x8c>)
 80035c4:	4293      	cmp	r3, r2
 80035c6:	d009      	beq.n	80035dc <HAL_TIM_PWM_Start+0x40>
 80035c8:	687b      	ldr	r3, [r7, #4]
 80035ca:	681b      	ldr	r3, [r3, #0]
 80035cc:	4a17      	ldr	r2, [pc, #92]	; (800362c <HAL_TIM_PWM_Start+0x90>)
 80035ce:	4293      	cmp	r3, r2
 80035d0:	d004      	beq.n	80035dc <HAL_TIM_PWM_Start+0x40>
 80035d2:	687b      	ldr	r3, [r7, #4]
 80035d4:	681b      	ldr	r3, [r3, #0]
 80035d6:	4a16      	ldr	r2, [pc, #88]	; (8003630 <HAL_TIM_PWM_Start+0x94>)
 80035d8:	4293      	cmp	r3, r2
 80035da:	d101      	bne.n	80035e0 <HAL_TIM_PWM_Start+0x44>
 80035dc:	2301      	movs	r3, #1
 80035de:	e000      	b.n	80035e2 <HAL_TIM_PWM_Start+0x46>
 80035e0:	2300      	movs	r3, #0
 80035e2:	2b00      	cmp	r3, #0
 80035e4:	d008      	beq.n	80035f8 <HAL_TIM_PWM_Start+0x5c>
  {
    /* Enable the main output */
    __HAL_TIM_MOE_ENABLE(htim);
 80035e6:	687b      	ldr	r3, [r7, #4]
 80035e8:	681b      	ldr	r3, [r3, #0]
 80035ea:	6c5a      	ldr	r2, [r3, #68]	; 0x44
 80035ec:	687b      	ldr	r3, [r7, #4]
 80035ee:	681b      	ldr	r3, [r3, #0]
 80035f0:	2180      	movs	r1, #128	; 0x80
 80035f2:	0209      	lsls	r1, r1, #8
 80035f4:	430a      	orrs	r2, r1
 80035f6:	645a      	str	r2, [r3, #68]	; 0x44
  }

  /* Enable the Peripheral, except in trigger mode where enable is automatically done with trigger */
  tmpsmcr = htim->Instance->SMCR & TIM_SMCR_SMS;
 80035f8:	687b      	ldr	r3, [r7, #4]
 80035fa:	681b      	ldr	r3, [r3, #0]
 80035fc:	689b      	ldr	r3, [r3, #8]
 80035fe:	2207      	movs	r2, #7
 8003600:	4013      	ands	r3, r2
 8003602:	60fb      	str	r3, [r7, #12]
  if (!IS_TIM_SLAVEMODE_TRIGGER_ENABLED(tmpsmcr))
 8003604:	68fb      	ldr	r3, [r7, #12]
 8003606:	2b06      	cmp	r3, #6
 8003608:	d007      	beq.n	800361a <HAL_TIM_PWM_Start+0x7e>
  {
    __HAL_TIM_ENABLE(htim);
 800360a:	687b      	ldr	r3, [r7, #4]
 800360c:	681b      	ldr	r3, [r3, #0]
 800360e:	681a      	ldr	r2, [r3, #0]
 8003610:	687b      	ldr	r3, [r7, #4]
 8003612:	681b      	ldr	r3, [r3, #0]
 8003614:	2101      	movs	r1, #1
 8003616:	430a      	orrs	r2, r1
 8003618:	601a      	str	r2, [r3, #0]
  }

  /* Return function status */
  return HAL_OK;
 800361a:	2300      	movs	r3, #0
}
 800361c:	0018      	movs	r0, r3
 800361e:	46bd      	mov	sp, r7
 8003620:	b004      	add	sp, #16
 8003622:	bd80      	pop	{r7, pc}
 8003624:	40012c00 	.word	0x40012c00
 8003628:	40014000 	.word	0x40014000
 800362c:	40014400 	.word	0x40014400
 8003630:	40014800 	.word	0x40014800

08003634 <HAL_TIM_PWM_ConfigChannel>:
  * @retval HAL status
  */
HAL_StatusTypeDef HAL_TIM_PWM_ConfigChannel(TIM_HandleTypeDef *htim,
                                            TIM_OC_InitTypeDef *sConfig,
                                            uint32_t Channel)
{
 8003634:	b580      	push	{r7, lr}
 8003636:	b084      	sub	sp, #16
 8003638:	af00      	add	r7, sp, #0
 800363a:	60f8      	str	r0, [r7, #12]
 800363c:	60b9      	str	r1, [r7, #8]
 800363e:	607a      	str	r2, [r7, #4]
  assert_param(IS_TIM_PWM_MODE(sConfig->OCMode));
  assert_param(IS_TIM_OC_POLARITY(sConfig->OCPolarity));
  assert_param(IS_TIM_FAST_STATE(sConfig->OCFastMode));

  /* Process Locked */
  __HAL_LOCK(htim);
 8003640:	68fb      	ldr	r3, [r7, #12]
 8003642:	223c      	movs	r2, #60	; 0x3c
 8003644:	5c9b      	ldrb	r3, [r3, r2]
 8003646:	2b01      	cmp	r3, #1
 8003648:	d101      	bne.n	800364e <HAL_TIM_PWM_ConfigChannel+0x1a>
 800364a:	2302      	movs	r3, #2
 800364c:	e0a4      	b.n	8003798 <HAL_TIM_PWM_ConfigChannel+0x164>
 800364e:	68fb      	ldr	r3, [r7, #12]
 8003650:	223c      	movs	r2, #60	; 0x3c
 8003652:	2101      	movs	r1, #1
 8003654:	5499      	strb	r1, [r3, r2]

  htim->State = HAL_TIM_STATE_BUSY;
 8003656:	68fb      	ldr	r3, [r7, #12]
 8003658:	223d      	movs	r2, #61	; 0x3d
 800365a:	2102      	movs	r1, #2
 800365c:	5499      	strb	r1, [r3, r2]

  switch (Channel)
 800365e:	687b      	ldr	r3, [r7, #4]
 8003660:	2b04      	cmp	r3, #4
 8003662:	d029      	beq.n	80036b8 <HAL_TIM_PWM_ConfigChannel+0x84>
 8003664:	d802      	bhi.n	800366c <HAL_TIM_PWM_ConfigChannel+0x38>
 8003666:	2b00      	cmp	r3, #0
 8003668:	d005      	beq.n	8003676 <HAL_TIM_PWM_ConfigChannel+0x42>
      htim->Instance->CCMR2 |= sConfig->OCFastMode << 8U;
      break;
    }

    default:
      break;
 800366a:	e08c      	b.n	8003786 <HAL_TIM_PWM_ConfigChannel+0x152>
  switch (Channel)
 800366c:	2b08      	cmp	r3, #8
 800366e:	d046      	beq.n	80036fe <HAL_TIM_PWM_ConfigChannel+0xca>
 8003670:	2b0c      	cmp	r3, #12
 8003672:	d065      	beq.n	8003740 <HAL_TIM_PWM_ConfigChannel+0x10c>
      break;
 8003674:	e087      	b.n	8003786 <HAL_TIM_PWM_ConfigChannel+0x152>
      TIM_OC1_SetConfig(htim->Instance, sConfig);
 8003676:	68fb      	ldr	r3, [r7, #12]
 8003678:	681b      	ldr	r3, [r3, #0]
 800367a:	68ba      	ldr	r2, [r7, #8]
 800367c:	0011      	movs	r1, r2
 800367e:	0018      	movs	r0, r3
 8003680:	f000 f9ce 	bl	8003a20 <TIM_OC1_SetConfig>
      htim->Instance->CCMR1 |= TIM_CCMR1_OC1PE;
 8003684:	68fb      	ldr	r3, [r7, #12]
 8003686:	681b      	ldr	r3, [r3, #0]
 8003688:	699a      	ldr	r2, [r3, #24]
 800368a:	68fb      	ldr	r3, [r7, #12]
 800368c:	681b      	ldr	r3, [r3, #0]
 800368e:	2108      	movs	r1, #8
 8003690:	430a      	orrs	r2, r1
 8003692:	619a      	str	r2, [r3, #24]
      htim->Instance->CCMR1 &= ~TIM_CCMR1_OC1FE;
 8003694:	68fb      	ldr	r3, [r7, #12]
 8003696:	681b      	ldr	r3, [r3, #0]
 8003698:	699a      	ldr	r2, [r3, #24]
 800369a:	68fb      	ldr	r3, [r7, #12]
 800369c:	681b      	ldr	r3, [r3, #0]
 800369e:	2104      	movs	r1, #4
 80036a0:	438a      	bics	r2, r1
 80036a2:	619a      	str	r2, [r3, #24]
      htim->Instance->CCMR1 |= sConfig->OCFastMode;
 80036a4:	68fb      	ldr	r3, [r7, #12]
 80036a6:	681b      	ldr	r3, [r3, #0]
 80036a8:	6999      	ldr	r1, [r3, #24]
 80036aa:	68bb      	ldr	r3, [r7, #8]
 80036ac:	691a      	ldr	r2, [r3, #16]
 80036ae:	68fb      	ldr	r3, [r7, #12]
 80036b0:	681b      	ldr	r3, [r3, #0]
 80036b2:	430a      	orrs	r2, r1
 80036b4:	619a      	str	r2, [r3, #24]
      break;
 80036b6:	e066      	b.n	8003786 <HAL_TIM_PWM_ConfigChannel+0x152>
      TIM_OC2_SetConfig(htim->Instance, sConfig);
 80036b8:	68fb      	ldr	r3, [r7, #12]
 80036ba:	681b      	ldr	r3, [r3, #0]
 80036bc:	68ba      	ldr	r2, [r7, #8]
 80036be:	0011      	movs	r1, r2
 80036c0:	0018      	movs	r0, r3
 80036c2:	f000 fa35 	bl	8003b30 <TIM_OC2_SetConfig>
      htim->Instance->CCMR1 |= TIM_CCMR1_OC2PE;
 80036c6:	68fb      	ldr	r3, [r7, #12]
 80036c8:	681b      	ldr	r3, [r3, #0]
 80036ca:	699a      	ldr	r2, [r3, #24]
 80036cc:	68fb      	ldr	r3, [r7, #12]
 80036ce:	681b      	ldr	r3, [r3, #0]
 80036d0:	2180      	movs	r1, #128	; 0x80
 80036d2:	0109      	lsls	r1, r1, #4
 80036d4:	430a      	orrs	r2, r1
 80036d6:	619a      	str	r2, [r3, #24]
      htim->Instance->CCMR1 &= ~TIM_CCMR1_OC2FE;
 80036d8:	68fb      	ldr	r3, [r7, #12]
 80036da:	681b      	ldr	r3, [r3, #0]
 80036dc:	699a      	ldr	r2, [r3, #24]
 80036de:	68fb      	ldr	r3, [r7, #12]
 80036e0:	681b      	ldr	r3, [r3, #0]
 80036e2:	492f      	ldr	r1, [pc, #188]	; (80037a0 <HAL_TIM_PWM_ConfigChannel+0x16c>)
 80036e4:	400a      	ands	r2, r1
 80036e6:	619a      	str	r2, [r3, #24]
      htim->Instance->CCMR1 |= sConfig->OCFastMode << 8U;
 80036e8:	68fb      	ldr	r3, [r7, #12]
 80036ea:	681b      	ldr	r3, [r3, #0]
 80036ec:	6999      	ldr	r1, [r3, #24]
 80036ee:	68bb      	ldr	r3, [r7, #8]
 80036f0:	691b      	ldr	r3, [r3, #16]
 80036f2:	021a      	lsls	r2, r3, #8
 80036f4:	68fb      	ldr	r3, [r7, #12]
 80036f6:	681b      	ldr	r3, [r3, #0]
 80036f8:	430a      	orrs	r2, r1
 80036fa:	619a      	str	r2, [r3, #24]
      break;
 80036fc:	e043      	b.n	8003786 <HAL_TIM_PWM_ConfigChannel+0x152>
      TIM_OC3_SetConfig(htim->Instance, sConfig);
 80036fe:	68fb      	ldr	r3, [r7, #12]
 8003700:	681b      	ldr	r3, [r3, #0]
 8003702:	68ba      	ldr	r2, [r7, #8]
 8003704:	0011      	movs	r1, r2
 8003706:	0018      	movs	r0, r3
 8003708:	f000 fa96 	bl	8003c38 <TIM_OC3_SetConfig>
      htim->Instance->CCMR2 |= TIM_CCMR2_OC3PE;
 800370c:	68fb      	ldr	r3, [r7, #12]
 800370e:	681b      	ldr	r3, [r3, #0]
 8003710:	69da      	ldr	r2, [r3, #28]
 8003712:	68fb      	ldr	r3, [r7, #12]
 8003714:	681b      	ldr	r3, [r3, #0]
 8003716:	2108      	movs	r1, #8
 8003718:	430a      	orrs	r2, r1
 800371a:	61da      	str	r2, [r3, #28]
      htim->Instance->CCMR2 &= ~TIM_CCMR2_OC3FE;
 800371c:	68fb      	ldr	r3, [r7, #12]
 800371e:	681b      	ldr	r3, [r3, #0]
 8003720:	69da      	ldr	r2, [r3, #28]
 8003722:	68fb      	ldr	r3, [r7, #12]
 8003724:	681b      	ldr	r3, [r3, #0]
 8003726:	2104      	movs	r1, #4
 8003728:	438a      	bics	r2, r1
 800372a:	61da      	str	r2, [r3, #28]
      htim->Instance->CCMR2 |= sConfig->OCFastMode;
 800372c:	68fb      	ldr	r3, [r7, #12]
 800372e:	681b      	ldr	r3, [r3, #0]
 8003730:	69d9      	ldr	r1, [r3, #28]
 8003732:	68bb      	ldr	r3, [r7, #8]
 8003734:	691a      	ldr	r2, [r3, #16]
 8003736:	68fb      	ldr	r3, [r7, #12]
 8003738:	681b      	ldr	r3, [r3, #0]
 800373a:	430a      	orrs	r2, r1
 800373c:	61da      	str	r2, [r3, #28]
      break;
 800373e:	e022      	b.n	8003786 <HAL_TIM_PWM_ConfigChannel+0x152>
      TIM_OC4_SetConfig(htim->Instance, sConfig);
 8003740:	68fb      	ldr	r3, [r7, #12]
 8003742:	681b      	ldr	r3, [r3, #0]
 8003744:	68ba      	ldr	r2, [r7, #8]
 8003746:	0011      	movs	r1, r2
 8003748:	0018      	movs	r0, r3
 800374a:	f000 fafb 	bl	8003d44 <TIM_OC4_SetConfig>
      htim->Instance->CCMR2 |= TIM_CCMR2_OC4PE;
 800374e:	68fb      	ldr	r3, [r7, #12]
 8003750:	681b      	ldr	r3, [r3, #0]
 8003752:	69da      	ldr	r2, [r3, #28]
 8003754:	68fb      	ldr	r3, [r7, #12]
 8003756:	681b      	ldr	r3, [r3, #0]
 8003758:	2180      	movs	r1, #128	; 0x80
 800375a:	0109      	lsls	r1, r1, #4
 800375c:	430a      	orrs	r2, r1
 800375e:	61da      	str	r2, [r3, #28]
      htim->Instance->CCMR2 &= ~TIM_CCMR2_OC4FE;
 8003760:	68fb      	ldr	r3, [r7, #12]
 8003762:	681b      	ldr	r3, [r3, #0]
 8003764:	69da      	ldr	r2, [r3, #28]
 8003766:	68fb      	ldr	r3, [r7, #12]
 8003768:	681b      	ldr	r3, [r3, #0]
 800376a:	490d      	ldr	r1, [pc, #52]	; (80037a0 <HAL_TIM_PWM_ConfigChannel+0x16c>)
 800376c:	400a      	ands	r2, r1
 800376e:	61da      	str	r2, [r3, #28]
      htim->Instance->CCMR2 |= sConfig->OCFastMode << 8U;
 8003770:	68fb      	ldr	r3, [r7, #12]
 8003772:	681b      	ldr	r3, [r3, #0]
 8003774:	69d9      	ldr	r1, [r3, #28]
 8003776:	68bb      	ldr	r3, [r7, #8]
 8003778:	691b      	ldr	r3, [r3, #16]
 800377a:	021a      	lsls	r2, r3, #8
 800377c:	68fb      	ldr	r3, [r7, #12]
 800377e:	681b      	ldr	r3, [r3, #0]
 8003780:	430a      	orrs	r2, r1
 8003782:	61da      	str	r2, [r3, #28]
      break;
 8003784:	46c0      	nop			; (mov r8, r8)
  }

  htim->State = HAL_TIM_STATE_READY;
 8003786:	68fb      	ldr	r3, [r7, #12]
 8003788:	223d      	movs	r2, #61	; 0x3d
 800378a:	2101      	movs	r1, #1
 800378c:	5499      	strb	r1, [r3, r2]

  __HAL_UNLOCK(htim);
 800378e:	68fb      	ldr	r3, [r7, #12]
 8003790:	223c      	movs	r2, #60	; 0x3c
 8003792:	2100      	movs	r1, #0
 8003794:	5499      	strb	r1, [r3, r2]

  return HAL_OK;
 8003796:	2300      	movs	r3, #0
}
 8003798:	0018      	movs	r0, r3
 800379a:	46bd      	mov	sp, r7
 800379c:	b004      	add	sp, #16
 800379e:	bd80      	pop	{r7, pc}
 80037a0:	fffffbff 	.word	0xfffffbff

080037a4 <HAL_TIM_ConfigClockSource>:
  * @param  sClockSourceConfig pointer to a TIM_ClockConfigTypeDef structure that
  *         contains the clock source information for the TIM peripheral.
  * @retval HAL status
  */
HAL_StatusTypeDef HAL_TIM_ConfigClockSource(TIM_HandleTypeDef *htim, TIM_ClockConfigTypeDef *sClockSourceConfig)
{
 80037a4:	b580      	push	{r7, lr}
 80037a6:	b084      	sub	sp, #16
 80037a8:	af00      	add	r7, sp, #0
 80037aa:	6078      	str	r0, [r7, #4]
 80037ac:	6039      	str	r1, [r7, #0]
  uint32_t tmpsmcr;

  /* Process Locked */
  __HAL_LOCK(htim);
 80037ae:	687b      	ldr	r3, [r7, #4]
 80037b0:	223c      	movs	r2, #60	; 0x3c
 80037b2:	5c9b      	ldrb	r3, [r3, r2]
 80037b4:	2b01      	cmp	r3, #1
 80037b6:	d101      	bne.n	80037bc <HAL_TIM_ConfigClockSource+0x18>
 80037b8:	2302      	movs	r3, #2
 80037ba:	e0ab      	b.n	8003914 <HAL_TIM_ConfigClockSource+0x170>
 80037bc:	687b      	ldr	r3, [r7, #4]
 80037be:	223c      	movs	r2, #60	; 0x3c
 80037c0:	2101      	movs	r1, #1
 80037c2:	5499      	strb	r1, [r3, r2]

  htim->State = HAL_TIM_STATE_BUSY;
 80037c4:	687b      	ldr	r3, [r7, #4]
 80037c6:	223d      	movs	r2, #61	; 0x3d
 80037c8:	2102      	movs	r1, #2
 80037ca:	5499      	strb	r1, [r3, r2]

  /* Check the parameters */
  assert_param(IS_TIM_CLOCKSOURCE(sClockSourceConfig->ClockSource));

  /* Reset the SMS, TS, ECE, ETPS and ETRF bits */
  tmpsmcr = htim->Instance->SMCR;
 80037cc:	687b      	ldr	r3, [r7, #4]
 80037ce:	681b      	ldr	r3, [r3, #0]
 80037d0:	689b      	ldr	r3, [r3, #8]
 80037d2:	60fb      	str	r3, [r7, #12]
  tmpsmcr &= ~(TIM_SMCR_SMS | TIM_SMCR_TS);
 80037d4:	68fb      	ldr	r3, [r7, #12]
 80037d6:	2277      	movs	r2, #119	; 0x77
 80037d8:	4393      	bics	r3, r2
 80037da:	60fb      	str	r3, [r7, #12]
  tmpsmcr &= ~(TIM_SMCR_ETF | TIM_SMCR_ETPS | TIM_SMCR_ECE | TIM_SMCR_ETP);
 80037dc:	68fb      	ldr	r3, [r7, #12]
 80037de:	4a4f      	ldr	r2, [pc, #316]	; (800391c <HAL_TIM_ConfigClockSource+0x178>)
 80037e0:	4013      	ands	r3, r2
 80037e2:	60fb      	str	r3, [r7, #12]
  htim->Instance->SMCR = tmpsmcr;
 80037e4:	687b      	ldr	r3, [r7, #4]
 80037e6:	681b      	ldr	r3, [r3, #0]
 80037e8:	68fa      	ldr	r2, [r7, #12]
 80037ea:	609a      	str	r2, [r3, #8]

  switch (sClockSourceConfig->ClockSource)
 80037ec:	683b      	ldr	r3, [r7, #0]
 80037ee:	681b      	ldr	r3, [r3, #0]
 80037f0:	2b40      	cmp	r3, #64	; 0x40
 80037f2:	d100      	bne.n	80037f6 <HAL_TIM_ConfigClockSource+0x52>
 80037f4:	e06b      	b.n	80038ce <HAL_TIM_ConfigClockSource+0x12a>
 80037f6:	d80e      	bhi.n	8003816 <HAL_TIM_ConfigClockSource+0x72>
 80037f8:	2b10      	cmp	r3, #16
 80037fa:	d100      	bne.n	80037fe <HAL_TIM_ConfigClockSource+0x5a>
 80037fc:	e077      	b.n	80038ee <HAL_TIM_ConfigClockSource+0x14a>
 80037fe:	d803      	bhi.n	8003808 <HAL_TIM_ConfigClockSource+0x64>
 8003800:	2b00      	cmp	r3, #0
 8003802:	d100      	bne.n	8003806 <HAL_TIM_ConfigClockSource+0x62>
 8003804:	e073      	b.n	80038ee <HAL_TIM_ConfigClockSource+0x14a>
      TIM_ITRx_SetConfig(htim->Instance, sClockSourceConfig->ClockSource);
      break;
    }

    default:
      break;
 8003806:	e07c      	b.n	8003902 <HAL_TIM_ConfigClockSource+0x15e>
  switch (sClockSourceConfig->ClockSource)
 8003808:	2b20      	cmp	r3, #32
 800380a:	d100      	bne.n	800380e <HAL_TIM_ConfigClockSource+0x6a>
 800380c:	e06f      	b.n	80038ee <HAL_TIM_ConfigClockSource+0x14a>
 800380e:	2b30      	cmp	r3, #48	; 0x30
 8003810:	d100      	bne.n	8003814 <HAL_TIM_ConfigClockSource+0x70>
 8003812:	e06c      	b.n	80038ee <HAL_TIM_ConfigClockSource+0x14a>
      break;
 8003814:	e075      	b.n	8003902 <HAL_TIM_ConfigClockSource+0x15e>
  switch (sClockSourceConfig->ClockSource)
 8003816:	2b70      	cmp	r3, #112	; 0x70
 8003818:	d00e      	beq.n	8003838 <HAL_TIM_ConfigClockSource+0x94>
 800381a:	d804      	bhi.n	8003826 <HAL_TIM_ConfigClockSource+0x82>
 800381c:	2b50      	cmp	r3, #80	; 0x50
 800381e:	d036      	beq.n	800388e <HAL_TIM_ConfigClockSource+0xea>
 8003820:	2b60      	cmp	r3, #96	; 0x60
 8003822:	d044      	beq.n	80038ae <HAL_TIM_ConfigClockSource+0x10a>
      break;
 8003824:	e06d      	b.n	8003902 <HAL_TIM_ConfigClockSource+0x15e>
  switch (sClockSourceConfig->ClockSource)
 8003826:	2280      	movs	r2, #128	; 0x80
 8003828:	0152      	lsls	r2, r2, #5
 800382a:	4293      	cmp	r3, r2
 800382c:	d068      	beq.n	8003900 <HAL_TIM_ConfigClockSource+0x15c>
 800382e:	2280      	movs	r2, #128	; 0x80
 8003830:	0192      	lsls	r2, r2, #6
 8003832:	4293      	cmp	r3, r2
 8003834:	d017      	beq.n	8003866 <HAL_TIM_ConfigClockSource+0xc2>
      break;
 8003836:	e064      	b.n	8003902 <HAL_TIM_ConfigClockSource+0x15e>
      TIM_ETR_SetConfig(htim->Instance,
 8003838:	687b      	ldr	r3, [r7, #4]
 800383a:	6818      	ldr	r0, [r3, #0]
 800383c:	683b      	ldr	r3, [r7, #0]
 800383e:	6899      	ldr	r1, [r3, #8]
 8003840:	683b      	ldr	r3, [r7, #0]
 8003842:	685a      	ldr	r2, [r3, #4]
 8003844:	683b      	ldr	r3, [r7, #0]
 8003846:	68db      	ldr	r3, [r3, #12]
 8003848:	f000 fb60 	bl	8003f0c <TIM_ETR_SetConfig>
      tmpsmcr = htim->Instance->SMCR;
 800384c:	687b      	ldr	r3, [r7, #4]
 800384e:	681b      	ldr	r3, [r3, #0]
 8003850:	689b      	ldr	r3, [r3, #8]
 8003852:	60fb      	str	r3, [r7, #12]
      tmpsmcr |= (TIM_SLAVEMODE_EXTERNAL1 | TIM_CLOCKSOURCE_ETRMODE1);
 8003854:	68fb      	ldr	r3, [r7, #12]
 8003856:	2277      	movs	r2, #119	; 0x77
 8003858:	4313      	orrs	r3, r2
 800385a:	60fb      	str	r3, [r7, #12]
      htim->Instance->SMCR = tmpsmcr;
 800385c:	687b      	ldr	r3, [r7, #4]
 800385e:	681b      	ldr	r3, [r3, #0]
 8003860:	68fa      	ldr	r2, [r7, #12]
 8003862:	609a      	str	r2, [r3, #8]
      break;
 8003864:	e04d      	b.n	8003902 <HAL_TIM_ConfigClockSource+0x15e>
      TIM_ETR_SetConfig(htim->Instance,
 8003866:	687b      	ldr	r3, [r7, #4]
 8003868:	6818      	ldr	r0, [r3, #0]
 800386a:	683b      	ldr	r3, [r7, #0]
 800386c:	6899      	ldr	r1, [r3, #8]
 800386e:	683b      	ldr	r3, [r7, #0]
 8003870:	685a      	ldr	r2, [r3, #4]
 8003872:	683b      	ldr	r3, [r7, #0]
 8003874:	68db      	ldr	r3, [r3, #12]
 8003876:	f000 fb49 	bl	8003f0c <TIM_ETR_SetConfig>
      htim->Instance->SMCR |= TIM_SMCR_ECE;
 800387a:	687b      	ldr	r3, [r7, #4]
 800387c:	681b      	ldr	r3, [r3, #0]
 800387e:	689a      	ldr	r2, [r3, #8]
 8003880:	687b      	ldr	r3, [r7, #4]
 8003882:	681b      	ldr	r3, [r3, #0]
 8003884:	2180      	movs	r1, #128	; 0x80
 8003886:	01c9      	lsls	r1, r1, #7
 8003888:	430a      	orrs	r2, r1
 800388a:	609a      	str	r2, [r3, #8]
      break;
 800388c:	e039      	b.n	8003902 <HAL_TIM_ConfigClockSource+0x15e>
      TIM_TI1_ConfigInputStage(htim->Instance,
 800388e:	687b      	ldr	r3, [r7, #4]
 8003890:	6818      	ldr	r0, [r3, #0]
 8003892:	683b      	ldr	r3, [r7, #0]
 8003894:	6859      	ldr	r1, [r3, #4]
 8003896:	683b      	ldr	r3, [r7, #0]
 8003898:	68db      	ldr	r3, [r3, #12]
 800389a:	001a      	movs	r2, r3
 800389c:	f000 fabc 	bl	8003e18 <TIM_TI1_ConfigInputStage>
      TIM_ITRx_SetConfig(htim->Instance, TIM_CLOCKSOURCE_TI1);
 80038a0:	687b      	ldr	r3, [r7, #4]
 80038a2:	681b      	ldr	r3, [r3, #0]
 80038a4:	2150      	movs	r1, #80	; 0x50
 80038a6:	0018      	movs	r0, r3
 80038a8:	f000 fb16 	bl	8003ed8 <TIM_ITRx_SetConfig>
      break;
 80038ac:	e029      	b.n	8003902 <HAL_TIM_ConfigClockSource+0x15e>
      TIM_TI2_ConfigInputStage(htim->Instance,
 80038ae:	687b      	ldr	r3, [r7, #4]
 80038b0:	6818      	ldr	r0, [r3, #0]
 80038b2:	683b      	ldr	r3, [r7, #0]
 80038b4:	6859      	ldr	r1, [r3, #4]
 80038b6:	683b      	ldr	r3, [r7, #0]
 80038b8:	68db      	ldr	r3, [r3, #12]
 80038ba:	001a      	movs	r2, r3
 80038bc:	f000 fada 	bl	8003e74 <TIM_TI2_ConfigInputStage>
      TIM_ITRx_SetConfig(htim->Instance, TIM_CLOCKSOURCE_TI2);
 80038c0:	687b      	ldr	r3, [r7, #4]
 80038c2:	681b      	ldr	r3, [r3, #0]
 80038c4:	2160      	movs	r1, #96	; 0x60
 80038c6:	0018      	movs	r0, r3
 80038c8:	f000 fb06 	bl	8003ed8 <TIM_ITRx_SetConfig>
      break;
 80038cc:	e019      	b.n	8003902 <HAL_TIM_ConfigClockSource+0x15e>
      TIM_TI1_ConfigInputStage(htim->Instance,
 80038ce:	687b      	ldr	r3, [r7, #4]
 80038d0:	6818      	ldr	r0, [r3, #0]
 80038d2:	683b      	ldr	r3, [r7, #0]
 80038d4:	6859      	ldr	r1, [r3, #4]
 80038d6:	683b      	ldr	r3, [r7, #0]
 80038d8:	68db      	ldr	r3, [r3, #12]
 80038da:	001a      	movs	r2, r3
 80038dc:	f000 fa9c 	bl	8003e18 <TIM_TI1_ConfigInputStage>
      TIM_ITRx_SetConfig(htim->Instance, TIM_CLOCKSOURCE_TI1ED);
 80038e0:	687b      	ldr	r3, [r7, #4]
 80038e2:	681b      	ldr	r3, [r3, #0]
 80038e4:	2140      	movs	r1, #64	; 0x40
 80038e6:	0018      	movs	r0, r3
 80038e8:	f000 faf6 	bl	8003ed8 <TIM_ITRx_SetConfig>
      break;
 80038ec:	e009      	b.n	8003902 <HAL_TIM_ConfigClockSource+0x15e>
      TIM_ITRx_SetConfig(htim->Instance, sClockSourceConfig->ClockSource);
 80038ee:	687b      	ldr	r3, [r7, #4]
 80038f0:	681a      	ldr	r2, [r3, #0]
 80038f2:	683b      	ldr	r3, [r7, #0]
 80038f4:	681b      	ldr	r3, [r3, #0]
 80038f6:	0019      	movs	r1, r3
 80038f8:	0010      	movs	r0, r2
 80038fa:	f000 faed 	bl	8003ed8 <TIM_ITRx_SetConfig>
      break;
 80038fe:	e000      	b.n	8003902 <HAL_TIM_ConfigClockSource+0x15e>
      break;
 8003900:	46c0      	nop			; (mov r8, r8)
  }
  htim->State = HAL_TIM_STATE_READY;
 8003902:	687b      	ldr	r3, [r7, #4]
 8003904:	223d      	movs	r2, #61	; 0x3d
 8003906:	2101      	movs	r1, #1
 8003908:	5499      	strb	r1, [r3, r2]

  __HAL_UNLOCK(htim);
 800390a:	687b      	ldr	r3, [r7, #4]
 800390c:	223c      	movs	r2, #60	; 0x3c
 800390e:	2100      	movs	r1, #0
 8003910:	5499      	strb	r1, [r3, r2]

  return HAL_OK;
 8003912:	2300      	movs	r3, #0
}
 8003914:	0018      	movs	r0, r3
 8003916:	46bd      	mov	sp, r7
 8003918:	b004      	add	sp, #16
 800391a:	bd80      	pop	{r7, pc}
 800391c:	ffff00ff 	.word	0xffff00ff

08003920 <TIM_Base_SetConfig>:
  * @param  TIMx TIM peripheral
  * @param  Structure TIM Base configuration structure
  * @retval None
  */
void TIM_Base_SetConfig(TIM_TypeDef *TIMx, TIM_Base_InitTypeDef *Structure)
{
 8003920:	b580      	push	{r7, lr}
 8003922:	b084      	sub	sp, #16
 8003924:	af00      	add	r7, sp, #0
 8003926:	6078      	str	r0, [r7, #4]
 8003928:	6039      	str	r1, [r7, #0]
  uint32_t tmpcr1;
  tmpcr1 = TIMx->CR1;
 800392a:	687b      	ldr	r3, [r7, #4]
 800392c:	681b      	ldr	r3, [r3, #0]
 800392e:	60fb      	str	r3, [r7, #12]

  /* Set TIM Time Base Unit parameters ---------------------------------------*/
  if (IS_TIM_COUNTER_MODE_SELECT_INSTANCE(TIMx))
 8003930:	687b      	ldr	r3, [r7, #4]
 8003932:	4a34      	ldr	r2, [pc, #208]	; (8003a04 <TIM_Base_SetConfig+0xe4>)
 8003934:	4293      	cmp	r3, r2
 8003936:	d008      	beq.n	800394a <TIM_Base_SetConfig+0x2a>
 8003938:	687a      	ldr	r2, [r7, #4]
 800393a:	2380      	movs	r3, #128	; 0x80
 800393c:	05db      	lsls	r3, r3, #23
 800393e:	429a      	cmp	r2, r3
 8003940:	d003      	beq.n	800394a <TIM_Base_SetConfig+0x2a>
 8003942:	687b      	ldr	r3, [r7, #4]
 8003944:	4a30      	ldr	r2, [pc, #192]	; (8003a08 <TIM_Base_SetConfig+0xe8>)
 8003946:	4293      	cmp	r3, r2
 8003948:	d108      	bne.n	800395c <TIM_Base_SetConfig+0x3c>
  {
    /* Select the Counter Mode */
    tmpcr1 &= ~(TIM_CR1_DIR | TIM_CR1_CMS);
 800394a:	68fb      	ldr	r3, [r7, #12]
 800394c:	2270      	movs	r2, #112	; 0x70
 800394e:	4393      	bics	r3, r2
 8003950:	60fb      	str	r3, [r7, #12]
    tmpcr1 |= Structure->CounterMode;
 8003952:	683b      	ldr	r3, [r7, #0]
 8003954:	685b      	ldr	r3, [r3, #4]
 8003956:	68fa      	ldr	r2, [r7, #12]
 8003958:	4313      	orrs	r3, r2
 800395a:	60fb      	str	r3, [r7, #12]
  }

  if (IS_TIM_CLOCK_DIVISION_INSTANCE(TIMx))
 800395c:	687b      	ldr	r3, [r7, #4]
 800395e:	4a29      	ldr	r2, [pc, #164]	; (8003a04 <TIM_Base_SetConfig+0xe4>)
 8003960:	4293      	cmp	r3, r2
 8003962:	d018      	beq.n	8003996 <TIM_Base_SetConfig+0x76>
 8003964:	687a      	ldr	r2, [r7, #4]
 8003966:	2380      	movs	r3, #128	; 0x80
 8003968:	05db      	lsls	r3, r3, #23
 800396a:	429a      	cmp	r2, r3
 800396c:	d013      	beq.n	8003996 <TIM_Base_SetConfig+0x76>
 800396e:	687b      	ldr	r3, [r7, #4]
 8003970:	4a25      	ldr	r2, [pc, #148]	; (8003a08 <TIM_Base_SetConfig+0xe8>)
 8003972:	4293      	cmp	r3, r2
 8003974:	d00f      	beq.n	8003996 <TIM_Base_SetConfig+0x76>
 8003976:	687b      	ldr	r3, [r7, #4]
 8003978:	4a24      	ldr	r2, [pc, #144]	; (8003a0c <TIM_Base_SetConfig+0xec>)
 800397a:	4293      	cmp	r3, r2
 800397c:	d00b      	beq.n	8003996 <TIM_Base_SetConfig+0x76>
 800397e:	687b      	ldr	r3, [r7, #4]
 8003980:	4a23      	ldr	r2, [pc, #140]	; (8003a10 <TIM_Base_SetConfig+0xf0>)
 8003982:	4293      	cmp	r3, r2
 8003984:	d007      	beq.n	8003996 <TIM_Base_SetConfig+0x76>
 8003986:	687b      	ldr	r3, [r7, #4]
 8003988:	4a22      	ldr	r2, [pc, #136]	; (8003a14 <TIM_Base_SetConfig+0xf4>)
 800398a:	4293      	cmp	r3, r2
 800398c:	d003      	beq.n	8003996 <TIM_Base_SetConfig+0x76>
 800398e:	687b      	ldr	r3, [r7, #4]
 8003990:	4a21      	ldr	r2, [pc, #132]	; (8003a18 <TIM_Base_SetConfig+0xf8>)
 8003992:	4293      	cmp	r3, r2
 8003994:	d108      	bne.n	80039a8 <TIM_Base_SetConfig+0x88>
  {
    /* Set the clock division */
    tmpcr1 &= ~TIM_CR1_CKD;
 8003996:	68fb      	ldr	r3, [r7, #12]
 8003998:	4a20      	ldr	r2, [pc, #128]	; (8003a1c <TIM_Base_SetConfig+0xfc>)
 800399a:	4013      	ands	r3, r2
 800399c:	60fb      	str	r3, [r7, #12]
    tmpcr1 |= (uint32_t)Structure->ClockDivision;
 800399e:	683b      	ldr	r3, [r7, #0]
 80039a0:	68db      	ldr	r3, [r3, #12]
 80039a2:	68fa      	ldr	r2, [r7, #12]
 80039a4:	4313      	orrs	r3, r2
 80039a6:	60fb      	str	r3, [r7, #12]
  }

  /* Set the auto-reload preload */
  MODIFY_REG(tmpcr1, TIM_CR1_ARPE, Structure->AutoReloadPreload);
 80039a8:	68fb      	ldr	r3, [r7, #12]
 80039aa:	2280      	movs	r2, #128	; 0x80
 80039ac:	4393      	bics	r3, r2
 80039ae:	001a      	movs	r2, r3
 80039b0:	683b      	ldr	r3, [r7, #0]
 80039b2:	695b      	ldr	r3, [r3, #20]
 80039b4:	4313      	orrs	r3, r2
 80039b6:	60fb      	str	r3, [r7, #12]

  TIMx->CR1 = tmpcr1;
 80039b8:	687b      	ldr	r3, [r7, #4]
 80039ba:	68fa      	ldr	r2, [r7, #12]
 80039bc:	601a      	str	r2, [r3, #0]

  /* Set the Autoreload value */
  TIMx->ARR = (uint32_t)Structure->Period ;
 80039be:	683b      	ldr	r3, [r7, #0]
 80039c0:	689a      	ldr	r2, [r3, #8]
 80039c2:	687b      	ldr	r3, [r7, #4]
 80039c4:	62da      	str	r2, [r3, #44]	; 0x2c

  /* Set the Prescaler value */
  TIMx->PSC = Structure->Prescaler;
 80039c6:	683b      	ldr	r3, [r7, #0]
 80039c8:	681a      	ldr	r2, [r3, #0]
 80039ca:	687b      	ldr	r3, [r7, #4]
 80039cc:	629a      	str	r2, [r3, #40]	; 0x28

  if (IS_TIM_REPETITION_COUNTER_INSTANCE(TIMx))
 80039ce:	687b      	ldr	r3, [r7, #4]
 80039d0:	4a0c      	ldr	r2, [pc, #48]	; (8003a04 <TIM_Base_SetConfig+0xe4>)
 80039d2:	4293      	cmp	r3, r2
 80039d4:	d00b      	beq.n	80039ee <TIM_Base_SetConfig+0xce>
 80039d6:	687b      	ldr	r3, [r7, #4]
 80039d8:	4a0d      	ldr	r2, [pc, #52]	; (8003a10 <TIM_Base_SetConfig+0xf0>)
 80039da:	4293      	cmp	r3, r2
 80039dc:	d007      	beq.n	80039ee <TIM_Base_SetConfig+0xce>
 80039de:	687b      	ldr	r3, [r7, #4]
 80039e0:	4a0c      	ldr	r2, [pc, #48]	; (8003a14 <TIM_Base_SetConfig+0xf4>)
 80039e2:	4293      	cmp	r3, r2
 80039e4:	d003      	beq.n	80039ee <TIM_Base_SetConfig+0xce>
 80039e6:	687b      	ldr	r3, [r7, #4]
 80039e8:	4a0b      	ldr	r2, [pc, #44]	; (8003a18 <TIM_Base_SetConfig+0xf8>)
 80039ea:	4293      	cmp	r3, r2
 80039ec:	d103      	bne.n	80039f6 <TIM_Base_SetConfig+0xd6>
  {
    /* Set the Repetition Counter value */
    TIMx->RCR = Structure->RepetitionCounter;
 80039ee:	683b      	ldr	r3, [r7, #0]
 80039f0:	691a      	ldr	r2, [r3, #16]
 80039f2:	687b      	ldr	r3, [r7, #4]
 80039f4:	631a      	str	r2, [r3, #48]	; 0x30
  }

  /* Generate an update event to reload the Prescaler
     and the repetition counter (only for advanced timer) value immediately */
  TIMx->EGR = TIM_EGR_UG;
 80039f6:	687b      	ldr	r3, [r7, #4]
 80039f8:	2201      	movs	r2, #1
 80039fa:	615a      	str	r2, [r3, #20]
}
 80039fc:	46c0      	nop			; (mov r8, r8)
 80039fe:	46bd      	mov	sp, r7
 8003a00:	b004      	add	sp, #16
 8003a02:	bd80      	pop	{r7, pc}
 8003a04:	40012c00 	.word	0x40012c00
 8003a08:	40000400 	.word	0x40000400
 8003a0c:	40002000 	.word	0x40002000
 8003a10:	40014000 	.word	0x40014000
 8003a14:	40014400 	.word	0x40014400
 8003a18:	40014800 	.word	0x40014800
 8003a1c:	fffffcff 	.word	0xfffffcff

08003a20 <TIM_OC1_SetConfig>:
  * @param  TIMx to select the TIM peripheral
  * @param  OC_Config The ouput configuration structure
  * @retval None
  */
static void TIM_OC1_SetConfig(TIM_TypeDef *TIMx, TIM_OC_InitTypeDef *OC_Config)
{
 8003a20:	b580      	push	{r7, lr}
 8003a22:	b086      	sub	sp, #24
 8003a24:	af00      	add	r7, sp, #0
 8003a26:	6078      	str	r0, [r7, #4]
 8003a28:	6039      	str	r1, [r7, #0]
  uint32_t tmpccmrx;
  uint32_t tmpccer;
  uint32_t tmpcr2;

  /* Disable the Channel 1: Reset the CC1E Bit */
  TIMx->CCER &= ~TIM_CCER_CC1E;
 8003a2a:	687b      	ldr	r3, [r7, #4]
 8003a2c:	6a1b      	ldr	r3, [r3, #32]
 8003a2e:	2201      	movs	r2, #1
 8003a30:	4393      	bics	r3, r2
 8003a32:	001a      	movs	r2, r3
 8003a34:	687b      	ldr	r3, [r7, #4]
 8003a36:	621a      	str	r2, [r3, #32]

  /* Get the TIMx CCER register value */
  tmpccer = TIMx->CCER;
 8003a38:	687b      	ldr	r3, [r7, #4]
 8003a3a:	6a1b      	ldr	r3, [r3, #32]
 8003a3c:	617b      	str	r3, [r7, #20]
  /* Get the TIMx CR2 register value */
  tmpcr2 =  TIMx->CR2;
 8003a3e:	687b      	ldr	r3, [r7, #4]
 8003a40:	685b      	ldr	r3, [r3, #4]
 8003a42:	613b      	str	r3, [r7, #16]

  /* Get the TIMx CCMR1 register value */
  tmpccmrx = TIMx->CCMR1;
 8003a44:	687b      	ldr	r3, [r7, #4]
 8003a46:	699b      	ldr	r3, [r3, #24]
 8003a48:	60fb      	str	r3, [r7, #12]

  /* Reset the Output Compare Mode Bits */
  tmpccmrx &= ~TIM_CCMR1_OC1M;
 8003a4a:	68fb      	ldr	r3, [r7, #12]
 8003a4c:	2270      	movs	r2, #112	; 0x70
 8003a4e:	4393      	bics	r3, r2
 8003a50:	60fb      	str	r3, [r7, #12]
  tmpccmrx &= ~TIM_CCMR1_CC1S;
 8003a52:	68fb      	ldr	r3, [r7, #12]
 8003a54:	2203      	movs	r2, #3
 8003a56:	4393      	bics	r3, r2
 8003a58:	60fb      	str	r3, [r7, #12]
  /* Select the Output Compare Mode */
  tmpccmrx |= OC_Config->OCMode;
 8003a5a:	683b      	ldr	r3, [r7, #0]
 8003a5c:	681b      	ldr	r3, [r3, #0]
 8003a5e:	68fa      	ldr	r2, [r7, #12]
 8003a60:	4313      	orrs	r3, r2
 8003a62:	60fb      	str	r3, [r7, #12]

  /* Reset the Output Polarity level */
  tmpccer &= ~TIM_CCER_CC1P;
 8003a64:	697b      	ldr	r3, [r7, #20]
 8003a66:	2202      	movs	r2, #2
 8003a68:	4393      	bics	r3, r2
 8003a6a:	617b      	str	r3, [r7, #20]
  /* Set the Output Compare Polarity */
  tmpccer |= OC_Config->OCPolarity;
 8003a6c:	683b      	ldr	r3, [r7, #0]
 8003a6e:	689b      	ldr	r3, [r3, #8]
 8003a70:	697a      	ldr	r2, [r7, #20]
 8003a72:	4313      	orrs	r3, r2
 8003a74:	617b      	str	r3, [r7, #20]

  if (IS_TIM_CCXN_INSTANCE(TIMx, TIM_CHANNEL_1))
 8003a76:	687b      	ldr	r3, [r7, #4]
 8003a78:	4a27      	ldr	r2, [pc, #156]	; (8003b18 <TIM_OC1_SetConfig+0xf8>)
 8003a7a:	4293      	cmp	r3, r2
 8003a7c:	d00b      	beq.n	8003a96 <TIM_OC1_SetConfig+0x76>
 8003a7e:	687b      	ldr	r3, [r7, #4]
 8003a80:	4a26      	ldr	r2, [pc, #152]	; (8003b1c <TIM_OC1_SetConfig+0xfc>)
 8003a82:	4293      	cmp	r3, r2
 8003a84:	d007      	beq.n	8003a96 <TIM_OC1_SetConfig+0x76>
 8003a86:	687b      	ldr	r3, [r7, #4]
 8003a88:	4a25      	ldr	r2, [pc, #148]	; (8003b20 <TIM_OC1_SetConfig+0x100>)
 8003a8a:	4293      	cmp	r3, r2
 8003a8c:	d003      	beq.n	8003a96 <TIM_OC1_SetConfig+0x76>
 8003a8e:	687b      	ldr	r3, [r7, #4]
 8003a90:	4a24      	ldr	r2, [pc, #144]	; (8003b24 <TIM_OC1_SetConfig+0x104>)
 8003a92:	4293      	cmp	r3, r2
 8003a94:	d10c      	bne.n	8003ab0 <TIM_OC1_SetConfig+0x90>
  {
    /* Check parameters */
    assert_param(IS_TIM_OCN_POLARITY(OC_Config->OCNPolarity));

    /* Reset the Output N Polarity level */
    tmpccer &= ~TIM_CCER_CC1NP;
 8003a96:	697b      	ldr	r3, [r7, #20]
 8003a98:	2208      	movs	r2, #8
 8003a9a:	4393      	bics	r3, r2
 8003a9c:	617b      	str	r3, [r7, #20]
    /* Set the Output N Polarity */
    tmpccer |= OC_Config->OCNPolarity;
 8003a9e:	683b      	ldr	r3, [r7, #0]
 8003aa0:	68db      	ldr	r3, [r3, #12]
 8003aa2:	697a      	ldr	r2, [r7, #20]
 8003aa4:	4313      	orrs	r3, r2
 8003aa6:	617b      	str	r3, [r7, #20]
    /* Reset the Output N State */
    tmpccer &= ~TIM_CCER_CC1NE;
 8003aa8:	697b      	ldr	r3, [r7, #20]
 8003aaa:	2204      	movs	r2, #4
 8003aac:	4393      	bics	r3, r2
 8003aae:	617b      	str	r3, [r7, #20]
  }

  if (IS_TIM_BREAK_INSTANCE(TIMx))
 8003ab0:	687b      	ldr	r3, [r7, #4]
 8003ab2:	4a19      	ldr	r2, [pc, #100]	; (8003b18 <TIM_OC1_SetConfig+0xf8>)
 8003ab4:	4293      	cmp	r3, r2
 8003ab6:	d00b      	beq.n	8003ad0 <TIM_OC1_SetConfig+0xb0>
 8003ab8:	687b      	ldr	r3, [r7, #4]
 8003aba:	4a18      	ldr	r2, [pc, #96]	; (8003b1c <TIM_OC1_SetConfig+0xfc>)
 8003abc:	4293      	cmp	r3, r2
 8003abe:	d007      	beq.n	8003ad0 <TIM_OC1_SetConfig+0xb0>
 8003ac0:	687b      	ldr	r3, [r7, #4]
 8003ac2:	4a17      	ldr	r2, [pc, #92]	; (8003b20 <TIM_OC1_SetConfig+0x100>)
 8003ac4:	4293      	cmp	r3, r2
 8003ac6:	d003      	beq.n	8003ad0 <TIM_OC1_SetConfig+0xb0>
 8003ac8:	687b      	ldr	r3, [r7, #4]
 8003aca:	4a16      	ldr	r2, [pc, #88]	; (8003b24 <TIM_OC1_SetConfig+0x104>)
 8003acc:	4293      	cmp	r3, r2
 8003ace:	d111      	bne.n	8003af4 <TIM_OC1_SetConfig+0xd4>
    /* Check parameters */
    assert_param(IS_TIM_OCNIDLE_STATE(OC_Config->OCNIdleState));
    assert_param(IS_TIM_OCIDLE_STATE(OC_Config->OCIdleState));

    /* Reset the Output Compare and Output Compare N IDLE State */
    tmpcr2 &= ~TIM_CR2_OIS1;
 8003ad0:	693b      	ldr	r3, [r7, #16]
 8003ad2:	4a15      	ldr	r2, [pc, #84]	; (8003b28 <TIM_OC1_SetConfig+0x108>)
 8003ad4:	4013      	ands	r3, r2
 8003ad6:	613b      	str	r3, [r7, #16]
    tmpcr2 &= ~TIM_CR2_OIS1N;
 8003ad8:	693b      	ldr	r3, [r7, #16]
 8003ada:	4a14      	ldr	r2, [pc, #80]	; (8003b2c <TIM_OC1_SetConfig+0x10c>)
 8003adc:	4013      	ands	r3, r2
 8003ade:	613b      	str	r3, [r7, #16]
    /* Set the Output Idle state */
    tmpcr2 |= OC_Config->OCIdleState;
 8003ae0:	683b      	ldr	r3, [r7, #0]
 8003ae2:	695b      	ldr	r3, [r3, #20]
 8003ae4:	693a      	ldr	r2, [r7, #16]
 8003ae6:	4313      	orrs	r3, r2
 8003ae8:	613b      	str	r3, [r7, #16]
    /* Set the Output N Idle state */
    tmpcr2 |= OC_Config->OCNIdleState;
 8003aea:	683b      	ldr	r3, [r7, #0]
 8003aec:	699b      	ldr	r3, [r3, #24]
 8003aee:	693a      	ldr	r2, [r7, #16]
 8003af0:	4313      	orrs	r3, r2
 8003af2:	613b      	str	r3, [r7, #16]
  }

  /* Write to TIMx CR2 */
  TIMx->CR2 = tmpcr2;
 8003af4:	687b      	ldr	r3, [r7, #4]
 8003af6:	693a      	ldr	r2, [r7, #16]
 8003af8:	605a      	str	r2, [r3, #4]

  /* Write to TIMx CCMR1 */
  TIMx->CCMR1 = tmpccmrx;
 8003afa:	687b      	ldr	r3, [r7, #4]
 8003afc:	68fa      	ldr	r2, [r7, #12]
 8003afe:	619a      	str	r2, [r3, #24]

  /* Set the Capture Compare Register value */
  TIMx->CCR1 = OC_Config->Pulse;
 8003b00:	683b      	ldr	r3, [r7, #0]
 8003b02:	685a      	ldr	r2, [r3, #4]
 8003b04:	687b      	ldr	r3, [r7, #4]
 8003b06:	635a      	str	r2, [r3, #52]	; 0x34

  /* Write to TIMx CCER */
  TIMx->CCER = tmpccer;
 8003b08:	687b      	ldr	r3, [r7, #4]
 8003b0a:	697a      	ldr	r2, [r7, #20]
 8003b0c:	621a      	str	r2, [r3, #32]
}
 8003b0e:	46c0      	nop			; (mov r8, r8)
 8003b10:	46bd      	mov	sp, r7
 8003b12:	b006      	add	sp, #24
 8003b14:	bd80      	pop	{r7, pc}
 8003b16:	46c0      	nop			; (mov r8, r8)
 8003b18:	40012c00 	.word	0x40012c00
 8003b1c:	40014000 	.word	0x40014000
 8003b20:	40014400 	.word	0x40014400
 8003b24:	40014800 	.word	0x40014800
 8003b28:	fffffeff 	.word	0xfffffeff
 8003b2c:	fffffdff 	.word	0xfffffdff

08003b30 <TIM_OC2_SetConfig>:
  * @param  TIMx to select the TIM peripheral
  * @param  OC_Config The ouput configuration structure
  * @retval None
  */
void TIM_OC2_SetConfig(TIM_TypeDef *TIMx, TIM_OC_InitTypeDef *OC_Config)
{
 8003b30:	b580      	push	{r7, lr}
 8003b32:	b086      	sub	sp, #24
 8003b34:	af00      	add	r7, sp, #0
 8003b36:	6078      	str	r0, [r7, #4]
 8003b38:	6039      	str	r1, [r7, #0]
  uint32_t tmpccmrx;
  uint32_t tmpccer;
  uint32_t tmpcr2;

  /* Disable the Channel 2: Reset the CC2E Bit */
  TIMx->CCER &= ~TIM_CCER_CC2E;
 8003b3a:	687b      	ldr	r3, [r7, #4]
 8003b3c:	6a1b      	ldr	r3, [r3, #32]
 8003b3e:	2210      	movs	r2, #16
 8003b40:	4393      	bics	r3, r2
 8003b42:	001a      	movs	r2, r3
 8003b44:	687b      	ldr	r3, [r7, #4]
 8003b46:	621a      	str	r2, [r3, #32]

  /* Get the TIMx CCER register value */
  tmpccer = TIMx->CCER;
 8003b48:	687b      	ldr	r3, [r7, #4]
 8003b4a:	6a1b      	ldr	r3, [r3, #32]
 8003b4c:	617b      	str	r3, [r7, #20]
  /* Get the TIMx CR2 register value */
  tmpcr2 =  TIMx->CR2;
 8003b4e:	687b      	ldr	r3, [r7, #4]
 8003b50:	685b      	ldr	r3, [r3, #4]
 8003b52:	613b      	str	r3, [r7, #16]

  /* Get the TIMx CCMR1 register value */
  tmpccmrx = TIMx->CCMR1;
 8003b54:	687b      	ldr	r3, [r7, #4]
 8003b56:	699b      	ldr	r3, [r3, #24]
 8003b58:	60fb      	str	r3, [r7, #12]

  /* Reset the Output Compare mode and Capture/Compare selection Bits */
  tmpccmrx &= ~TIM_CCMR1_OC2M;
 8003b5a:	68fb      	ldr	r3, [r7, #12]
 8003b5c:	4a2e      	ldr	r2, [pc, #184]	; (8003c18 <TIM_OC2_SetConfig+0xe8>)
 8003b5e:	4013      	ands	r3, r2
 8003b60:	60fb      	str	r3, [r7, #12]
  tmpccmrx &= ~TIM_CCMR1_CC2S;
 8003b62:	68fb      	ldr	r3, [r7, #12]
 8003b64:	4a2d      	ldr	r2, [pc, #180]	; (8003c1c <TIM_OC2_SetConfig+0xec>)
 8003b66:	4013      	ands	r3, r2
 8003b68:	60fb      	str	r3, [r7, #12]

  /* Select the Output Compare Mode */
  tmpccmrx |= (OC_Config->OCMode << 8U);
 8003b6a:	683b      	ldr	r3, [r7, #0]
 8003b6c:	681b      	ldr	r3, [r3, #0]
 8003b6e:	021b      	lsls	r3, r3, #8
 8003b70:	68fa      	ldr	r2, [r7, #12]
 8003b72:	4313      	orrs	r3, r2
 8003b74:	60fb      	str	r3, [r7, #12]

  /* Reset the Output Polarity level */
  tmpccer &= ~TIM_CCER_CC2P;
 8003b76:	697b      	ldr	r3, [r7, #20]
 8003b78:	2220      	movs	r2, #32
 8003b7a:	4393      	bics	r3, r2
 8003b7c:	617b      	str	r3, [r7, #20]
  /* Set the Output Compare Polarity */
  tmpccer |= (OC_Config->OCPolarity << 4U);
 8003b7e:	683b      	ldr	r3, [r7, #0]
 8003b80:	689b      	ldr	r3, [r3, #8]
 8003b82:	011b      	lsls	r3, r3, #4
 8003b84:	697a      	ldr	r2, [r7, #20]
 8003b86:	4313      	orrs	r3, r2
 8003b88:	617b      	str	r3, [r7, #20]

  if (IS_TIM_CCXN_INSTANCE(TIMx, TIM_CHANNEL_2))
 8003b8a:	687b      	ldr	r3, [r7, #4]
 8003b8c:	4a24      	ldr	r2, [pc, #144]	; (8003c20 <TIM_OC2_SetConfig+0xf0>)
 8003b8e:	4293      	cmp	r3, r2
 8003b90:	d10d      	bne.n	8003bae <TIM_OC2_SetConfig+0x7e>
  {
    assert_param(IS_TIM_OCN_POLARITY(OC_Config->OCNPolarity));

    /* Reset the Output N Polarity level */
    tmpccer &= ~TIM_CCER_CC2NP;
 8003b92:	697b      	ldr	r3, [r7, #20]
 8003b94:	2280      	movs	r2, #128	; 0x80
 8003b96:	4393      	bics	r3, r2
 8003b98:	617b      	str	r3, [r7, #20]
    /* Set the Output N Polarity */
    tmpccer |= (OC_Config->OCNPolarity << 4U);
 8003b9a:	683b      	ldr	r3, [r7, #0]
 8003b9c:	68db      	ldr	r3, [r3, #12]
 8003b9e:	011b      	lsls	r3, r3, #4
 8003ba0:	697a      	ldr	r2, [r7, #20]
 8003ba2:	4313      	orrs	r3, r2
 8003ba4:	617b      	str	r3, [r7, #20]
    /* Reset the Output N State */
    tmpccer &= ~TIM_CCER_CC2NE;
 8003ba6:	697b      	ldr	r3, [r7, #20]
 8003ba8:	2240      	movs	r2, #64	; 0x40
 8003baa:	4393      	bics	r3, r2
 8003bac:	617b      	str	r3, [r7, #20]

  }

  if (IS_TIM_BREAK_INSTANCE(TIMx))
 8003bae:	687b      	ldr	r3, [r7, #4]
 8003bb0:	4a1b      	ldr	r2, [pc, #108]	; (8003c20 <TIM_OC2_SetConfig+0xf0>)
 8003bb2:	4293      	cmp	r3, r2
 8003bb4:	d00b      	beq.n	8003bce <TIM_OC2_SetConfig+0x9e>
 8003bb6:	687b      	ldr	r3, [r7, #4]
 8003bb8:	4a1a      	ldr	r2, [pc, #104]	; (8003c24 <TIM_OC2_SetConfig+0xf4>)
 8003bba:	4293      	cmp	r3, r2
 8003bbc:	d007      	beq.n	8003bce <TIM_OC2_SetConfig+0x9e>
 8003bbe:	687b      	ldr	r3, [r7, #4]
 8003bc0:	4a19      	ldr	r2, [pc, #100]	; (8003c28 <TIM_OC2_SetConfig+0xf8>)
 8003bc2:	4293      	cmp	r3, r2
 8003bc4:	d003      	beq.n	8003bce <TIM_OC2_SetConfig+0x9e>
 8003bc6:	687b      	ldr	r3, [r7, #4]
 8003bc8:	4a18      	ldr	r2, [pc, #96]	; (8003c2c <TIM_OC2_SetConfig+0xfc>)
 8003bca:	4293      	cmp	r3, r2
 8003bcc:	d113      	bne.n	8003bf6 <TIM_OC2_SetConfig+0xc6>
    /* Check parameters */
    assert_param(IS_TIM_OCNIDLE_STATE(OC_Config->OCNIdleState));
    assert_param(IS_TIM_OCIDLE_STATE(OC_Config->OCIdleState));

    /* Reset the Output Compare and Output Compare N IDLE State */
    tmpcr2 &= ~TIM_CR2_OIS2;
 8003bce:	693b      	ldr	r3, [r7, #16]
 8003bd0:	4a17      	ldr	r2, [pc, #92]	; (8003c30 <TIM_OC2_SetConfig+0x100>)
 8003bd2:	4013      	ands	r3, r2
 8003bd4:	613b      	str	r3, [r7, #16]
    tmpcr2 &= ~TIM_CR2_OIS2N;
 8003bd6:	693b      	ldr	r3, [r7, #16]
 8003bd8:	4a16      	ldr	r2, [pc, #88]	; (8003c34 <TIM_OC2_SetConfig+0x104>)
 8003bda:	4013      	ands	r3, r2
 8003bdc:	613b      	str	r3, [r7, #16]
    /* Set the Output Idle state */
    tmpcr2 |= (OC_Config->OCIdleState << 2U);
 8003bde:	683b      	ldr	r3, [r7, #0]
 8003be0:	695b      	ldr	r3, [r3, #20]
 8003be2:	009b      	lsls	r3, r3, #2
 8003be4:	693a      	ldr	r2, [r7, #16]
 8003be6:	4313      	orrs	r3, r2
 8003be8:	613b      	str	r3, [r7, #16]
    /* Set the Output N Idle state */
    tmpcr2 |= (OC_Config->OCNIdleState << 2U);
 8003bea:	683b      	ldr	r3, [r7, #0]
 8003bec:	699b      	ldr	r3, [r3, #24]
 8003bee:	009b      	lsls	r3, r3, #2
 8003bf0:	693a      	ldr	r2, [r7, #16]
 8003bf2:	4313      	orrs	r3, r2
 8003bf4:	613b      	str	r3, [r7, #16]
  }

  /* Write to TIMx CR2 */
  TIMx->CR2 = tmpcr2;
 8003bf6:	687b      	ldr	r3, [r7, #4]
 8003bf8:	693a      	ldr	r2, [r7, #16]
 8003bfa:	605a      	str	r2, [r3, #4]

  /* Write to TIMx CCMR1 */
  TIMx->CCMR1 = tmpccmrx;
 8003bfc:	687b      	ldr	r3, [r7, #4]
 8003bfe:	68fa      	ldr	r2, [r7, #12]
 8003c00:	619a      	str	r2, [r3, #24]

  /* Set the Capture Compare Register value */
  TIMx->CCR2 = OC_Config->Pulse;
 8003c02:	683b      	ldr	r3, [r7, #0]
 8003c04:	685a      	ldr	r2, [r3, #4]
 8003c06:	687b      	ldr	r3, [r7, #4]
 8003c08:	639a      	str	r2, [r3, #56]	; 0x38

  /* Write to TIMx CCER */
  TIMx->CCER = tmpccer;
 8003c0a:	687b      	ldr	r3, [r7, #4]
 8003c0c:	697a      	ldr	r2, [r7, #20]
 8003c0e:	621a      	str	r2, [r3, #32]
}
 8003c10:	46c0      	nop			; (mov r8, r8)
 8003c12:	46bd      	mov	sp, r7
 8003c14:	b006      	add	sp, #24
 8003c16:	bd80      	pop	{r7, pc}
 8003c18:	ffff8fff 	.word	0xffff8fff
 8003c1c:	fffffcff 	.word	0xfffffcff
 8003c20:	40012c00 	.word	0x40012c00
 8003c24:	40014000 	.word	0x40014000
 8003c28:	40014400 	.word	0x40014400
 8003c2c:	40014800 	.word	0x40014800
 8003c30:	fffffbff 	.word	0xfffffbff
 8003c34:	fffff7ff 	.word	0xfffff7ff

08003c38 <TIM_OC3_SetConfig>:
  * @param  TIMx to select the TIM peripheral
  * @param  OC_Config The ouput configuration structure
  * @retval None
  */
static void TIM_OC3_SetConfig(TIM_TypeDef *TIMx, TIM_OC_InitTypeDef *OC_Config)
{
 8003c38:	b580      	push	{r7, lr}
 8003c3a:	b086      	sub	sp, #24
 8003c3c:	af00      	add	r7, sp, #0
 8003c3e:	6078      	str	r0, [r7, #4]
 8003c40:	6039      	str	r1, [r7, #0]
  uint32_t tmpccmrx;
  uint32_t tmpccer;
  uint32_t tmpcr2;

  /* Disable the Channel 3: Reset the CC2E Bit */
  TIMx->CCER &= ~TIM_CCER_CC3E;
 8003c42:	687b      	ldr	r3, [r7, #4]
 8003c44:	6a1b      	ldr	r3, [r3, #32]
 8003c46:	4a35      	ldr	r2, [pc, #212]	; (8003d1c <TIM_OC3_SetConfig+0xe4>)
 8003c48:	401a      	ands	r2, r3
 8003c4a:	687b      	ldr	r3, [r7, #4]
 8003c4c:	621a      	str	r2, [r3, #32]

  /* Get the TIMx CCER register value */
  tmpccer = TIMx->CCER;
 8003c4e:	687b      	ldr	r3, [r7, #4]
 8003c50:	6a1b      	ldr	r3, [r3, #32]
 8003c52:	617b      	str	r3, [r7, #20]
  /* Get the TIMx CR2 register value */
  tmpcr2 =  TIMx->CR2;
 8003c54:	687b      	ldr	r3, [r7, #4]
 8003c56:	685b      	ldr	r3, [r3, #4]
 8003c58:	613b      	str	r3, [r7, #16]

  /* Get the TIMx CCMR2 register value */
  tmpccmrx = TIMx->CCMR2;
 8003c5a:	687b      	ldr	r3, [r7, #4]
 8003c5c:	69db      	ldr	r3, [r3, #28]
 8003c5e:	60fb      	str	r3, [r7, #12]

  /* Reset the Output Compare mode and Capture/Compare selection Bits */
  tmpccmrx &= ~TIM_CCMR2_OC3M;
 8003c60:	68fb      	ldr	r3, [r7, #12]
 8003c62:	2270      	movs	r2, #112	; 0x70
 8003c64:	4393      	bics	r3, r2
 8003c66:	60fb      	str	r3, [r7, #12]
  tmpccmrx &= ~TIM_CCMR2_CC3S;
 8003c68:	68fb      	ldr	r3, [r7, #12]
 8003c6a:	2203      	movs	r2, #3
 8003c6c:	4393      	bics	r3, r2
 8003c6e:	60fb      	str	r3, [r7, #12]
  /* Select the Output Compare Mode */
  tmpccmrx |= OC_Config->OCMode;
 8003c70:	683b      	ldr	r3, [r7, #0]
 8003c72:	681b      	ldr	r3, [r3, #0]
 8003c74:	68fa      	ldr	r2, [r7, #12]
 8003c76:	4313      	orrs	r3, r2
 8003c78:	60fb      	str	r3, [r7, #12]

  /* Reset the Output Polarity level */
  tmpccer &= ~TIM_CCER_CC3P;
 8003c7a:	697b      	ldr	r3, [r7, #20]
 8003c7c:	4a28      	ldr	r2, [pc, #160]	; (8003d20 <TIM_OC3_SetConfig+0xe8>)
 8003c7e:	4013      	ands	r3, r2
 8003c80:	617b      	str	r3, [r7, #20]
  /* Set the Output Compare Polarity */
  tmpccer |= (OC_Config->OCPolarity << 8U);
 8003c82:	683b      	ldr	r3, [r7, #0]
 8003c84:	689b      	ldr	r3, [r3, #8]
 8003c86:	021b      	lsls	r3, r3, #8
 8003c88:	697a      	ldr	r2, [r7, #20]
 8003c8a:	4313      	orrs	r3, r2
 8003c8c:	617b      	str	r3, [r7, #20]

  if (IS_TIM_CCXN_INSTANCE(TIMx, TIM_CHANNEL_3))
 8003c8e:	687b      	ldr	r3, [r7, #4]
 8003c90:	4a24      	ldr	r2, [pc, #144]	; (8003d24 <TIM_OC3_SetConfig+0xec>)
 8003c92:	4293      	cmp	r3, r2
 8003c94:	d10d      	bne.n	8003cb2 <TIM_OC3_SetConfig+0x7a>
  {
    assert_param(IS_TIM_OCN_POLARITY(OC_Config->OCNPolarity));

    /* Reset the Output N Polarity level */
    tmpccer &= ~TIM_CCER_CC3NP;
 8003c96:	697b      	ldr	r3, [r7, #20]
 8003c98:	4a23      	ldr	r2, [pc, #140]	; (8003d28 <TIM_OC3_SetConfig+0xf0>)
 8003c9a:	4013      	ands	r3, r2
 8003c9c:	617b      	str	r3, [r7, #20]
    /* Set the Output N Polarity */
    tmpccer |= (OC_Config->OCNPolarity << 8U);
 8003c9e:	683b      	ldr	r3, [r7, #0]
 8003ca0:	68db      	ldr	r3, [r3, #12]
 8003ca2:	021b      	lsls	r3, r3, #8
 8003ca4:	697a      	ldr	r2, [r7, #20]
 8003ca6:	4313      	orrs	r3, r2
 8003ca8:	617b      	str	r3, [r7, #20]
    /* Reset the Output N State */
    tmpccer &= ~TIM_CCER_CC3NE;
 8003caa:	697b      	ldr	r3, [r7, #20]
 8003cac:	4a1f      	ldr	r2, [pc, #124]	; (8003d2c <TIM_OC3_SetConfig+0xf4>)
 8003cae:	4013      	ands	r3, r2
 8003cb0:	617b      	str	r3, [r7, #20]
  }

  if (IS_TIM_BREAK_INSTANCE(TIMx))
 8003cb2:	687b      	ldr	r3, [r7, #4]
 8003cb4:	4a1b      	ldr	r2, [pc, #108]	; (8003d24 <TIM_OC3_SetConfig+0xec>)
 8003cb6:	4293      	cmp	r3, r2
 8003cb8:	d00b      	beq.n	8003cd2 <TIM_OC3_SetConfig+0x9a>
 8003cba:	687b      	ldr	r3, [r7, #4]
 8003cbc:	4a1c      	ldr	r2, [pc, #112]	; (8003d30 <TIM_OC3_SetConfig+0xf8>)
 8003cbe:	4293      	cmp	r3, r2
 8003cc0:	d007      	beq.n	8003cd2 <TIM_OC3_SetConfig+0x9a>
 8003cc2:	687b      	ldr	r3, [r7, #4]
 8003cc4:	4a1b      	ldr	r2, [pc, #108]	; (8003d34 <TIM_OC3_SetConfig+0xfc>)
 8003cc6:	4293      	cmp	r3, r2
 8003cc8:	d003      	beq.n	8003cd2 <TIM_OC3_SetConfig+0x9a>
 8003cca:	687b      	ldr	r3, [r7, #4]
 8003ccc:	4a1a      	ldr	r2, [pc, #104]	; (8003d38 <TIM_OC3_SetConfig+0x100>)
 8003cce:	4293      	cmp	r3, r2
 8003cd0:	d113      	bne.n	8003cfa <TIM_OC3_SetConfig+0xc2>
    /* Check parameters */
    assert_param(IS_TIM_OCNIDLE_STATE(OC_Config->OCNIdleState));
    assert_param(IS_TIM_OCIDLE_STATE(OC_Config->OCIdleState));

    /* Reset the Output Compare and Output Compare N IDLE State */
    tmpcr2 &= ~TIM_CR2_OIS3;
 8003cd2:	693b      	ldr	r3, [r7, #16]
 8003cd4:	4a19      	ldr	r2, [pc, #100]	; (8003d3c <TIM_OC3_SetConfig+0x104>)
 8003cd6:	4013      	ands	r3, r2
 8003cd8:	613b      	str	r3, [r7, #16]
    tmpcr2 &= ~TIM_CR2_OIS3N;
 8003cda:	693b      	ldr	r3, [r7, #16]
 8003cdc:	4a18      	ldr	r2, [pc, #96]	; (8003d40 <TIM_OC3_SetConfig+0x108>)
 8003cde:	4013      	ands	r3, r2
 8003ce0:	613b      	str	r3, [r7, #16]
    /* Set the Output Idle state */
    tmpcr2 |= (OC_Config->OCIdleState << 4U);
 8003ce2:	683b      	ldr	r3, [r7, #0]
 8003ce4:	695b      	ldr	r3, [r3, #20]
 8003ce6:	011b      	lsls	r3, r3, #4
 8003ce8:	693a      	ldr	r2, [r7, #16]
 8003cea:	4313      	orrs	r3, r2
 8003cec:	613b      	str	r3, [r7, #16]
    /* Set the Output N Idle state */
    tmpcr2 |= (OC_Config->OCNIdleState << 4U);
 8003cee:	683b      	ldr	r3, [r7, #0]
 8003cf0:	699b      	ldr	r3, [r3, #24]
 8003cf2:	011b      	lsls	r3, r3, #4
 8003cf4:	693a      	ldr	r2, [r7, #16]
 8003cf6:	4313      	orrs	r3, r2
 8003cf8:	613b      	str	r3, [r7, #16]
  }

  /* Write to TIMx CR2 */
  TIMx->CR2 = tmpcr2;
 8003cfa:	687b      	ldr	r3, [r7, #4]
 8003cfc:	693a      	ldr	r2, [r7, #16]
 8003cfe:	605a      	str	r2, [r3, #4]

  /* Write to TIMx CCMR2 */
  TIMx->CCMR2 = tmpccmrx;
 8003d00:	687b      	ldr	r3, [r7, #4]
 8003d02:	68fa      	ldr	r2, [r7, #12]
 8003d04:	61da      	str	r2, [r3, #28]

  /* Set the Capture Compare Register value */
  TIMx->CCR3 = OC_Config->Pulse;
 8003d06:	683b      	ldr	r3, [r7, #0]
 8003d08:	685a      	ldr	r2, [r3, #4]
 8003d0a:	687b      	ldr	r3, [r7, #4]
 8003d0c:	63da      	str	r2, [r3, #60]	; 0x3c

  /* Write to TIMx CCER */
  TIMx->CCER = tmpccer;
 8003d0e:	687b      	ldr	r3, [r7, #4]
 8003d10:	697a      	ldr	r2, [r7, #20]
 8003d12:	621a      	str	r2, [r3, #32]
}
 8003d14:	46c0      	nop			; (mov r8, r8)
 8003d16:	46bd      	mov	sp, r7
 8003d18:	b006      	add	sp, #24
 8003d1a:	bd80      	pop	{r7, pc}
 8003d1c:	fffffeff 	.word	0xfffffeff
 8003d20:	fffffdff 	.word	0xfffffdff
 8003d24:	40012c00 	.word	0x40012c00
 8003d28:	fffff7ff 	.word	0xfffff7ff
 8003d2c:	fffffbff 	.word	0xfffffbff
 8003d30:	40014000 	.word	0x40014000
 8003d34:	40014400 	.word	0x40014400
 8003d38:	40014800 	.word	0x40014800
 8003d3c:	ffffefff 	.word	0xffffefff
 8003d40:	ffffdfff 	.word	0xffffdfff

08003d44 <TIM_OC4_SetConfig>:
  * @param  TIMx to select the TIM peripheral
  * @param  OC_Config The ouput configuration structure
  * @retval None
  */
static void TIM_OC4_SetConfig(TIM_TypeDef *TIMx, TIM_OC_InitTypeDef *OC_Config)
{
 8003d44:	b580      	push	{r7, lr}
 8003d46:	b086      	sub	sp, #24
 8003d48:	af00      	add	r7, sp, #0
 8003d4a:	6078      	str	r0, [r7, #4]
 8003d4c:	6039      	str	r1, [r7, #0]
  uint32_t tmpccmrx;
  uint32_t tmpccer;
  uint32_t tmpcr2;

  /* Disable the Channel 4: Reset the CC4E Bit */
  TIMx->CCER &= ~TIM_CCER_CC4E;
 8003d4e:	687b      	ldr	r3, [r7, #4]
 8003d50:	6a1b      	ldr	r3, [r3, #32]
 8003d52:	4a28      	ldr	r2, [pc, #160]	; (8003df4 <TIM_OC4_SetConfig+0xb0>)
 8003d54:	401a      	ands	r2, r3
 8003d56:	687b      	ldr	r3, [r7, #4]
 8003d58:	621a      	str	r2, [r3, #32]

  /* Get the TIMx CCER register value */
  tmpccer = TIMx->CCER;
 8003d5a:	687b      	ldr	r3, [r7, #4]
 8003d5c:	6a1b      	ldr	r3, [r3, #32]
 8003d5e:	613b      	str	r3, [r7, #16]
  /* Get the TIMx CR2 register value */
  tmpcr2 =  TIMx->CR2;
 8003d60:	687b      	ldr	r3, [r7, #4]
 8003d62:	685b      	ldr	r3, [r3, #4]
 8003d64:	617b      	str	r3, [r7, #20]

  /* Get the TIMx CCMR2 register value */
  tmpccmrx = TIMx->CCMR2;
 8003d66:	687b      	ldr	r3, [r7, #4]
 8003d68:	69db      	ldr	r3, [r3, #28]
 8003d6a:	60fb      	str	r3, [r7, #12]

  /* Reset the Output Compare mode and Capture/Compare selection Bits */
  tmpccmrx &= ~TIM_CCMR2_OC4M;
 8003d6c:	68fb      	ldr	r3, [r7, #12]
 8003d6e:	4a22      	ldr	r2, [pc, #136]	; (8003df8 <TIM_OC4_SetConfig+0xb4>)
 8003d70:	4013      	ands	r3, r2
 8003d72:	60fb      	str	r3, [r7, #12]
  tmpccmrx &= ~TIM_CCMR2_CC4S;
 8003d74:	68fb      	ldr	r3, [r7, #12]
 8003d76:	4a21      	ldr	r2, [pc, #132]	; (8003dfc <TIM_OC4_SetConfig+0xb8>)
 8003d78:	4013      	ands	r3, r2
 8003d7a:	60fb      	str	r3, [r7, #12]

  /* Select the Output Compare Mode */
  tmpccmrx |= (OC_Config->OCMode << 8U);
 8003d7c:	683b      	ldr	r3, [r7, #0]
 8003d7e:	681b      	ldr	r3, [r3, #0]
 8003d80:	021b      	lsls	r3, r3, #8
 8003d82:	68fa      	ldr	r2, [r7, #12]
 8003d84:	4313      	orrs	r3, r2
 8003d86:	60fb      	str	r3, [r7, #12]

  /* Reset the Output Polarity level */
  tmpccer &= ~TIM_CCER_CC4P;
 8003d88:	693b      	ldr	r3, [r7, #16]
 8003d8a:	4a1d      	ldr	r2, [pc, #116]	; (8003e00 <TIM_OC4_SetConfig+0xbc>)
 8003d8c:	4013      	ands	r3, r2
 8003d8e:	613b      	str	r3, [r7, #16]
  /* Set the Output Compare Polarity */
  tmpccer |= (OC_Config->OCPolarity << 12U);
 8003d90:	683b      	ldr	r3, [r7, #0]
 8003d92:	689b      	ldr	r3, [r3, #8]
 8003d94:	031b      	lsls	r3, r3, #12
 8003d96:	693a      	ldr	r2, [r7, #16]
 8003d98:	4313      	orrs	r3, r2
 8003d9a:	613b      	str	r3, [r7, #16]

  if (IS_TIM_BREAK_INSTANCE(TIMx))
 8003d9c:	687b      	ldr	r3, [r7, #4]
 8003d9e:	4a19      	ldr	r2, [pc, #100]	; (8003e04 <TIM_OC4_SetConfig+0xc0>)
 8003da0:	4293      	cmp	r3, r2
 8003da2:	d00b      	beq.n	8003dbc <TIM_OC4_SetConfig+0x78>
 8003da4:	687b      	ldr	r3, [r7, #4]
 8003da6:	4a18      	ldr	r2, [pc, #96]	; (8003e08 <TIM_OC4_SetConfig+0xc4>)
 8003da8:	4293      	cmp	r3, r2
 8003daa:	d007      	beq.n	8003dbc <TIM_OC4_SetConfig+0x78>
 8003dac:	687b      	ldr	r3, [r7, #4]
 8003dae:	4a17      	ldr	r2, [pc, #92]	; (8003e0c <TIM_OC4_SetConfig+0xc8>)
 8003db0:	4293      	cmp	r3, r2
 8003db2:	d003      	beq.n	8003dbc <TIM_OC4_SetConfig+0x78>
 8003db4:	687b      	ldr	r3, [r7, #4]
 8003db6:	4a16      	ldr	r2, [pc, #88]	; (8003e10 <TIM_OC4_SetConfig+0xcc>)
 8003db8:	4293      	cmp	r3, r2
 8003dba:	d109      	bne.n	8003dd0 <TIM_OC4_SetConfig+0x8c>
  {
    /* Check parameters */
    assert_param(IS_TIM_OCIDLE_STATE(OC_Config->OCIdleState));

    /* Reset the Output Compare IDLE State */
    tmpcr2 &= ~TIM_CR2_OIS4;
 8003dbc:	697b      	ldr	r3, [r7, #20]
 8003dbe:	4a15      	ldr	r2, [pc, #84]	; (8003e14 <TIM_OC4_SetConfig+0xd0>)
 8003dc0:	4013      	ands	r3, r2
 8003dc2:	617b      	str	r3, [r7, #20]

    /* Set the Output Idle state */
    tmpcr2 |= (OC_Config->OCIdleState << 6U);
 8003dc4:	683b      	ldr	r3, [r7, #0]
 8003dc6:	695b      	ldr	r3, [r3, #20]
 8003dc8:	019b      	lsls	r3, r3, #6
 8003dca:	697a      	ldr	r2, [r7, #20]
 8003dcc:	4313      	orrs	r3, r2
 8003dce:	617b      	str	r3, [r7, #20]
  }

  /* Write to TIMx CR2 */
  TIMx->CR2 = tmpcr2;
 8003dd0:	687b      	ldr	r3, [r7, #4]
 8003dd2:	697a      	ldr	r2, [r7, #20]
 8003dd4:	605a      	str	r2, [r3, #4]

  /* Write to TIMx CCMR2 */
  TIMx->CCMR2 = tmpccmrx;
 8003dd6:	687b      	ldr	r3, [r7, #4]
 8003dd8:	68fa      	ldr	r2, [r7, #12]
 8003dda:	61da      	str	r2, [r3, #28]

  /* Set the Capture Compare Register value */
  TIMx->CCR4 = OC_Config->Pulse;
 8003ddc:	683b      	ldr	r3, [r7, #0]
 8003dde:	685a      	ldr	r2, [r3, #4]
 8003de0:	687b      	ldr	r3, [r7, #4]
 8003de2:	641a      	str	r2, [r3, #64]	; 0x40

  /* Write to TIMx CCER */
  TIMx->CCER = tmpccer;
 8003de4:	687b      	ldr	r3, [r7, #4]
 8003de6:	693a      	ldr	r2, [r7, #16]
 8003de8:	621a      	str	r2, [r3, #32]
}
 8003dea:	46c0      	nop			; (mov r8, r8)
 8003dec:	46bd      	mov	sp, r7
 8003dee:	b006      	add	sp, #24
 8003df0:	bd80      	pop	{r7, pc}
 8003df2:	46c0      	nop			; (mov r8, r8)
 8003df4:	ffffefff 	.word	0xffffefff
 8003df8:	ffff8fff 	.word	0xffff8fff
 8003dfc:	fffffcff 	.word	0xfffffcff
 8003e00:	ffffdfff 	.word	0xffffdfff
 8003e04:	40012c00 	.word	0x40012c00
 8003e08:	40014000 	.word	0x40014000
 8003e0c:	40014400 	.word	0x40014400
 8003e10:	40014800 	.word	0x40014800
 8003e14:	ffffbfff 	.word	0xffffbfff

08003e18 <TIM_TI1_ConfigInputStage>:
  * @param  TIM_ICFilter Specifies the Input Capture Filter.
  *          This parameter must be a value between 0x00 and 0x0F.
  * @retval None
  */
static void TIM_TI1_ConfigInputStage(TIM_TypeDef *TIMx, uint32_t TIM_ICPolarity, uint32_t TIM_ICFilter)
{
 8003e18:	b580      	push	{r7, lr}
 8003e1a:	b086      	sub	sp, #24
 8003e1c:	af00      	add	r7, sp, #0
 8003e1e:	60f8      	str	r0, [r7, #12]
 8003e20:	60b9      	str	r1, [r7, #8]
 8003e22:	607a      	str	r2, [r7, #4]
  uint32_t tmpccmr1;
  uint32_t tmpccer;

  /* Disable the Channel 1: Reset the CC1E Bit */
  tmpccer = TIMx->CCER;
 8003e24:	68fb      	ldr	r3, [r7, #12]
 8003e26:	6a1b      	ldr	r3, [r3, #32]
 8003e28:	617b      	str	r3, [r7, #20]
  TIMx->CCER &= ~TIM_CCER_CC1E;
 8003e2a:	68fb      	ldr	r3, [r7, #12]
 8003e2c:	6a1b      	ldr	r3, [r3, #32]
 8003e2e:	2201      	movs	r2, #1
 8003e30:	4393      	bics	r3, r2
 8003e32:	001a      	movs	r2, r3
 8003e34:	68fb      	ldr	r3, [r7, #12]
 8003e36:	621a      	str	r2, [r3, #32]
  tmpccmr1 = TIMx->CCMR1;
 8003e38:	68fb      	ldr	r3, [r7, #12]
 8003e3a:	699b      	ldr	r3, [r3, #24]
 8003e3c:	613b      	str	r3, [r7, #16]

  /* Set the filter */
  tmpccmr1 &= ~TIM_CCMR1_IC1F;
 8003e3e:	693b      	ldr	r3, [r7, #16]
 8003e40:	22f0      	movs	r2, #240	; 0xf0
 8003e42:	4393      	bics	r3, r2
 8003e44:	613b      	str	r3, [r7, #16]
  tmpccmr1 |= (TIM_ICFilter << 4U);
 8003e46:	687b      	ldr	r3, [r7, #4]
 8003e48:	011b      	lsls	r3, r3, #4
 8003e4a:	693a      	ldr	r2, [r7, #16]
 8003e4c:	4313      	orrs	r3, r2
 8003e4e:	613b      	str	r3, [r7, #16]

  /* Select the Polarity and set the CC1E Bit */
  tmpccer &= ~(TIM_CCER_CC1P | TIM_CCER_CC1NP);
 8003e50:	697b      	ldr	r3, [r7, #20]
 8003e52:	220a      	movs	r2, #10
 8003e54:	4393      	bics	r3, r2
 8003e56:	617b      	str	r3, [r7, #20]
  tmpccer |= TIM_ICPolarity;
 8003e58:	697a      	ldr	r2, [r7, #20]
 8003e5a:	68bb      	ldr	r3, [r7, #8]
 8003e5c:	4313      	orrs	r3, r2
 8003e5e:	617b      	str	r3, [r7, #20]

  /* Write to TIMx CCMR1 and CCER registers */
  TIMx->CCMR1 = tmpccmr1;
 8003e60:	68fb      	ldr	r3, [r7, #12]
 8003e62:	693a      	ldr	r2, [r7, #16]
 8003e64:	619a      	str	r2, [r3, #24]
  TIMx->CCER = tmpccer;
 8003e66:	68fb      	ldr	r3, [r7, #12]
 8003e68:	697a      	ldr	r2, [r7, #20]
 8003e6a:	621a      	str	r2, [r3, #32]
}
 8003e6c:	46c0      	nop			; (mov r8, r8)
 8003e6e:	46bd      	mov	sp, r7
 8003e70:	b006      	add	sp, #24
 8003e72:	bd80      	pop	{r7, pc}

08003e74 <TIM_TI2_ConfigInputStage>:
  * @param  TIM_ICFilter Specifies the Input Capture Filter.
  *          This parameter must be a value between 0x00 and 0x0F.
  * @retval None
  */
static void TIM_TI2_ConfigInputStage(TIM_TypeDef *TIMx, uint32_t TIM_ICPolarity, uint32_t TIM_ICFilter)
{
 8003e74:	b580      	push	{r7, lr}
 8003e76:	b086      	sub	sp, #24
 8003e78:	af00      	add	r7, sp, #0
 8003e7a:	60f8      	str	r0, [r7, #12]
 8003e7c:	60b9      	str	r1, [r7, #8]
 8003e7e:	607a      	str	r2, [r7, #4]
  uint32_t tmpccmr1;
  uint32_t tmpccer;

  /* Disable the Channel 2: Reset the CC2E Bit */
  TIMx->CCER &= ~TIM_CCER_CC2E;
 8003e80:	68fb      	ldr	r3, [r7, #12]
 8003e82:	6a1b      	ldr	r3, [r3, #32]
 8003e84:	2210      	movs	r2, #16
 8003e86:	4393      	bics	r3, r2
 8003e88:	001a      	movs	r2, r3
 8003e8a:	68fb      	ldr	r3, [r7, #12]
 8003e8c:	621a      	str	r2, [r3, #32]
  tmpccmr1 = TIMx->CCMR1;
 8003e8e:	68fb      	ldr	r3, [r7, #12]
 8003e90:	699b      	ldr	r3, [r3, #24]
 8003e92:	617b      	str	r3, [r7, #20]
  tmpccer = TIMx->CCER;
 8003e94:	68fb      	ldr	r3, [r7, #12]
 8003e96:	6a1b      	ldr	r3, [r3, #32]
 8003e98:	613b      	str	r3, [r7, #16]

  /* Set the filter */
  tmpccmr1 &= ~TIM_CCMR1_IC2F;
 8003e9a:	697b      	ldr	r3, [r7, #20]
 8003e9c:	4a0d      	ldr	r2, [pc, #52]	; (8003ed4 <TIM_TI2_ConfigInputStage+0x60>)
 8003e9e:	4013      	ands	r3, r2
 8003ea0:	617b      	str	r3, [r7, #20]
  tmpccmr1 |= (TIM_ICFilter << 12U);
 8003ea2:	687b      	ldr	r3, [r7, #4]
 8003ea4:	031b      	lsls	r3, r3, #12
 8003ea6:	697a      	ldr	r2, [r7, #20]
 8003ea8:	4313      	orrs	r3, r2
 8003eaa:	617b      	str	r3, [r7, #20]

  /* Select the Polarity and set the CC2E Bit */
  tmpccer &= ~(TIM_CCER_CC2P | TIM_CCER_CC2NP);
 8003eac:	693b      	ldr	r3, [r7, #16]
 8003eae:	22a0      	movs	r2, #160	; 0xa0
 8003eb0:	4393      	bics	r3, r2
 8003eb2:	613b      	str	r3, [r7, #16]
  tmpccer |= (TIM_ICPolarity << 4U);
 8003eb4:	68bb      	ldr	r3, [r7, #8]
 8003eb6:	011b      	lsls	r3, r3, #4
 8003eb8:	693a      	ldr	r2, [r7, #16]
 8003eba:	4313      	orrs	r3, r2
 8003ebc:	613b      	str	r3, [r7, #16]

  /* Write to TIMx CCMR1 and CCER registers */
  TIMx->CCMR1 = tmpccmr1 ;
 8003ebe:	68fb      	ldr	r3, [r7, #12]
 8003ec0:	697a      	ldr	r2, [r7, #20]
 8003ec2:	619a      	str	r2, [r3, #24]
  TIMx->CCER = tmpccer;
 8003ec4:	68fb      	ldr	r3, [r7, #12]
 8003ec6:	693a      	ldr	r2, [r7, #16]
 8003ec8:	621a      	str	r2, [r3, #32]
}
 8003eca:	46c0      	nop			; (mov r8, r8)
 8003ecc:	46bd      	mov	sp, r7
 8003ece:	b006      	add	sp, #24
 8003ed0:	bd80      	pop	{r7, pc}
 8003ed2:	46c0      	nop			; (mov r8, r8)
 8003ed4:	ffff0fff 	.word	0xffff0fff

08003ed8 <TIM_ITRx_SetConfig>:
  *            @arg TIM_TS_TI2FP2: Filtered Timer Input 2
  *            @arg TIM_TS_ETRF: External Trigger input
  * @retval None
  */
static void TIM_ITRx_SetConfig(TIM_TypeDef *TIMx, uint32_t InputTriggerSource)
{
 8003ed8:	b580      	push	{r7, lr}
 8003eda:	b084      	sub	sp, #16
 8003edc:	af00      	add	r7, sp, #0
 8003ede:	6078      	str	r0, [r7, #4]
 8003ee0:	6039      	str	r1, [r7, #0]
  uint32_t tmpsmcr;

  /* Get the TIMx SMCR register value */
  tmpsmcr = TIMx->SMCR;
 8003ee2:	687b      	ldr	r3, [r7, #4]
 8003ee4:	689b      	ldr	r3, [r3, #8]
 8003ee6:	60fb      	str	r3, [r7, #12]
  /* Reset the TS Bits */
  tmpsmcr &= ~TIM_SMCR_TS;
 8003ee8:	68fb      	ldr	r3, [r7, #12]
 8003eea:	2270      	movs	r2, #112	; 0x70
 8003eec:	4393      	bics	r3, r2
 8003eee:	60fb      	str	r3, [r7, #12]
  /* Set the Input Trigger source and the slave mode*/
  tmpsmcr |= (InputTriggerSource | TIM_SLAVEMODE_EXTERNAL1);
 8003ef0:	683a      	ldr	r2, [r7, #0]
 8003ef2:	68fb      	ldr	r3, [r7, #12]
 8003ef4:	4313      	orrs	r3, r2
 8003ef6:	2207      	movs	r2, #7
 8003ef8:	4313      	orrs	r3, r2
 8003efa:	60fb      	str	r3, [r7, #12]
  /* Write to TIMx SMCR */
  TIMx->SMCR = tmpsmcr;
 8003efc:	687b      	ldr	r3, [r7, #4]
 8003efe:	68fa      	ldr	r2, [r7, #12]
 8003f00:	609a      	str	r2, [r3, #8]
}
 8003f02:	46c0      	nop			; (mov r8, r8)
 8003f04:	46bd      	mov	sp, r7
 8003f06:	b004      	add	sp, #16
 8003f08:	bd80      	pop	{r7, pc}
	...

08003f0c <TIM_ETR_SetConfig>:
  *          This parameter must be a value between 0x00 and 0x0F
  * @retval None
  */
void TIM_ETR_SetConfig(TIM_TypeDef *TIMx, uint32_t TIM_ExtTRGPrescaler,
                       uint32_t TIM_ExtTRGPolarity, uint32_t ExtTRGFilter)
{
 8003f0c:	b580      	push	{r7, lr}
 8003f0e:	b086      	sub	sp, #24
 8003f10:	af00      	add	r7, sp, #0
 8003f12:	60f8      	str	r0, [r7, #12]
 8003f14:	60b9      	str	r1, [r7, #8]
 8003f16:	607a      	str	r2, [r7, #4]
 8003f18:	603b      	str	r3, [r7, #0]
  uint32_t tmpsmcr;

  tmpsmcr = TIMx->SMCR;
 8003f1a:	68fb      	ldr	r3, [r7, #12]
 8003f1c:	689b      	ldr	r3, [r3, #8]
 8003f1e:	617b      	str	r3, [r7, #20]

  /* Reset the ETR Bits */
  tmpsmcr &= ~(TIM_SMCR_ETF | TIM_SMCR_ETPS | TIM_SMCR_ECE | TIM_SMCR_ETP);
 8003f20:	697b      	ldr	r3, [r7, #20]
 8003f22:	4a09      	ldr	r2, [pc, #36]	; (8003f48 <TIM_ETR_SetConfig+0x3c>)
 8003f24:	4013      	ands	r3, r2
 8003f26:	617b      	str	r3, [r7, #20]

  /* Set the Prescaler, the Filter value and the Polarity */
  tmpsmcr |= (uint32_t)(TIM_ExtTRGPrescaler | (TIM_ExtTRGPolarity | (ExtTRGFilter << 8U)));
 8003f28:	683b      	ldr	r3, [r7, #0]
 8003f2a:	021a      	lsls	r2, r3, #8
 8003f2c:	687b      	ldr	r3, [r7, #4]
 8003f2e:	431a      	orrs	r2, r3
 8003f30:	68bb      	ldr	r3, [r7, #8]
 8003f32:	4313      	orrs	r3, r2
 8003f34:	697a      	ldr	r2, [r7, #20]
 8003f36:	4313      	orrs	r3, r2
 8003f38:	617b      	str	r3, [r7, #20]

  /* Write to TIMx SMCR */
  TIMx->SMCR = tmpsmcr;
 8003f3a:	68fb      	ldr	r3, [r7, #12]
 8003f3c:	697a      	ldr	r2, [r7, #20]
 8003f3e:	609a      	str	r2, [r3, #8]
}
 8003f40:	46c0      	nop			; (mov r8, r8)
 8003f42:	46bd      	mov	sp, r7
 8003f44:	b006      	add	sp, #24
 8003f46:	bd80      	pop	{r7, pc}
 8003f48:	ffff00ff 	.word	0xffff00ff

08003f4c <TIM_CCxChannelCmd>:
  * @param  ChannelState specifies the TIM Channel CCxE bit new state.
  *          This parameter can be: TIM_CCx_ENABLE or TIM_CCx_DISABLE.
  * @retval None
  */
void TIM_CCxChannelCmd(TIM_TypeDef *TIMx, uint32_t Channel, uint32_t ChannelState)
{
 8003f4c:	b580      	push	{r7, lr}
 8003f4e:	b086      	sub	sp, #24
 8003f50:	af00      	add	r7, sp, #0
 8003f52:	60f8      	str	r0, [r7, #12]
 8003f54:	60b9      	str	r1, [r7, #8]
 8003f56:	607a      	str	r2, [r7, #4]

  /* Check the parameters */
  assert_param(IS_TIM_CC1_INSTANCE(TIMx));
  assert_param(IS_TIM_CHANNELS(Channel));

  tmp = TIM_CCER_CC1E << (Channel & 0x1FU); /* 0x1FU = 31 bits max shift */
 8003f58:	68bb      	ldr	r3, [r7, #8]
 8003f5a:	221f      	movs	r2, #31
 8003f5c:	4013      	ands	r3, r2
 8003f5e:	2201      	movs	r2, #1
 8003f60:	409a      	lsls	r2, r3
 8003f62:	0013      	movs	r3, r2
 8003f64:	617b      	str	r3, [r7, #20]

  /* Reset the CCxE Bit */
  TIMx->CCER &= ~tmp;
 8003f66:	68fb      	ldr	r3, [r7, #12]
 8003f68:	6a1b      	ldr	r3, [r3, #32]
 8003f6a:	697a      	ldr	r2, [r7, #20]
 8003f6c:	43d2      	mvns	r2, r2
 8003f6e:	401a      	ands	r2, r3
 8003f70:	68fb      	ldr	r3, [r7, #12]
 8003f72:	621a      	str	r2, [r3, #32]

  /* Set or reset the CCxE Bit */
  TIMx->CCER |= (uint32_t)(ChannelState << (Channel & 0x1FU)); /* 0x1FU = 31 bits max shift */
 8003f74:	68fb      	ldr	r3, [r7, #12]
 8003f76:	6a1a      	ldr	r2, [r3, #32]
 8003f78:	68bb      	ldr	r3, [r7, #8]
 8003f7a:	211f      	movs	r1, #31
 8003f7c:	400b      	ands	r3, r1
 8003f7e:	6879      	ldr	r1, [r7, #4]
 8003f80:	4099      	lsls	r1, r3
 8003f82:	000b      	movs	r3, r1
 8003f84:	431a      	orrs	r2, r3
 8003f86:	68fb      	ldr	r3, [r7, #12]
 8003f88:	621a      	str	r2, [r3, #32]
}
 8003f8a:	46c0      	nop			; (mov r8, r8)
 8003f8c:	46bd      	mov	sp, r7
 8003f8e:	b006      	add	sp, #24
 8003f90:	bd80      	pop	{r7, pc}
	...

08003f94 <HAL_TIMEx_MasterConfigSynchronization>:
  *         mode.
  * @retval HAL status
  */
HAL_StatusTypeDef HAL_TIMEx_MasterConfigSynchronization(TIM_HandleTypeDef *htim,
                                                        TIM_MasterConfigTypeDef *sMasterConfig)
{
 8003f94:	b580      	push	{r7, lr}
 8003f96:	b084      	sub	sp, #16
 8003f98:	af00      	add	r7, sp, #0
 8003f9a:	6078      	str	r0, [r7, #4]
 8003f9c:	6039      	str	r1, [r7, #0]
  assert_param(IS_TIM_MASTER_INSTANCE(htim->Instance));
  assert_param(IS_TIM_TRGO_SOURCE(sMasterConfig->MasterOutputTrigger));
  assert_param(IS_TIM_MSM_STATE(sMasterConfig->MasterSlaveMode));

  /* Check input state */
  __HAL_LOCK(htim);
 8003f9e:	687b      	ldr	r3, [r7, #4]
 8003fa0:	223c      	movs	r2, #60	; 0x3c
 8003fa2:	5c9b      	ldrb	r3, [r3, r2]
 8003fa4:	2b01      	cmp	r3, #1
 8003fa6:	d101      	bne.n	8003fac <HAL_TIMEx_MasterConfigSynchronization+0x18>
 8003fa8:	2302      	movs	r3, #2
 8003faa:	e047      	b.n	800403c <HAL_TIMEx_MasterConfigSynchronization+0xa8>
 8003fac:	687b      	ldr	r3, [r7, #4]
 8003fae:	223c      	movs	r2, #60	; 0x3c
 8003fb0:	2101      	movs	r1, #1
 8003fb2:	5499      	strb	r1, [r3, r2]

  /* Change the handler state */
  htim->State = HAL_TIM_STATE_BUSY;
 8003fb4:	687b      	ldr	r3, [r7, #4]
 8003fb6:	223d      	movs	r2, #61	; 0x3d
 8003fb8:	2102      	movs	r1, #2
 8003fba:	5499      	strb	r1, [r3, r2]

  /* Get the TIMx CR2 register value */
  tmpcr2 = htim->Instance->CR2;
 8003fbc:	687b      	ldr	r3, [r7, #4]
 8003fbe:	681b      	ldr	r3, [r3, #0]
 8003fc0:	685b      	ldr	r3, [r3, #4]
 8003fc2:	60fb      	str	r3, [r7, #12]

  /* Get the TIMx SMCR register value */
  tmpsmcr = htim->Instance->SMCR;
 8003fc4:	687b      	ldr	r3, [r7, #4]
 8003fc6:	681b      	ldr	r3, [r3, #0]
 8003fc8:	689b      	ldr	r3, [r3, #8]
 8003fca:	60bb      	str	r3, [r7, #8]

  /* Reset the MMS Bits */
  tmpcr2 &= ~TIM_CR2_MMS;
 8003fcc:	68fb      	ldr	r3, [r7, #12]
 8003fce:	2270      	movs	r2, #112	; 0x70
 8003fd0:	4393      	bics	r3, r2
 8003fd2:	60fb      	str	r3, [r7, #12]
  /* Select the TRGO source */
  tmpcr2 |=  sMasterConfig->MasterOutputTrigger;
 8003fd4:	683b      	ldr	r3, [r7, #0]
 8003fd6:	681b      	ldr	r3, [r3, #0]
 8003fd8:	68fa      	ldr	r2, [r7, #12]
 8003fda:	4313      	orrs	r3, r2
 8003fdc:	60fb      	str	r3, [r7, #12]

  /* Update TIMx CR2 */
  htim->Instance->CR2 = tmpcr2;
 8003fde:	687b      	ldr	r3, [r7, #4]
 8003fe0:	681b      	ldr	r3, [r3, #0]
 8003fe2:	68fa      	ldr	r2, [r7, #12]
 8003fe4:	605a      	str	r2, [r3, #4]

  if (IS_TIM_SLAVE_INSTANCE(htim->Instance))
 8003fe6:	687b      	ldr	r3, [r7, #4]
 8003fe8:	681b      	ldr	r3, [r3, #0]
 8003fea:	4a16      	ldr	r2, [pc, #88]	; (8004044 <HAL_TIMEx_MasterConfigSynchronization+0xb0>)
 8003fec:	4293      	cmp	r3, r2
 8003fee:	d00f      	beq.n	8004010 <HAL_TIMEx_MasterConfigSynchronization+0x7c>
 8003ff0:	687b      	ldr	r3, [r7, #4]
 8003ff2:	681a      	ldr	r2, [r3, #0]
 8003ff4:	2380      	movs	r3, #128	; 0x80
 8003ff6:	05db      	lsls	r3, r3, #23
 8003ff8:	429a      	cmp	r2, r3
 8003ffa:	d009      	beq.n	8004010 <HAL_TIMEx_MasterConfigSynchronization+0x7c>
 8003ffc:	687b      	ldr	r3, [r7, #4]
 8003ffe:	681b      	ldr	r3, [r3, #0]
 8004000:	4a11      	ldr	r2, [pc, #68]	; (8004048 <HAL_TIMEx_MasterConfigSynchronization+0xb4>)
 8004002:	4293      	cmp	r3, r2
 8004004:	d004      	beq.n	8004010 <HAL_TIMEx_MasterConfigSynchronization+0x7c>
 8004006:	687b      	ldr	r3, [r7, #4]
 8004008:	681b      	ldr	r3, [r3, #0]
 800400a:	4a10      	ldr	r2, [pc, #64]	; (800404c <HAL_TIMEx_MasterConfigSynchronization+0xb8>)
 800400c:	4293      	cmp	r3, r2
 800400e:	d10c      	bne.n	800402a <HAL_TIMEx_MasterConfigSynchronization+0x96>
  {
    /* Reset the MSM Bit */
    tmpsmcr &= ~TIM_SMCR_MSM;
 8004010:	68bb      	ldr	r3, [r7, #8]
 8004012:	2280      	movs	r2, #128	; 0x80
 8004014:	4393      	bics	r3, r2
 8004016:	60bb      	str	r3, [r7, #8]
    /* Set master mode */
    tmpsmcr |= sMasterConfig->MasterSlaveMode;
 8004018:	683b      	ldr	r3, [r7, #0]
 800401a:	685b      	ldr	r3, [r3, #4]
 800401c:	68ba      	ldr	r2, [r7, #8]
 800401e:	4313      	orrs	r3, r2
 8004020:	60bb      	str	r3, [r7, #8]

    /* Update TIMx SMCR */
    htim->Instance->SMCR = tmpsmcr;
 8004022:	687b      	ldr	r3, [r7, #4]
 8004024:	681b      	ldr	r3, [r3, #0]
 8004026:	68ba      	ldr	r2, [r7, #8]
 8004028:	609a      	str	r2, [r3, #8]
  }

  /* Change the htim state */
  htim->State = HAL_TIM_STATE_READY;
 800402a:	687b      	ldr	r3, [r7, #4]
 800402c:	223d      	movs	r2, #61	; 0x3d
 800402e:	2101      	movs	r1, #1
 8004030:	5499      	strb	r1, [r3, r2]

  __HAL_UNLOCK(htim);
 8004032:	687b      	ldr	r3, [r7, #4]
 8004034:	223c      	movs	r2, #60	; 0x3c
 8004036:	2100      	movs	r1, #0
 8004038:	5499      	strb	r1, [r3, r2]

  return HAL_OK;
 800403a:	2300      	movs	r3, #0
}
 800403c:	0018      	movs	r0, r3
 800403e:	46bd      	mov	sp, r7
 8004040:	b004      	add	sp, #16
 8004042:	bd80      	pop	{r7, pc}
 8004044:	40012c00 	.word	0x40012c00
 8004048:	40000400 	.word	0x40000400
 800404c:	40014000 	.word	0x40014000

08004050 <HAL_TIMEx_ConfigBreakDeadTime>:
  *         interrupt can be enabled by calling the @ref __HAL_TIM_ENABLE_IT macro.
  * @retval HAL status
  */
HAL_StatusTypeDef HAL_TIMEx_ConfigBreakDeadTime(TIM_HandleTypeDef *htim,
                                                TIM_BreakDeadTimeConfigTypeDef *sBreakDeadTimeConfig)
{
 8004050:	b580      	push	{r7, lr}
 8004052:	b084      	sub	sp, #16
 8004054:	af00      	add	r7, sp, #0
 8004056:	6078      	str	r0, [r7, #4]
 8004058:	6039      	str	r1, [r7, #0]
  /* Keep this variable initialized to 0 as it is used to configure BDTR register */
  uint32_t tmpbdtr = 0U;
 800405a:	2300      	movs	r3, #0
 800405c:	60fb      	str	r3, [r7, #12]
  assert_param(IS_TIM_BREAK_STATE(sBreakDeadTimeConfig->BreakState));
  assert_param(IS_TIM_BREAK_POLARITY(sBreakDeadTimeConfig->BreakPolarity));
  assert_param(IS_TIM_AUTOMATIC_OUTPUT_STATE(sBreakDeadTimeConfig->AutomaticOutput));

  /* Check input state */
  __HAL_LOCK(htim);
 800405e:	687b      	ldr	r3, [r7, #4]
 8004060:	223c      	movs	r2, #60	; 0x3c
 8004062:	5c9b      	ldrb	r3, [r3, r2]
 8004064:	2b01      	cmp	r3, #1
 8004066:	d101      	bne.n	800406c <HAL_TIMEx_ConfigBreakDeadTime+0x1c>
 8004068:	2302      	movs	r3, #2
 800406a:	e03e      	b.n	80040ea <HAL_TIMEx_ConfigBreakDeadTime+0x9a>
 800406c:	687b      	ldr	r3, [r7, #4]
 800406e:	223c      	movs	r2, #60	; 0x3c
 8004070:	2101      	movs	r1, #1
 8004072:	5499      	strb	r1, [r3, r2]

  /* Set the Lock level, the Break enable Bit and the Polarity, the OSSR State,
     the OSSI State, the dead time value and the Automatic Output Enable Bit */

  /* Set the BDTR bits */
  MODIFY_REG(tmpbdtr, TIM_BDTR_DTG, sBreakDeadTimeConfig->DeadTime);
 8004074:	68fb      	ldr	r3, [r7, #12]
 8004076:	22ff      	movs	r2, #255	; 0xff
 8004078:	4393      	bics	r3, r2
 800407a:	001a      	movs	r2, r3
 800407c:	683b      	ldr	r3, [r7, #0]
 800407e:	68db      	ldr	r3, [r3, #12]
 8004080:	4313      	orrs	r3, r2
 8004082:	60fb      	str	r3, [r7, #12]
  MODIFY_REG(tmpbdtr, TIM_BDTR_LOCK, sBreakDeadTimeConfig->LockLevel);
 8004084:	68fb      	ldr	r3, [r7, #12]
 8004086:	4a1b      	ldr	r2, [pc, #108]	; (80040f4 <HAL_TIMEx_ConfigBreakDeadTime+0xa4>)
 8004088:	401a      	ands	r2, r3
 800408a:	683b      	ldr	r3, [r7, #0]
 800408c:	689b      	ldr	r3, [r3, #8]
 800408e:	4313      	orrs	r3, r2
 8004090:	60fb      	str	r3, [r7, #12]
  MODIFY_REG(tmpbdtr, TIM_BDTR_OSSI, sBreakDeadTimeConfig->OffStateIDLEMode);
 8004092:	68fb      	ldr	r3, [r7, #12]
 8004094:	4a18      	ldr	r2, [pc, #96]	; (80040f8 <HAL_TIMEx_ConfigBreakDeadTime+0xa8>)
 8004096:	401a      	ands	r2, r3
 8004098:	683b      	ldr	r3, [r7, #0]
 800409a:	685b      	ldr	r3, [r3, #4]
 800409c:	4313      	orrs	r3, r2
 800409e:	60fb      	str	r3, [r7, #12]
  MODIFY_REG(tmpbdtr, TIM_BDTR_OSSR, sBreakDeadTimeConfig->OffStateRunMode);
 80040a0:	68fb      	ldr	r3, [r7, #12]
 80040a2:	4a16      	ldr	r2, [pc, #88]	; (80040fc <HAL_TIMEx_ConfigBreakDeadTime+0xac>)
 80040a4:	401a      	ands	r2, r3
 80040a6:	683b      	ldr	r3, [r7, #0]
 80040a8:	681b      	ldr	r3, [r3, #0]
 80040aa:	4313      	orrs	r3, r2
 80040ac:	60fb      	str	r3, [r7, #12]
  MODIFY_REG(tmpbdtr, TIM_BDTR_BKE, sBreakDeadTimeConfig->BreakState);
 80040ae:	68fb      	ldr	r3, [r7, #12]
 80040b0:	4a13      	ldr	r2, [pc, #76]	; (8004100 <HAL_TIMEx_ConfigBreakDeadTime+0xb0>)
 80040b2:	401a      	ands	r2, r3
 80040b4:	683b      	ldr	r3, [r7, #0]
 80040b6:	691b      	ldr	r3, [r3, #16]
 80040b8:	4313      	orrs	r3, r2
 80040ba:	60fb      	str	r3, [r7, #12]
  MODIFY_REG(tmpbdtr, TIM_BDTR_BKP, sBreakDeadTimeConfig->BreakPolarity);
 80040bc:	68fb      	ldr	r3, [r7, #12]
 80040be:	4a11      	ldr	r2, [pc, #68]	; (8004104 <HAL_TIMEx_ConfigBreakDeadTime+0xb4>)
 80040c0:	401a      	ands	r2, r3
 80040c2:	683b      	ldr	r3, [r7, #0]
 80040c4:	695b      	ldr	r3, [r3, #20]
 80040c6:	4313      	orrs	r3, r2
 80040c8:	60fb      	str	r3, [r7, #12]
  MODIFY_REG(tmpbdtr, TIM_BDTR_AOE, sBreakDeadTimeConfig->AutomaticOutput);
 80040ca:	68fb      	ldr	r3, [r7, #12]
 80040cc:	4a0e      	ldr	r2, [pc, #56]	; (8004108 <HAL_TIMEx_ConfigBreakDeadTime+0xb8>)
 80040ce:	401a      	ands	r2, r3
 80040d0:	683b      	ldr	r3, [r7, #0]
 80040d2:	69db      	ldr	r3, [r3, #28]
 80040d4:	4313      	orrs	r3, r2
 80040d6:	60fb      	str	r3, [r7, #12]


  /* Set TIMx_BDTR */
  htim->Instance->BDTR = tmpbdtr;
 80040d8:	687b      	ldr	r3, [r7, #4]
 80040da:	681b      	ldr	r3, [r3, #0]
 80040dc:	68fa      	ldr	r2, [r7, #12]
 80040de:	645a      	str	r2, [r3, #68]	; 0x44

  __HAL_UNLOCK(htim);
 80040e0:	687b      	ldr	r3, [r7, #4]
 80040e2:	223c      	movs	r2, #60	; 0x3c
 80040e4:	2100      	movs	r1, #0
 80040e6:	5499      	strb	r1, [r3, r2]

  return HAL_OK;
 80040e8:	2300      	movs	r3, #0
}
 80040ea:	0018      	movs	r0, r3
 80040ec:	46bd      	mov	sp, r7
 80040ee:	b004      	add	sp, #16
 80040f0:	bd80      	pop	{r7, pc}
 80040f2:	46c0      	nop			; (mov r8, r8)
 80040f4:	fffffcff 	.word	0xfffffcff
 80040f8:	fffffbff 	.word	0xfffffbff
 80040fc:	fffff7ff 	.word	0xfffff7ff
 8004100:	ffffefff 	.word	0xffffefff
 8004104:	ffffdfff 	.word	0xffffdfff
 8004108:	ffffbfff 	.word	0xffffbfff

0800410c <__errno>:
 800410c:	4b01      	ldr	r3, [pc, #4]	; (8004114 <__errno+0x8>)
 800410e:	6818      	ldr	r0, [r3, #0]
 8004110:	4770      	bx	lr
 8004112:	46c0      	nop			; (mov r8, r8)
 8004114:	20000018 	.word	0x20000018

08004118 <__libc_init_array>:
 8004118:	b570      	push	{r4, r5, r6, lr}
 800411a:	2600      	movs	r6, #0
 800411c:	4d0c      	ldr	r5, [pc, #48]	; (8004150 <__libc_init_array+0x38>)
 800411e:	4c0d      	ldr	r4, [pc, #52]	; (8004154 <__libc_init_array+0x3c>)
 8004120:	1b64      	subs	r4, r4, r5
 8004122:	10a4      	asrs	r4, r4, #2
 8004124:	42a6      	cmp	r6, r4
 8004126:	d109      	bne.n	800413c <__libc_init_array+0x24>
 8004128:	2600      	movs	r6, #0
 800412a:	f000 f92f 	bl	800438c <_init>
 800412e:	4d0a      	ldr	r5, [pc, #40]	; (8004158 <__libc_init_array+0x40>)
 8004130:	4c0a      	ldr	r4, [pc, #40]	; (800415c <__libc_init_array+0x44>)
 8004132:	1b64      	subs	r4, r4, r5
 8004134:	10a4      	asrs	r4, r4, #2
 8004136:	42a6      	cmp	r6, r4
 8004138:	d105      	bne.n	8004146 <__libc_init_array+0x2e>
 800413a:	bd70      	pop	{r4, r5, r6, pc}
 800413c:	00b3      	lsls	r3, r6, #2
 800413e:	58eb      	ldr	r3, [r5, r3]
 8004140:	4798      	blx	r3
 8004142:	3601      	adds	r6, #1
 8004144:	e7ee      	b.n	8004124 <__libc_init_array+0xc>
 8004146:	00b3      	lsls	r3, r6, #2
 8004148:	58eb      	ldr	r3, [r5, r3]
 800414a:	4798      	blx	r3
 800414c:	3601      	adds	r6, #1
 800414e:	e7f2      	b.n	8004136 <__libc_init_array+0x1e>
 8004150:	0800445c 	.word	0x0800445c
 8004154:	0800445c 	.word	0x0800445c
 8004158:	0800445c 	.word	0x0800445c
 800415c:	08004460 	.word	0x08004460

08004160 <memset>:
 8004160:	0003      	movs	r3, r0
 8004162:	1812      	adds	r2, r2, r0
 8004164:	4293      	cmp	r3, r2
 8004166:	d100      	bne.n	800416a <memset+0xa>
 8004168:	4770      	bx	lr
 800416a:	7019      	strb	r1, [r3, #0]
 800416c:	3301      	adds	r3, #1
 800416e:	e7f9      	b.n	8004164 <memset+0x4>

08004170 <sqrt>:
 8004170:	b5f0      	push	{r4, r5, r6, r7, lr}
 8004172:	b08f      	sub	sp, #60	; 0x3c
 8004174:	0004      	movs	r4, r0
 8004176:	000d      	movs	r5, r1
 8004178:	f000 f854 	bl	8004224 <__ieee754_sqrt>
 800417c:	4b27      	ldr	r3, [pc, #156]	; (800421c <sqrt+0xac>)
 800417e:	9000      	str	r0, [sp, #0]
 8004180:	9101      	str	r1, [sp, #4]
 8004182:	781b      	ldrb	r3, [r3, #0]
 8004184:	b25b      	sxtb	r3, r3
 8004186:	9302      	str	r3, [sp, #8]
 8004188:	3301      	adds	r3, #1
 800418a:	d033      	beq.n	80041f4 <sqrt+0x84>
 800418c:	0022      	movs	r2, r4
 800418e:	002b      	movs	r3, r5
 8004190:	0020      	movs	r0, r4
 8004192:	0029      	movs	r1, r5
 8004194:	f7fd fd80 	bl	8001c98 <__aeabi_dcmpun>
 8004198:	9003      	str	r0, [sp, #12]
 800419a:	2800      	cmp	r0, #0
 800419c:	d12a      	bne.n	80041f4 <sqrt+0x84>
 800419e:	2600      	movs	r6, #0
 80041a0:	2700      	movs	r7, #0
 80041a2:	0032      	movs	r2, r6
 80041a4:	003b      	movs	r3, r7
 80041a6:	0020      	movs	r0, r4
 80041a8:	0029      	movs	r1, r5
 80041aa:	f7fc f84f 	bl	800024c <__aeabi_dcmplt>
 80041ae:	2800      	cmp	r0, #0
 80041b0:	d020      	beq.n	80041f4 <sqrt+0x84>
 80041b2:	2301      	movs	r3, #1
 80041b4:	9304      	str	r3, [sp, #16]
 80041b6:	4b1a      	ldr	r3, [pc, #104]	; (8004220 <sqrt+0xb0>)
 80041b8:	9408      	str	r4, [sp, #32]
 80041ba:	9509      	str	r5, [sp, #36]	; 0x24
 80041bc:	9305      	str	r3, [sp, #20]
 80041be:	9b03      	ldr	r3, [sp, #12]
 80041c0:	9406      	str	r4, [sp, #24]
 80041c2:	9507      	str	r5, [sp, #28]
 80041c4:	930c      	str	r3, [sp, #48]	; 0x30
 80041c6:	9b02      	ldr	r3, [sp, #8]
 80041c8:	2b00      	cmp	r3, #0
 80041ca:	d117      	bne.n	80041fc <sqrt+0x8c>
 80041cc:	960a      	str	r6, [sp, #40]	; 0x28
 80041ce:	970b      	str	r7, [sp, #44]	; 0x2c
 80041d0:	a804      	add	r0, sp, #16
 80041d2:	f000 f8d9 	bl	8004388 <matherr>
 80041d6:	2800      	cmp	r0, #0
 80041d8:	d01b      	beq.n	8004212 <sqrt+0xa2>
 80041da:	9b0c      	ldr	r3, [sp, #48]	; 0x30
 80041dc:	9302      	str	r3, [sp, #8]
 80041de:	2b00      	cmp	r3, #0
 80041e0:	d004      	beq.n	80041ec <sqrt+0x7c>
 80041e2:	f7ff ff93 	bl	800410c <__errno>
 80041e6:	9b0c      	ldr	r3, [sp, #48]	; 0x30
 80041e8:	9302      	str	r3, [sp, #8]
 80041ea:	6003      	str	r3, [r0, #0]
 80041ec:	9b0a      	ldr	r3, [sp, #40]	; 0x28
 80041ee:	9c0b      	ldr	r4, [sp, #44]	; 0x2c
 80041f0:	9300      	str	r3, [sp, #0]
 80041f2:	9401      	str	r4, [sp, #4]
 80041f4:	9800      	ldr	r0, [sp, #0]
 80041f6:	9901      	ldr	r1, [sp, #4]
 80041f8:	b00f      	add	sp, #60	; 0x3c
 80041fa:	bdf0      	pop	{r4, r5, r6, r7, pc}
 80041fc:	003b      	movs	r3, r7
 80041fe:	0032      	movs	r2, r6
 8004200:	0030      	movs	r0, r6
 8004202:	0039      	movs	r1, r7
 8004204:	f7fc fb84 	bl	8000910 <__aeabi_ddiv>
 8004208:	9b02      	ldr	r3, [sp, #8]
 800420a:	900a      	str	r0, [sp, #40]	; 0x28
 800420c:	910b      	str	r1, [sp, #44]	; 0x2c
 800420e:	2b02      	cmp	r3, #2
 8004210:	d1de      	bne.n	80041d0 <sqrt+0x60>
 8004212:	f7ff ff7b 	bl	800410c <__errno>
 8004216:	2321      	movs	r3, #33	; 0x21
 8004218:	6003      	str	r3, [r0, #0]
 800421a:	e7de      	b.n	80041da <sqrt+0x6a>
 800421c:	2000007c 	.word	0x2000007c
 8004220:	08004454 	.word	0x08004454

08004224 <__ieee754_sqrt>:
 8004224:	4b55      	ldr	r3, [pc, #340]	; (800437c <__ieee754_sqrt+0x158>)
 8004226:	b5f7      	push	{r0, r1, r2, r4, r5, r6, r7, lr}
 8004228:	001a      	movs	r2, r3
 800422a:	0005      	movs	r5, r0
 800422c:	000c      	movs	r4, r1
 800422e:	400a      	ands	r2, r1
 8004230:	429a      	cmp	r2, r3
 8004232:	d10f      	bne.n	8004254 <__ieee754_sqrt+0x30>
 8004234:	0002      	movs	r2, r0
 8004236:	000b      	movs	r3, r1
 8004238:	f7fc ff74 	bl	8001124 <__aeabi_dmul>
 800423c:	0002      	movs	r2, r0
 800423e:	000b      	movs	r3, r1
 8004240:	0028      	movs	r0, r5
 8004242:	0021      	movs	r1, r4
 8004244:	f7fc f848 	bl	80002d8 <__aeabi_dadd>
 8004248:	0005      	movs	r5, r0
 800424a:	000c      	movs	r4, r1
 800424c:	0028      	movs	r0, r5
 800424e:	0021      	movs	r1, r4
 8004250:	b003      	add	sp, #12
 8004252:	bdf0      	pop	{r4, r5, r6, r7, pc}
 8004254:	0002      	movs	r2, r0
 8004256:	2900      	cmp	r1, #0
 8004258:	dc10      	bgt.n	800427c <__ieee754_sqrt+0x58>
 800425a:	004b      	lsls	r3, r1, #1
 800425c:	085b      	lsrs	r3, r3, #1
 800425e:	4303      	orrs	r3, r0
 8004260:	d0f4      	beq.n	800424c <__ieee754_sqrt+0x28>
 8004262:	2000      	movs	r0, #0
 8004264:	4281      	cmp	r1, r0
 8004266:	d100      	bne.n	800426a <__ieee754_sqrt+0x46>
 8004268:	e07f      	b.n	800436a <__ieee754_sqrt+0x146>
 800426a:	000b      	movs	r3, r1
 800426c:	0028      	movs	r0, r5
 800426e:	f7fd f9cb 	bl	8001608 <__aeabi_dsub>
 8004272:	0002      	movs	r2, r0
 8004274:	000b      	movs	r3, r1
 8004276:	f7fc fb4b 	bl	8000910 <__aeabi_ddiv>
 800427a:	e7e5      	b.n	8004248 <__ieee754_sqrt+0x24>
 800427c:	1508      	asrs	r0, r1, #20
 800427e:	d074      	beq.n	800436a <__ieee754_sqrt+0x146>
 8004280:	4b3f      	ldr	r3, [pc, #252]	; (8004380 <__ieee754_sqrt+0x15c>)
 8004282:	0309      	lsls	r1, r1, #12
 8004284:	18c0      	adds	r0, r0, r3
 8004286:	2380      	movs	r3, #128	; 0x80
 8004288:	0b09      	lsrs	r1, r1, #12
 800428a:	035b      	lsls	r3, r3, #13
 800428c:	4319      	orrs	r1, r3
 800428e:	07c3      	lsls	r3, r0, #31
 8004290:	d503      	bpl.n	800429a <__ieee754_sqrt+0x76>
 8004292:	0fd3      	lsrs	r3, r2, #31
 8004294:	0049      	lsls	r1, r1, #1
 8004296:	18c9      	adds	r1, r1, r3
 8004298:	0052      	lsls	r2, r2, #1
 800429a:	2400      	movs	r4, #0
 800429c:	1043      	asrs	r3, r0, #1
 800429e:	0049      	lsls	r1, r1, #1
 80042a0:	9301      	str	r3, [sp, #4]
 80042a2:	2580      	movs	r5, #128	; 0x80
 80042a4:	0fd3      	lsrs	r3, r2, #31
 80042a6:	18cb      	adds	r3, r1, r3
 80042a8:	0020      	movs	r0, r4
 80042aa:	2116      	movs	r1, #22
 80042ac:	0052      	lsls	r2, r2, #1
 80042ae:	03ad      	lsls	r5, r5, #14
 80042b0:	1946      	adds	r6, r0, r5
 80042b2:	429e      	cmp	r6, r3
 80042b4:	dc02      	bgt.n	80042bc <__ieee754_sqrt+0x98>
 80042b6:	1970      	adds	r0, r6, r5
 80042b8:	1b9b      	subs	r3, r3, r6
 80042ba:	1964      	adds	r4, r4, r5
 80042bc:	0fd6      	lsrs	r6, r2, #31
 80042be:	005b      	lsls	r3, r3, #1
 80042c0:	3901      	subs	r1, #1
 80042c2:	199b      	adds	r3, r3, r6
 80042c4:	0052      	lsls	r2, r2, #1
 80042c6:	086d      	lsrs	r5, r5, #1
 80042c8:	2900      	cmp	r1, #0
 80042ca:	d1f1      	bne.n	80042b0 <__ieee754_sqrt+0x8c>
 80042cc:	2520      	movs	r5, #32
 80042ce:	2680      	movs	r6, #128	; 0x80
 80042d0:	46ac      	mov	ip, r5
 80042d2:	9100      	str	r1, [sp, #0]
 80042d4:	0636      	lsls	r6, r6, #24
 80042d6:	9d00      	ldr	r5, [sp, #0]
 80042d8:	1977      	adds	r7, r6, r5
 80042da:	4283      	cmp	r3, r0
 80042dc:	dc02      	bgt.n	80042e4 <__ieee754_sqrt+0xc0>
 80042de:	d112      	bne.n	8004306 <__ieee754_sqrt+0xe2>
 80042e0:	4297      	cmp	r7, r2
 80042e2:	d810      	bhi.n	8004306 <__ieee754_sqrt+0xe2>
 80042e4:	19bd      	adds	r5, r7, r6
 80042e6:	9500      	str	r5, [sp, #0]
 80042e8:	0005      	movs	r5, r0
 80042ea:	2f00      	cmp	r7, #0
 80042ec:	da03      	bge.n	80042f6 <__ieee754_sqrt+0xd2>
 80042ee:	9d00      	ldr	r5, [sp, #0]
 80042f0:	43ed      	mvns	r5, r5
 80042f2:	0fed      	lsrs	r5, r5, #31
 80042f4:	1945      	adds	r5, r0, r5
 80042f6:	1a1b      	subs	r3, r3, r0
 80042f8:	42ba      	cmp	r2, r7
 80042fa:	4180      	sbcs	r0, r0
 80042fc:	4240      	negs	r0, r0
 80042fe:	1a1b      	subs	r3, r3, r0
 8004300:	0028      	movs	r0, r5
 8004302:	1bd2      	subs	r2, r2, r7
 8004304:	1989      	adds	r1, r1, r6
 8004306:	0fd5      	lsrs	r5, r2, #31
 8004308:	005b      	lsls	r3, r3, #1
 800430a:	18eb      	adds	r3, r5, r3
 800430c:	2501      	movs	r5, #1
 800430e:	426d      	negs	r5, r5
 8004310:	44ac      	add	ip, r5
 8004312:	4665      	mov	r5, ip
 8004314:	0052      	lsls	r2, r2, #1
 8004316:	0876      	lsrs	r6, r6, #1
 8004318:	2d00      	cmp	r5, #0
 800431a:	d1dc      	bne.n	80042d6 <__ieee754_sqrt+0xb2>
 800431c:	4313      	orrs	r3, r2
 800431e:	d003      	beq.n	8004328 <__ieee754_sqrt+0x104>
 8004320:	1c4b      	adds	r3, r1, #1
 8004322:	d127      	bne.n	8004374 <__ieee754_sqrt+0x150>
 8004324:	4661      	mov	r1, ip
 8004326:	3401      	adds	r4, #1
 8004328:	4b16      	ldr	r3, [pc, #88]	; (8004384 <__ieee754_sqrt+0x160>)
 800432a:	1060      	asrs	r0, r4, #1
 800432c:	18c0      	adds	r0, r0, r3
 800432e:	0849      	lsrs	r1, r1, #1
 8004330:	07e3      	lsls	r3, r4, #31
 8004332:	d502      	bpl.n	800433a <__ieee754_sqrt+0x116>
 8004334:	2380      	movs	r3, #128	; 0x80
 8004336:	061b      	lsls	r3, r3, #24
 8004338:	4319      	orrs	r1, r3
 800433a:	9b01      	ldr	r3, [sp, #4]
 800433c:	000d      	movs	r5, r1
 800433e:	051c      	lsls	r4, r3, #20
 8004340:	1823      	adds	r3, r4, r0
 8004342:	001c      	movs	r4, r3
 8004344:	e782      	b.n	800424c <__ieee754_sqrt+0x28>
 8004346:	0ad1      	lsrs	r1, r2, #11
 8004348:	3b15      	subs	r3, #21
 800434a:	0552      	lsls	r2, r2, #21
 800434c:	2900      	cmp	r1, #0
 800434e:	d0fa      	beq.n	8004346 <__ieee754_sqrt+0x122>
 8004350:	2480      	movs	r4, #128	; 0x80
 8004352:	0364      	lsls	r4, r4, #13
 8004354:	4221      	tst	r1, r4
 8004356:	d00a      	beq.n	800436e <__ieee754_sqrt+0x14a>
 8004358:	2420      	movs	r4, #32
 800435a:	0016      	movs	r6, r2
 800435c:	1a24      	subs	r4, r4, r0
 800435e:	40e6      	lsrs	r6, r4
 8004360:	1e45      	subs	r5, r0, #1
 8004362:	4082      	lsls	r2, r0
 8004364:	4331      	orrs	r1, r6
 8004366:	1b58      	subs	r0, r3, r5
 8004368:	e78a      	b.n	8004280 <__ieee754_sqrt+0x5c>
 800436a:	2300      	movs	r3, #0
 800436c:	e7ee      	b.n	800434c <__ieee754_sqrt+0x128>
 800436e:	0049      	lsls	r1, r1, #1
 8004370:	3001      	adds	r0, #1
 8004372:	e7ef      	b.n	8004354 <__ieee754_sqrt+0x130>
 8004374:	2301      	movs	r3, #1
 8004376:	3101      	adds	r1, #1
 8004378:	4399      	bics	r1, r3
 800437a:	e7d5      	b.n	8004328 <__ieee754_sqrt+0x104>
 800437c:	7ff00000 	.word	0x7ff00000
 8004380:	fffffc01 	.word	0xfffffc01
 8004384:	3fe00000 	.word	0x3fe00000

08004388 <matherr>:
 8004388:	2000      	movs	r0, #0
 800438a:	4770      	bx	lr

0800438c <_init>:
 800438c:	b5f8      	push	{r3, r4, r5, r6, r7, lr}
 800438e:	46c0      	nop			; (mov r8, r8)
 8004390:	bcf8      	pop	{r3, r4, r5, r6, r7}
 8004392:	bc08      	pop	{r3}
 8004394:	469e      	mov	lr, r3
 8004396:	4770      	bx	lr

08004398 <_fini>:
 8004398:	b5f8      	push	{r3, r4, r5, r6, r7, lr}
 800439a:	46c0      	nop			; (mov r8, r8)
 800439c:	bcf8      	pop	{r3, r4, r5, r6, r7}
 800439e:	bc08      	pop	{r3}
 80043a0:	469e      	mov	lr, r3
 80043a2:	4770      	bx	lr
