
MidiLedController_sw_2.elf:     file format elf32-littlearm

Sections:
Idx Name          Size      VMA       LMA       File off  Algn
  0 .isr_vector   000000c0  08000000  08000000  00010000  2**0
                  CONTENTS, ALLOC, LOAD, READONLY, DATA
  1 .text         000024ec  080000c0  080000c0  000100c0  2**2
                  CONTENTS, ALLOC, LOAD, READONLY, CODE
  2 .rodata       00000030  080025ac  080025ac  000125ac  2**2
                  CONTENTS, ALLOC, LOAD, READONLY, DATA
  3 .ARM.extab    00000000  080025dc  080025dc  00020018  2**0
                  CONTENTS
  4 .ARM          00000000  080025dc  080025dc  00020018  2**0
                  CONTENTS
  5 .preinit_array 00000000  080025dc  080025dc  00020018  2**0
                  CONTENTS, ALLOC, LOAD, DATA
  6 .init_array   00000004  080025dc  080025dc  000125dc  2**2
                  CONTENTS, ALLOC, LOAD, DATA
  7 .fini_array   00000004  080025e0  080025e0  000125e0  2**2
                  CONTENTS, ALLOC, LOAD, DATA
  8 .data         00000018  20000000  080025e4  00020000  2**2
                  CONTENTS, ALLOC, LOAD, DATA
  9 .bss          000000e0  20000018  080025fc  00020018  2**2
                  ALLOC
 10 ._user_heap_stack 00000600  200000f8  080025fc  000200f8  2**0
                  ALLOC
 11 .ARM.attributes 00000028  00000000  00000000  00020018  2**0
                  CONTENTS, READONLY
 12 .debug_info   000077da  00000000  00000000  00020040  2**0
                  CONTENTS, READONLY, DEBUGGING
 13 .debug_abbrev 00001500  00000000  00000000  0002781a  2**0
                  CONTENTS, READONLY, DEBUGGING
 14 .debug_aranges 000008d8  00000000  00000000  00028d20  2**3
                  CONTENTS, READONLY, DEBUGGING
 15 .debug_ranges 00000810  00000000  00000000  000295f8  2**3
                  CONTENTS, READONLY, DEBUGGING
 16 .debug_macro  0000e388  00000000  00000000  00029e08  2**0
                  CONTENTS, READONLY, DEBUGGING
 17 .debug_line   000071b6  00000000  00000000  00038190  2**0
                  CONTENTS, READONLY, DEBUGGING
 18 .debug_str    00053007  00000000  00000000  0003f346  2**0
                  CONTENTS, READONLY, DEBUGGING
 19 .comment      0000007b  00000000  00000000  0009234d  2**0
                  CONTENTS, READONLY
 20 .debug_frame  00001ed4  00000000  00000000  000923c8  2**2
                  CONTENTS, READONLY, DEBUGGING

Disassembly of section .text:

080000c0 <__do_global_dtors_aux>:
 80000c0:	b510      	push	{r4, lr}
 80000c2:	4c06      	ldr	r4, [pc, #24]	; (80000dc <__do_global_dtors_aux+0x1c>)
 80000c4:	7823      	ldrb	r3, [r4, #0]
 80000c6:	2b00      	cmp	r3, #0
 80000c8:	d107      	bne.n	80000da <__do_global_dtors_aux+0x1a>
 80000ca:	4b05      	ldr	r3, [pc, #20]	; (80000e0 <__do_global_dtors_aux+0x20>)
 80000cc:	2b00      	cmp	r3, #0
 80000ce:	d002      	beq.n	80000d6 <__do_global_dtors_aux+0x16>
 80000d0:	4804      	ldr	r0, [pc, #16]	; (80000e4 <__do_global_dtors_aux+0x24>)
 80000d2:	e000      	b.n	80000d6 <__do_global_dtors_aux+0x16>
 80000d4:	bf00      	nop
 80000d6:	2301      	movs	r3, #1
 80000d8:	7023      	strb	r3, [r4, #0]
 80000da:	bd10      	pop	{r4, pc}
 80000dc:	20000018 	.word	0x20000018
 80000e0:	00000000 	.word	0x00000000
 80000e4:	08002594 	.word	0x08002594

080000e8 <frame_dummy>:
 80000e8:	4b04      	ldr	r3, [pc, #16]	; (80000fc <frame_dummy+0x14>)
 80000ea:	b510      	push	{r4, lr}
 80000ec:	2b00      	cmp	r3, #0
 80000ee:	d003      	beq.n	80000f8 <frame_dummy+0x10>
 80000f0:	4903      	ldr	r1, [pc, #12]	; (8000100 <frame_dummy+0x18>)
 80000f2:	4804      	ldr	r0, [pc, #16]	; (8000104 <frame_dummy+0x1c>)
 80000f4:	e000      	b.n	80000f8 <frame_dummy+0x10>
 80000f6:	bf00      	nop
 80000f8:	bd10      	pop	{r4, pc}
 80000fa:	46c0      	nop			; (mov r8, r8)
 80000fc:	00000000 	.word	0x00000000
 8000100:	2000001c 	.word	0x2000001c
 8000104:	08002594 	.word	0x08002594

08000108 <__udivsi3>:
 8000108:	2200      	movs	r2, #0
 800010a:	0843      	lsrs	r3, r0, #1
 800010c:	428b      	cmp	r3, r1
 800010e:	d374      	bcc.n	80001fa <__udivsi3+0xf2>
 8000110:	0903      	lsrs	r3, r0, #4
 8000112:	428b      	cmp	r3, r1
 8000114:	d35f      	bcc.n	80001d6 <__udivsi3+0xce>
 8000116:	0a03      	lsrs	r3, r0, #8
 8000118:	428b      	cmp	r3, r1
 800011a:	d344      	bcc.n	80001a6 <__udivsi3+0x9e>
 800011c:	0b03      	lsrs	r3, r0, #12
 800011e:	428b      	cmp	r3, r1
 8000120:	d328      	bcc.n	8000174 <__udivsi3+0x6c>
 8000122:	0c03      	lsrs	r3, r0, #16
 8000124:	428b      	cmp	r3, r1
 8000126:	d30d      	bcc.n	8000144 <__udivsi3+0x3c>
 8000128:	22ff      	movs	r2, #255	; 0xff
 800012a:	0209      	lsls	r1, r1, #8
 800012c:	ba12      	rev	r2, r2
 800012e:	0c03      	lsrs	r3, r0, #16
 8000130:	428b      	cmp	r3, r1
 8000132:	d302      	bcc.n	800013a <__udivsi3+0x32>
 8000134:	1212      	asrs	r2, r2, #8
 8000136:	0209      	lsls	r1, r1, #8
 8000138:	d065      	beq.n	8000206 <__udivsi3+0xfe>
 800013a:	0b03      	lsrs	r3, r0, #12
 800013c:	428b      	cmp	r3, r1
 800013e:	d319      	bcc.n	8000174 <__udivsi3+0x6c>
 8000140:	e000      	b.n	8000144 <__udivsi3+0x3c>
 8000142:	0a09      	lsrs	r1, r1, #8
 8000144:	0bc3      	lsrs	r3, r0, #15
 8000146:	428b      	cmp	r3, r1
 8000148:	d301      	bcc.n	800014e <__udivsi3+0x46>
 800014a:	03cb      	lsls	r3, r1, #15
 800014c:	1ac0      	subs	r0, r0, r3
 800014e:	4152      	adcs	r2, r2
 8000150:	0b83      	lsrs	r3, r0, #14
 8000152:	428b      	cmp	r3, r1
 8000154:	d301      	bcc.n	800015a <__udivsi3+0x52>
 8000156:	038b      	lsls	r3, r1, #14
 8000158:	1ac0      	subs	r0, r0, r3
 800015a:	4152      	adcs	r2, r2
 800015c:	0b43      	lsrs	r3, r0, #13
 800015e:	428b      	cmp	r3, r1
 8000160:	d301      	bcc.n	8000166 <__udivsi3+0x5e>
 8000162:	034b      	lsls	r3, r1, #13
 8000164:	1ac0      	subs	r0, r0, r3
 8000166:	4152      	adcs	r2, r2
 8000168:	0b03      	lsrs	r3, r0, #12
 800016a:	428b      	cmp	r3, r1
 800016c:	d301      	bcc.n	8000172 <__udivsi3+0x6a>
 800016e:	030b      	lsls	r3, r1, #12
 8000170:	1ac0      	subs	r0, r0, r3
 8000172:	4152      	adcs	r2, r2
 8000174:	0ac3      	lsrs	r3, r0, #11
 8000176:	428b      	cmp	r3, r1
 8000178:	d301      	bcc.n	800017e <__udivsi3+0x76>
 800017a:	02cb      	lsls	r3, r1, #11
 800017c:	1ac0      	subs	r0, r0, r3
 800017e:	4152      	adcs	r2, r2
 8000180:	0a83      	lsrs	r3, r0, #10
 8000182:	428b      	cmp	r3, r1
 8000184:	d301      	bcc.n	800018a <__udivsi3+0x82>
 8000186:	028b      	lsls	r3, r1, #10
 8000188:	1ac0      	subs	r0, r0, r3
 800018a:	4152      	adcs	r2, r2
 800018c:	0a43      	lsrs	r3, r0, #9
 800018e:	428b      	cmp	r3, r1
 8000190:	d301      	bcc.n	8000196 <__udivsi3+0x8e>
 8000192:	024b      	lsls	r3, r1, #9
 8000194:	1ac0      	subs	r0, r0, r3
 8000196:	4152      	adcs	r2, r2
 8000198:	0a03      	lsrs	r3, r0, #8
 800019a:	428b      	cmp	r3, r1
 800019c:	d301      	bcc.n	80001a2 <__udivsi3+0x9a>
 800019e:	020b      	lsls	r3, r1, #8
 80001a0:	1ac0      	subs	r0, r0, r3
 80001a2:	4152      	adcs	r2, r2
 80001a4:	d2cd      	bcs.n	8000142 <__udivsi3+0x3a>
 80001a6:	09c3      	lsrs	r3, r0, #7
 80001a8:	428b      	cmp	r3, r1
 80001aa:	d301      	bcc.n	80001b0 <__udivsi3+0xa8>
 80001ac:	01cb      	lsls	r3, r1, #7
 80001ae:	1ac0      	subs	r0, r0, r3
 80001b0:	4152      	adcs	r2, r2
 80001b2:	0983      	lsrs	r3, r0, #6
 80001b4:	428b      	cmp	r3, r1
 80001b6:	d301      	bcc.n	80001bc <__udivsi3+0xb4>
 80001b8:	018b      	lsls	r3, r1, #6
 80001ba:	1ac0      	subs	r0, r0, r3
 80001bc:	4152      	adcs	r2, r2
 80001be:	0943      	lsrs	r3, r0, #5
 80001c0:	428b      	cmp	r3, r1
 80001c2:	d301      	bcc.n	80001c8 <__udivsi3+0xc0>
 80001c4:	014b      	lsls	r3, r1, #5
 80001c6:	1ac0      	subs	r0, r0, r3
 80001c8:	4152      	adcs	r2, r2
 80001ca:	0903      	lsrs	r3, r0, #4
 80001cc:	428b      	cmp	r3, r1
 80001ce:	d301      	bcc.n	80001d4 <__udivsi3+0xcc>
 80001d0:	010b      	lsls	r3, r1, #4
 80001d2:	1ac0      	subs	r0, r0, r3
 80001d4:	4152      	adcs	r2, r2
 80001d6:	08c3      	lsrs	r3, r0, #3
 80001d8:	428b      	cmp	r3, r1
 80001da:	d301      	bcc.n	80001e0 <__udivsi3+0xd8>
 80001dc:	00cb      	lsls	r3, r1, #3
 80001de:	1ac0      	subs	r0, r0, r3
 80001e0:	4152      	adcs	r2, r2
 80001e2:	0883      	lsrs	r3, r0, #2
 80001e4:	428b      	cmp	r3, r1
 80001e6:	d301      	bcc.n	80001ec <__udivsi3+0xe4>
 80001e8:	008b      	lsls	r3, r1, #2
 80001ea:	1ac0      	subs	r0, r0, r3
 80001ec:	4152      	adcs	r2, r2
 80001ee:	0843      	lsrs	r3, r0, #1
 80001f0:	428b      	cmp	r3, r1
 80001f2:	d301      	bcc.n	80001f8 <__udivsi3+0xf0>
 80001f4:	004b      	lsls	r3, r1, #1
 80001f6:	1ac0      	subs	r0, r0, r3
 80001f8:	4152      	adcs	r2, r2
 80001fa:	1a41      	subs	r1, r0, r1
 80001fc:	d200      	bcs.n	8000200 <__udivsi3+0xf8>
 80001fe:	4601      	mov	r1, r0
 8000200:	4152      	adcs	r2, r2
 8000202:	4610      	mov	r0, r2
 8000204:	4770      	bx	lr
 8000206:	e7ff      	b.n	8000208 <__udivsi3+0x100>
 8000208:	b501      	push	{r0, lr}
 800020a:	2000      	movs	r0, #0
 800020c:	f000 f806 	bl	800021c <__aeabi_idiv0>
 8000210:	bd02      	pop	{r1, pc}
 8000212:	46c0      	nop			; (mov r8, r8)

08000214 <__aeabi_uidivmod>:
 8000214:	2900      	cmp	r1, #0
 8000216:	d0f7      	beq.n	8000208 <__udivsi3+0x100>
 8000218:	e776      	b.n	8000108 <__udivsi3>
 800021a:	4770      	bx	lr

0800021c <__aeabi_idiv0>:
 800021c:	4770      	bx	lr
 800021e:	46c0      	nop			; (mov r8, r8)

08000220 <MX_GPIO_Init>:
        * Output
        * EVENT_OUT
        * EXTI
*/
void MX_GPIO_Init(void)
{
 8000220:	b580      	push	{r7, lr}
 8000222:	b082      	sub	sp, #8
 8000224:	af00      	add	r7, sp, #0

  /* GPIO Ports Clock Enable */
  __HAL_RCC_GPIOB_CLK_ENABLE();
 8000226:	4b10      	ldr	r3, [pc, #64]	; (8000268 <MX_GPIO_Init+0x48>)
 8000228:	695a      	ldr	r2, [r3, #20]
 800022a:	4b0f      	ldr	r3, [pc, #60]	; (8000268 <MX_GPIO_Init+0x48>)
 800022c:	2180      	movs	r1, #128	; 0x80
 800022e:	02c9      	lsls	r1, r1, #11
 8000230:	430a      	orrs	r2, r1
 8000232:	615a      	str	r2, [r3, #20]
 8000234:	4b0c      	ldr	r3, [pc, #48]	; (8000268 <MX_GPIO_Init+0x48>)
 8000236:	695a      	ldr	r2, [r3, #20]
 8000238:	2380      	movs	r3, #128	; 0x80
 800023a:	02db      	lsls	r3, r3, #11
 800023c:	4013      	ands	r3, r2
 800023e:	607b      	str	r3, [r7, #4]
 8000240:	687b      	ldr	r3, [r7, #4]
  __HAL_RCC_GPIOA_CLK_ENABLE();
 8000242:	4b09      	ldr	r3, [pc, #36]	; (8000268 <MX_GPIO_Init+0x48>)
 8000244:	695a      	ldr	r2, [r3, #20]
 8000246:	4b08      	ldr	r3, [pc, #32]	; (8000268 <MX_GPIO_Init+0x48>)
 8000248:	2180      	movs	r1, #128	; 0x80
 800024a:	0289      	lsls	r1, r1, #10
 800024c:	430a      	orrs	r2, r1
 800024e:	615a      	str	r2, [r3, #20]
 8000250:	4b05      	ldr	r3, [pc, #20]	; (8000268 <MX_GPIO_Init+0x48>)
 8000252:	695a      	ldr	r2, [r3, #20]
 8000254:	2380      	movs	r3, #128	; 0x80
 8000256:	029b      	lsls	r3, r3, #10
 8000258:	4013      	ands	r3, r2
 800025a:	603b      	str	r3, [r7, #0]
 800025c:	683b      	ldr	r3, [r7, #0]

}
 800025e:	46c0      	nop			; (mov r8, r8)
 8000260:	46bd      	mov	sp, r7
 8000262:	b002      	add	sp, #8
 8000264:	bd80      	pop	{r7, pc}
 8000266:	46c0      	nop			; (mov r8, r8)
 8000268:	40021000 	.word	0x40021000

0800026c <pwm_blink_test>:
		  pwm_fade_up = 1;
	  }
}

void pwm_blink_test()
{
 800026c:	b580      	push	{r7, lr}
 800026e:	af00      	add	r7, sp, #0
	  TIM2->CCR1 = 0;
 8000270:	2380      	movs	r3, #128	; 0x80
 8000272:	05db      	lsls	r3, r3, #23
 8000274:	2200      	movs	r2, #0
 8000276:	635a      	str	r2, [r3, #52]	; 0x34
	  TIM2->CCR2 = 0;
 8000278:	2380      	movs	r3, #128	; 0x80
 800027a:	05db      	lsls	r3, r3, #23
 800027c:	2200      	movs	r2, #0
 800027e:	639a      	str	r2, [r3, #56]	; 0x38

	  TIM3->CCR1 = 0;
 8000280:	4b23      	ldr	r3, [pc, #140]	; (8000310 <pwm_blink_test+0xa4>)
 8000282:	2200      	movs	r2, #0
 8000284:	635a      	str	r2, [r3, #52]	; 0x34
	  TIM3->CCR2 = 0;
 8000286:	4b22      	ldr	r3, [pc, #136]	; (8000310 <pwm_blink_test+0xa4>)
 8000288:	2200      	movs	r2, #0
 800028a:	639a      	str	r2, [r3, #56]	; 0x38
	  TIM3->CCR3 = 0;
 800028c:	4b20      	ldr	r3, [pc, #128]	; (8000310 <pwm_blink_test+0xa4>)
 800028e:	2200      	movs	r2, #0
 8000290:	63da      	str	r2, [r3, #60]	; 0x3c
	  TIM3->CCR4 = 0;
 8000292:	4b1f      	ldr	r3, [pc, #124]	; (8000310 <pwm_blink_test+0xa4>)
 8000294:	2200      	movs	r2, #0
 8000296:	641a      	str	r2, [r3, #64]	; 0x40

	  TIM1->CCR1 = 0;
 8000298:	4b1e      	ldr	r3, [pc, #120]	; (8000314 <pwm_blink_test+0xa8>)
 800029a:	2200      	movs	r2, #0
 800029c:	635a      	str	r2, [r3, #52]	; 0x34
	  TIM1->CCR2 = 0;
 800029e:	4b1d      	ldr	r3, [pc, #116]	; (8000314 <pwm_blink_test+0xa8>)
 80002a0:	2200      	movs	r2, #0
 80002a2:	639a      	str	r2, [r3, #56]	; 0x38
	  TIM1->CCR3 = 0;
 80002a4:	4b1b      	ldr	r3, [pc, #108]	; (8000314 <pwm_blink_test+0xa8>)
 80002a6:	2200      	movs	r2, #0
 80002a8:	63da      	str	r2, [r3, #60]	; 0x3c

	  HAL_Delay(pwm_delay);
 80002aa:	4b1b      	ldr	r3, [pc, #108]	; (8000318 <pwm_blink_test+0xac>)
 80002ac:	681b      	ldr	r3, [r3, #0]
 80002ae:	0018      	movs	r0, r3
 80002b0:	f000 fca0 	bl	8000bf4 <HAL_Delay>

	  TIM2->CCR1 = pwm_duty;
 80002b4:	4b19      	ldr	r3, [pc, #100]	; (800031c <pwm_blink_test+0xb0>)
 80002b6:	881a      	ldrh	r2, [r3, #0]
 80002b8:	2380      	movs	r3, #128	; 0x80
 80002ba:	05db      	lsls	r3, r3, #23
 80002bc:	635a      	str	r2, [r3, #52]	; 0x34
	  TIM2->CCR2 = pwm_duty;
 80002be:	4b17      	ldr	r3, [pc, #92]	; (800031c <pwm_blink_test+0xb0>)
 80002c0:	881a      	ldrh	r2, [r3, #0]
 80002c2:	2380      	movs	r3, #128	; 0x80
 80002c4:	05db      	lsls	r3, r3, #23
 80002c6:	639a      	str	r2, [r3, #56]	; 0x38

	  TIM3->CCR1 = pwm_duty;
 80002c8:	4b14      	ldr	r3, [pc, #80]	; (800031c <pwm_blink_test+0xb0>)
 80002ca:	881a      	ldrh	r2, [r3, #0]
 80002cc:	4b10      	ldr	r3, [pc, #64]	; (8000310 <pwm_blink_test+0xa4>)
 80002ce:	635a      	str	r2, [r3, #52]	; 0x34
	  TIM3->CCR2 = pwm_duty;
 80002d0:	4b12      	ldr	r3, [pc, #72]	; (800031c <pwm_blink_test+0xb0>)
 80002d2:	881a      	ldrh	r2, [r3, #0]
 80002d4:	4b0e      	ldr	r3, [pc, #56]	; (8000310 <pwm_blink_test+0xa4>)
 80002d6:	639a      	str	r2, [r3, #56]	; 0x38
	  TIM3->CCR3 = pwm_duty;
 80002d8:	4b10      	ldr	r3, [pc, #64]	; (800031c <pwm_blink_test+0xb0>)
 80002da:	881a      	ldrh	r2, [r3, #0]
 80002dc:	4b0c      	ldr	r3, [pc, #48]	; (8000310 <pwm_blink_test+0xa4>)
 80002de:	63da      	str	r2, [r3, #60]	; 0x3c
	  TIM3->CCR4 = pwm_duty;
 80002e0:	4b0e      	ldr	r3, [pc, #56]	; (800031c <pwm_blink_test+0xb0>)
 80002e2:	881a      	ldrh	r2, [r3, #0]
 80002e4:	4b0a      	ldr	r3, [pc, #40]	; (8000310 <pwm_blink_test+0xa4>)
 80002e6:	641a      	str	r2, [r3, #64]	; 0x40

	  TIM1->CCR1 = pwm_duty;
 80002e8:	4b0c      	ldr	r3, [pc, #48]	; (800031c <pwm_blink_test+0xb0>)
 80002ea:	881a      	ldrh	r2, [r3, #0]
 80002ec:	4b09      	ldr	r3, [pc, #36]	; (8000314 <pwm_blink_test+0xa8>)
 80002ee:	635a      	str	r2, [r3, #52]	; 0x34
	  TIM1->CCR2 = pwm_duty;
 80002f0:	4b0a      	ldr	r3, [pc, #40]	; (800031c <pwm_blink_test+0xb0>)
 80002f2:	881a      	ldrh	r2, [r3, #0]
 80002f4:	4b07      	ldr	r3, [pc, #28]	; (8000314 <pwm_blink_test+0xa8>)
 80002f6:	639a      	str	r2, [r3, #56]	; 0x38
	  TIM1->CCR3 = pwm_duty;
 80002f8:	4b08      	ldr	r3, [pc, #32]	; (800031c <pwm_blink_test+0xb0>)
 80002fa:	881a      	ldrh	r2, [r3, #0]
 80002fc:	4b05      	ldr	r3, [pc, #20]	; (8000314 <pwm_blink_test+0xa8>)
 80002fe:	63da      	str	r2, [r3, #60]	; 0x3c

	  HAL_Delay(pwm_delay);
 8000300:	4b05      	ldr	r3, [pc, #20]	; (8000318 <pwm_blink_test+0xac>)
 8000302:	681b      	ldr	r3, [r3, #0]
 8000304:	0018      	movs	r0, r3
 8000306:	f000 fc75 	bl	8000bf4 <HAL_Delay>
}
 800030a:	46c0      	nop			; (mov r8, r8)
 800030c:	46bd      	mov	sp, r7
 800030e:	bd80      	pop	{r7, pc}
 8000310:	40000400 	.word	0x40000400
 8000314:	40012c00 	.word	0x40012c00
 8000318:	20000008 	.word	0x20000008
 800031c:	20000000 	.word	0x20000000

08000320 <main>:
/**
  * @brief  The application entry point.
  * @retval int
  */
int main(void)
{
 8000320:	b580      	push	{r7, lr}
 8000322:	af00      	add	r7, sp, #0
  /* USER CODE END 1 */

  /* MCU Configuration--------------------------------------------------------*/

  /* Reset of all peripherals, Initializes the Flash interface and the Systick. */
  HAL_Init();
 8000324:	f000 fc02 	bl	8000b2c <HAL_Init>
  /* USER CODE BEGIN Init */

  /* USER CODE END Init */

  /* Configure the system clock */
  SystemClock_Config();
 8000328:	f000 f88e 	bl	8000448 <SystemClock_Config>
  /* USER CODE BEGIN SysInit */

  /* USER CODE END SysInit */

  /* Initialize all configured peripherals */
  MX_GPIO_Init();
 800032c:	f7ff ff78 	bl	8000220 <MX_GPIO_Init>
  MX_TIM1_Init();
 8000330:	f000 f912 	bl	8000558 <MX_TIM1_Init>
  MX_TIM3_Init();
 8000334:	f000 fa42 	bl	80007bc <MX_TIM3_Init>
  MX_TIM2_Init();
 8000338:	f000 f9d8 	bl	80006ec <MX_TIM2_Init>
  /* USER CODE BEGIN 2 */

  // setup all output channel timer PWM
  HAL_TIM_PWM_Start(&htim2, TIM_CHANNEL_1);		// #1
 800033c:	4b3c      	ldr	r3, [pc, #240]	; (8000430 <main+0x110>)
 800033e:	2100      	movs	r1, #0
 8000340:	0018      	movs	r0, r3
 8000342:	f001 fb43 	bl	80019cc <HAL_TIM_PWM_Start>
  HAL_TIM_PWM_Start(&htim2, TIM_CHANNEL_2);		// #2
 8000346:	4b3a      	ldr	r3, [pc, #232]	; (8000430 <main+0x110>)
 8000348:	2104      	movs	r1, #4
 800034a:	0018      	movs	r0, r3
 800034c:	f001 fb3e 	bl	80019cc <HAL_TIM_PWM_Start>
  HAL_TIM_PWM_Start(&htim3, TIM_CHANNEL_1);		// #3
 8000350:	4b38      	ldr	r3, [pc, #224]	; (8000434 <main+0x114>)
 8000352:	2100      	movs	r1, #0
 8000354:	0018      	movs	r0, r3
 8000356:	f001 fb39 	bl	80019cc <HAL_TIM_PWM_Start>
  HAL_TIM_PWM_Start(&htim3, TIM_CHANNEL_2);		// #4
 800035a:	4b36      	ldr	r3, [pc, #216]	; (8000434 <main+0x114>)
 800035c:	2104      	movs	r1, #4
 800035e:	0018      	movs	r0, r3
 8000360:	f001 fb34 	bl	80019cc <HAL_TIM_PWM_Start>
  HAL_TIM_PWM_Start(&htim3, TIM_CHANNEL_3);		// #5
 8000364:	4b33      	ldr	r3, [pc, #204]	; (8000434 <main+0x114>)
 8000366:	2108      	movs	r1, #8
 8000368:	0018      	movs	r0, r3
 800036a:	f001 fb2f 	bl	80019cc <HAL_TIM_PWM_Start>
  HAL_TIM_PWM_Start(&htim3, TIM_CHANNEL_4);		// #6
 800036e:	4b31      	ldr	r3, [pc, #196]	; (8000434 <main+0x114>)
 8000370:	210c      	movs	r1, #12
 8000372:	0018      	movs	r0, r3
 8000374:	f001 fb2a 	bl	80019cc <HAL_TIM_PWM_Start>
  HAL_TIM_PWM_Start(&htim1, TIM_CHANNEL_1);		// #7
 8000378:	4b2f      	ldr	r3, [pc, #188]	; (8000438 <main+0x118>)
 800037a:	2100      	movs	r1, #0
 800037c:	0018      	movs	r0, r3
 800037e:	f001 fb25 	bl	80019cc <HAL_TIM_PWM_Start>
  HAL_TIM_PWM_Start(&htim1, TIM_CHANNEL_2);		// #8
 8000382:	4b2d      	ldr	r3, [pc, #180]	; (8000438 <main+0x118>)
 8000384:	2104      	movs	r1, #4
 8000386:	0018      	movs	r0, r3
 8000388:	f001 fb20 	bl	80019cc <HAL_TIM_PWM_Start>
  HAL_TIM_PWM_Start(&htim1, TIM_CHANNEL_3);		// #9
 800038c:	4b2a      	ldr	r3, [pc, #168]	; (8000438 <main+0x118>)
 800038e:	2108      	movs	r1, #8
 8000390:	0018      	movs	r0, r3
 8000392:	f001 fb1b 	bl	80019cc <HAL_TIM_PWM_Start>

  // Capture/Compare output enable
  TIM2->CCER |= TIM_CCER_CC1E;
 8000396:	2380      	movs	r3, #128	; 0x80
 8000398:	05db      	lsls	r3, r3, #23
 800039a:	6a1a      	ldr	r2, [r3, #32]
 800039c:	2380      	movs	r3, #128	; 0x80
 800039e:	05db      	lsls	r3, r3, #23
 80003a0:	2101      	movs	r1, #1
 80003a2:	430a      	orrs	r2, r1
 80003a4:	621a      	str	r2, [r3, #32]
  TIM2->CCER |= TIM_CCER_CC2E;
 80003a6:	2380      	movs	r3, #128	; 0x80
 80003a8:	05db      	lsls	r3, r3, #23
 80003aa:	6a1a      	ldr	r2, [r3, #32]
 80003ac:	2380      	movs	r3, #128	; 0x80
 80003ae:	05db      	lsls	r3, r3, #23
 80003b0:	2110      	movs	r1, #16
 80003b2:	430a      	orrs	r2, r1
 80003b4:	621a      	str	r2, [r3, #32]

  TIM3->CCER |= TIM_CCER_CC1E;
 80003b6:	4b21      	ldr	r3, [pc, #132]	; (800043c <main+0x11c>)
 80003b8:	6a1a      	ldr	r2, [r3, #32]
 80003ba:	4b20      	ldr	r3, [pc, #128]	; (800043c <main+0x11c>)
 80003bc:	2101      	movs	r1, #1
 80003be:	430a      	orrs	r2, r1
 80003c0:	621a      	str	r2, [r3, #32]
  TIM3->CCER |= TIM_CCER_CC2E;
 80003c2:	4b1e      	ldr	r3, [pc, #120]	; (800043c <main+0x11c>)
 80003c4:	6a1a      	ldr	r2, [r3, #32]
 80003c6:	4b1d      	ldr	r3, [pc, #116]	; (800043c <main+0x11c>)
 80003c8:	2110      	movs	r1, #16
 80003ca:	430a      	orrs	r2, r1
 80003cc:	621a      	str	r2, [r3, #32]
  TIM3->CCER |= TIM_CCER_CC3E;
 80003ce:	4b1b      	ldr	r3, [pc, #108]	; (800043c <main+0x11c>)
 80003d0:	6a1a      	ldr	r2, [r3, #32]
 80003d2:	4b1a      	ldr	r3, [pc, #104]	; (800043c <main+0x11c>)
 80003d4:	2180      	movs	r1, #128	; 0x80
 80003d6:	0049      	lsls	r1, r1, #1
 80003d8:	430a      	orrs	r2, r1
 80003da:	621a      	str	r2, [r3, #32]
  TIM3->CCER |= TIM_CCER_CC4E;
 80003dc:	4b17      	ldr	r3, [pc, #92]	; (800043c <main+0x11c>)
 80003de:	6a1a      	ldr	r2, [r3, #32]
 80003e0:	4b16      	ldr	r3, [pc, #88]	; (800043c <main+0x11c>)
 80003e2:	2180      	movs	r1, #128	; 0x80
 80003e4:	0149      	lsls	r1, r1, #5
 80003e6:	430a      	orrs	r2, r1
 80003e8:	621a      	str	r2, [r3, #32]

  TIM1->CCER |= TIM_CCER_CC1E;
 80003ea:	4b15      	ldr	r3, [pc, #84]	; (8000440 <main+0x120>)
 80003ec:	6a1a      	ldr	r2, [r3, #32]
 80003ee:	4b14      	ldr	r3, [pc, #80]	; (8000440 <main+0x120>)
 80003f0:	2101      	movs	r1, #1
 80003f2:	430a      	orrs	r2, r1
 80003f4:	621a      	str	r2, [r3, #32]
  TIM1->CCER |= TIM_CCER_CC2E;
 80003f6:	4b12      	ldr	r3, [pc, #72]	; (8000440 <main+0x120>)
 80003f8:	6a1a      	ldr	r2, [r3, #32]
 80003fa:	4b11      	ldr	r3, [pc, #68]	; (8000440 <main+0x120>)
 80003fc:	2110      	movs	r1, #16
 80003fe:	430a      	orrs	r2, r1
 8000400:	621a      	str	r2, [r3, #32]
  TIM1->CCER |= TIM_CCER_CC3E;
 8000402:	4b0f      	ldr	r3, [pc, #60]	; (8000440 <main+0x120>)
 8000404:	6a1a      	ldr	r2, [r3, #32]
 8000406:	4b0e      	ldr	r3, [pc, #56]	; (8000440 <main+0x120>)
 8000408:	2180      	movs	r1, #128	; 0x80
 800040a:	0049      	lsls	r1, r1, #1
 800040c:	430a      	orrs	r2, r1
 800040e:	621a      	str	r2, [r3, #32]

  // set the counter reset
  TIM1->ARR = pwm_arr;
 8000410:	4b0c      	ldr	r3, [pc, #48]	; (8000444 <main+0x124>)
 8000412:	681a      	ldr	r2, [r3, #0]
 8000414:	4b0a      	ldr	r3, [pc, #40]	; (8000440 <main+0x120>)
 8000416:	62da      	str	r2, [r3, #44]	; 0x2c
  TIM2->ARR = pwm_arr;
 8000418:	4b0a      	ldr	r3, [pc, #40]	; (8000444 <main+0x124>)
 800041a:	681a      	ldr	r2, [r3, #0]
 800041c:	2380      	movs	r3, #128	; 0x80
 800041e:	05db      	lsls	r3, r3, #23
 8000420:	62da      	str	r2, [r3, #44]	; 0x2c
  TIM3->ARR = pwm_arr;
 8000422:	4b08      	ldr	r3, [pc, #32]	; (8000444 <main+0x124>)
 8000424:	681a      	ldr	r2, [r3, #0]
 8000426:	4b05      	ldr	r3, [pc, #20]	; (800043c <main+0x11c>)
 8000428:	62da      	str	r2, [r3, #44]	; 0x2c
  /* USER CODE BEGIN WHILE */
  while (1)
  {

	  //pwm_fade_test();
	  pwm_blink_test();
 800042a:	f7ff ff1f 	bl	800026c <pwm_blink_test>
 800042e:	e7fc      	b.n	800042a <main+0x10a>
 8000430:	200000b4 	.word	0x200000b4
 8000434:	20000034 	.word	0x20000034
 8000438:	20000074 	.word	0x20000074
 800043c:	40000400 	.word	0x40000400
 8000440:	40012c00 	.word	0x40012c00
 8000444:	20000004 	.word	0x20000004

08000448 <SystemClock_Config>:
/**
  * @brief System Clock Configuration
  * @retval None
  */
void SystemClock_Config(void)
{
 8000448:	b590      	push	{r4, r7, lr}
 800044a:	b091      	sub	sp, #68	; 0x44
 800044c:	af00      	add	r7, sp, #0
  RCC_OscInitTypeDef RCC_OscInitStruct = {0};
 800044e:	2410      	movs	r4, #16
 8000450:	193b      	adds	r3, r7, r4
 8000452:	0018      	movs	r0, r3
 8000454:	2330      	movs	r3, #48	; 0x30
 8000456:	001a      	movs	r2, r3
 8000458:	2100      	movs	r1, #0
 800045a:	f002 f893 	bl	8002584 <memset>
  RCC_ClkInitTypeDef RCC_ClkInitStruct = {0};
 800045e:	003b      	movs	r3, r7
 8000460:	0018      	movs	r0, r3
 8000462:	2310      	movs	r3, #16
 8000464:	001a      	movs	r2, r3
 8000466:	2100      	movs	r1, #0
 8000468:	f002 f88c 	bl	8002584 <memset>

  /** Initializes the CPU, AHB and APB busses clocks 
  */
  RCC_OscInitStruct.OscillatorType = RCC_OSCILLATORTYPE_HSI;
 800046c:	0021      	movs	r1, r4
 800046e:	187b      	adds	r3, r7, r1
 8000470:	2202      	movs	r2, #2
 8000472:	601a      	str	r2, [r3, #0]
  RCC_OscInitStruct.HSIState = RCC_HSI_ON;
 8000474:	187b      	adds	r3, r7, r1
 8000476:	2201      	movs	r2, #1
 8000478:	60da      	str	r2, [r3, #12]
  RCC_OscInitStruct.HSICalibrationValue = RCC_HSICALIBRATION_DEFAULT;
 800047a:	187b      	adds	r3, r7, r1
 800047c:	2210      	movs	r2, #16
 800047e:	611a      	str	r2, [r3, #16]
  RCC_OscInitStruct.PLL.PLLState = RCC_PLL_NONE;
 8000480:	187b      	adds	r3, r7, r1
 8000482:	2200      	movs	r2, #0
 8000484:	621a      	str	r2, [r3, #32]
  if (HAL_RCC_OscConfig(&RCC_OscInitStruct) != HAL_OK)
 8000486:	187b      	adds	r3, r7, r1
 8000488:	0018      	movs	r0, r3
 800048a:	f000 fdf9 	bl	8001080 <HAL_RCC_OscConfig>
 800048e:	1e03      	subs	r3, r0, #0
 8000490:	d001      	beq.n	8000496 <SystemClock_Config+0x4e>
  {
    Error_Handler();
 8000492:	f000 f819 	bl	80004c8 <Error_Handler>
  }
  /** Initializes the CPU, AHB and APB busses clocks 
  */
  RCC_ClkInitStruct.ClockType = RCC_CLOCKTYPE_HCLK|RCC_CLOCKTYPE_SYSCLK
 8000496:	003b      	movs	r3, r7
 8000498:	2207      	movs	r2, #7
 800049a:	601a      	str	r2, [r3, #0]
                              |RCC_CLOCKTYPE_PCLK1;
  RCC_ClkInitStruct.SYSCLKSource = RCC_SYSCLKSOURCE_HSI;
 800049c:	003b      	movs	r3, r7
 800049e:	2200      	movs	r2, #0
 80004a0:	605a      	str	r2, [r3, #4]
  RCC_ClkInitStruct.AHBCLKDivider = RCC_SYSCLK_DIV1;
 80004a2:	003b      	movs	r3, r7
 80004a4:	2200      	movs	r2, #0
 80004a6:	609a      	str	r2, [r3, #8]
  RCC_ClkInitStruct.APB1CLKDivider = RCC_HCLK_DIV1;
 80004a8:	003b      	movs	r3, r7
 80004aa:	2200      	movs	r2, #0
 80004ac:	60da      	str	r2, [r3, #12]

  if (HAL_RCC_ClockConfig(&RCC_ClkInitStruct, FLASH_LATENCY_0) != HAL_OK)
 80004ae:	003b      	movs	r3, r7
 80004b0:	2100      	movs	r1, #0
 80004b2:	0018      	movs	r0, r3
 80004b4:	f001 f900 	bl	80016b8 <HAL_RCC_ClockConfig>
 80004b8:	1e03      	subs	r3, r0, #0
 80004ba:	d001      	beq.n	80004c0 <SystemClock_Config+0x78>
  {
    Error_Handler();
 80004bc:	f000 f804 	bl	80004c8 <Error_Handler>
  }
}
 80004c0:	46c0      	nop			; (mov r8, r8)
 80004c2:	46bd      	mov	sp, r7
 80004c4:	b011      	add	sp, #68	; 0x44
 80004c6:	bd90      	pop	{r4, r7, pc}

080004c8 <Error_Handler>:
/**
  * @brief  This function is executed in case of error occurrence.
  * @retval None
  */
void Error_Handler(void)
{
 80004c8:	b580      	push	{r7, lr}
 80004ca:	af00      	add	r7, sp, #0
  /* USER CODE BEGIN Error_Handler_Debug */
  /* User can add his own implementation to report the HAL error return state */

  /* USER CODE END Error_Handler_Debug */
}
 80004cc:	46c0      	nop			; (mov r8, r8)
 80004ce:	46bd      	mov	sp, r7
 80004d0:	bd80      	pop	{r7, pc}
	...

080004d4 <HAL_MspInit>:
/* USER CODE END 0 */
/**
  * Initializes the Global MSP.
  */
void HAL_MspInit(void)
{
 80004d4:	b580      	push	{r7, lr}
 80004d6:	b082      	sub	sp, #8
 80004d8:	af00      	add	r7, sp, #0
  /* USER CODE BEGIN MspInit 0 */

  /* USER CODE END MspInit 0 */

  __HAL_RCC_SYSCFG_CLK_ENABLE();
 80004da:	4b0f      	ldr	r3, [pc, #60]	; (8000518 <HAL_MspInit+0x44>)
 80004dc:	699a      	ldr	r2, [r3, #24]
 80004de:	4b0e      	ldr	r3, [pc, #56]	; (8000518 <HAL_MspInit+0x44>)
 80004e0:	2101      	movs	r1, #1
 80004e2:	430a      	orrs	r2, r1
 80004e4:	619a      	str	r2, [r3, #24]
 80004e6:	4b0c      	ldr	r3, [pc, #48]	; (8000518 <HAL_MspInit+0x44>)
 80004e8:	699b      	ldr	r3, [r3, #24]
 80004ea:	2201      	movs	r2, #1
 80004ec:	4013      	ands	r3, r2
 80004ee:	607b      	str	r3, [r7, #4]
 80004f0:	687b      	ldr	r3, [r7, #4]
  __HAL_RCC_PWR_CLK_ENABLE();
 80004f2:	4b09      	ldr	r3, [pc, #36]	; (8000518 <HAL_MspInit+0x44>)
 80004f4:	69da      	ldr	r2, [r3, #28]
 80004f6:	4b08      	ldr	r3, [pc, #32]	; (8000518 <HAL_MspInit+0x44>)
 80004f8:	2180      	movs	r1, #128	; 0x80
 80004fa:	0549      	lsls	r1, r1, #21
 80004fc:	430a      	orrs	r2, r1
 80004fe:	61da      	str	r2, [r3, #28]
 8000500:	4b05      	ldr	r3, [pc, #20]	; (8000518 <HAL_MspInit+0x44>)
 8000502:	69da      	ldr	r2, [r3, #28]
 8000504:	2380      	movs	r3, #128	; 0x80
 8000506:	055b      	lsls	r3, r3, #21
 8000508:	4013      	ands	r3, r2
 800050a:	603b      	str	r3, [r7, #0]
 800050c:	683b      	ldr	r3, [r7, #0]
  /* System interrupt init*/

  /* USER CODE BEGIN MspInit 1 */

  /* USER CODE END MspInit 1 */
}
 800050e:	46c0      	nop			; (mov r8, r8)
 8000510:	46bd      	mov	sp, r7
 8000512:	b002      	add	sp, #8
 8000514:	bd80      	pop	{r7, pc}
 8000516:	46c0      	nop			; (mov r8, r8)
 8000518:	40021000 	.word	0x40021000

0800051c <NMI_Handler>:
/******************************************************************************/
/**
  * @brief This function handles Non maskable interrupt.
  */
void NMI_Handler(void)
{
 800051c:	b580      	push	{r7, lr}
 800051e:	af00      	add	r7, sp, #0

  /* USER CODE END NonMaskableInt_IRQn 0 */
  /* USER CODE BEGIN NonMaskableInt_IRQn 1 */

  /* USER CODE END NonMaskableInt_IRQn 1 */
}
 8000520:	46c0      	nop			; (mov r8, r8)
 8000522:	46bd      	mov	sp, r7
 8000524:	bd80      	pop	{r7, pc}

08000526 <HardFault_Handler>:

/**
  * @brief This function handles Hard fault interrupt.
  */
void HardFault_Handler(void)
{
 8000526:	b580      	push	{r7, lr}
 8000528:	af00      	add	r7, sp, #0
  /* USER CODE BEGIN HardFault_IRQn 0 */

  /* USER CODE END HardFault_IRQn 0 */
  while (1)
 800052a:	e7fe      	b.n	800052a <HardFault_Handler+0x4>

0800052c <SVC_Handler>:

/**
  * @brief This function handles System service call via SWI instruction.
  */
void SVC_Handler(void)
{
 800052c:	b580      	push	{r7, lr}
 800052e:	af00      	add	r7, sp, #0

  /* USER CODE END SVC_IRQn 0 */
  /* USER CODE BEGIN SVC_IRQn 1 */

  /* USER CODE END SVC_IRQn 1 */
}
 8000530:	46c0      	nop			; (mov r8, r8)
 8000532:	46bd      	mov	sp, r7
 8000534:	bd80      	pop	{r7, pc}

08000536 <PendSV_Handler>:

/**
  * @brief This function handles Pendable request for system service.
  */
void PendSV_Handler(void)
{
 8000536:	b580      	push	{r7, lr}
 8000538:	af00      	add	r7, sp, #0

  /* USER CODE END PendSV_IRQn 0 */
  /* USER CODE BEGIN PendSV_IRQn 1 */

  /* USER CODE END PendSV_IRQn 1 */
}
 800053a:	46c0      	nop			; (mov r8, r8)
 800053c:	46bd      	mov	sp, r7
 800053e:	bd80      	pop	{r7, pc}

08000540 <SysTick_Handler>:

/**
  * @brief This function handles System tick timer.
  */
void SysTick_Handler(void)
{
 8000540:	b580      	push	{r7, lr}
 8000542:	af00      	add	r7, sp, #0
  /* USER CODE BEGIN SysTick_IRQn 0 */

  /* USER CODE END SysTick_IRQn 0 */
  HAL_IncTick();
 8000544:	f000 fb3a 	bl	8000bbc <HAL_IncTick>
  /* USER CODE BEGIN SysTick_IRQn 1 */

  /* USER CODE END SysTick_IRQn 1 */
}
 8000548:	46c0      	nop			; (mov r8, r8)
 800054a:	46bd      	mov	sp, r7
 800054c:	bd80      	pop	{r7, pc}

0800054e <SystemInit>:
  * @brief  Setup the microcontroller system.
  * @param  None
  * @retval None
  */
void SystemInit(void)
{
 800054e:	b580      	push	{r7, lr}
 8000550:	af00      	add	r7, sp, #0
                         before branch to main program. This call is made inside
                         the "startup_stm32f0xx.s" file.
                         User can setups the default system clock (System clock source, PLL Multiplier
                         and Divider factors, AHB/APBx prescalers and Flash settings).
   */
}
 8000552:	46c0      	nop			; (mov r8, r8)
 8000554:	46bd      	mov	sp, r7
 8000556:	bd80      	pop	{r7, pc}

08000558 <MX_TIM1_Init>:
TIM_HandleTypeDef htim2;
TIM_HandleTypeDef htim3;

/* TIM1 init function */
void MX_TIM1_Init(void)
{
 8000558:	b580      	push	{r7, lr}
 800055a:	b096      	sub	sp, #88	; 0x58
 800055c:	af00      	add	r7, sp, #0
  TIM_ClockConfigTypeDef sClockSourceConfig = {0};
 800055e:	2348      	movs	r3, #72	; 0x48
 8000560:	18fb      	adds	r3, r7, r3
 8000562:	0018      	movs	r0, r3
 8000564:	2310      	movs	r3, #16
 8000566:	001a      	movs	r2, r3
 8000568:	2100      	movs	r1, #0
 800056a:	f002 f80b 	bl	8002584 <memset>
  TIM_MasterConfigTypeDef sMasterConfig = {0};
 800056e:	2340      	movs	r3, #64	; 0x40
 8000570:	18fb      	adds	r3, r7, r3
 8000572:	0018      	movs	r0, r3
 8000574:	2308      	movs	r3, #8
 8000576:	001a      	movs	r2, r3
 8000578:	2100      	movs	r1, #0
 800057a:	f002 f803 	bl	8002584 <memset>
  TIM_OC_InitTypeDef sConfigOC = {0};
 800057e:	2324      	movs	r3, #36	; 0x24
 8000580:	18fb      	adds	r3, r7, r3
 8000582:	0018      	movs	r0, r3
 8000584:	231c      	movs	r3, #28
 8000586:	001a      	movs	r2, r3
 8000588:	2100      	movs	r1, #0
 800058a:	f001 fffb 	bl	8002584 <memset>
  TIM_BreakDeadTimeConfigTypeDef sBreakDeadTimeConfig = {0};
 800058e:	1d3b      	adds	r3, r7, #4
 8000590:	0018      	movs	r0, r3
 8000592:	2320      	movs	r3, #32
 8000594:	001a      	movs	r2, r3
 8000596:	2100      	movs	r1, #0
 8000598:	f001 fff4 	bl	8002584 <memset>

  htim1.Instance = TIM1;
 800059c:	4b51      	ldr	r3, [pc, #324]	; (80006e4 <MX_TIM1_Init+0x18c>)
 800059e:	4a52      	ldr	r2, [pc, #328]	; (80006e8 <MX_TIM1_Init+0x190>)
 80005a0:	601a      	str	r2, [r3, #0]
  htim1.Init.Prescaler = 1;
 80005a2:	4b50      	ldr	r3, [pc, #320]	; (80006e4 <MX_TIM1_Init+0x18c>)
 80005a4:	2201      	movs	r2, #1
 80005a6:	605a      	str	r2, [r3, #4]
  htim1.Init.CounterMode = TIM_COUNTERMODE_UP;
 80005a8:	4b4e      	ldr	r3, [pc, #312]	; (80006e4 <MX_TIM1_Init+0x18c>)
 80005aa:	2200      	movs	r2, #0
 80005ac:	609a      	str	r2, [r3, #8]
  htim1.Init.Period = 255;
 80005ae:	4b4d      	ldr	r3, [pc, #308]	; (80006e4 <MX_TIM1_Init+0x18c>)
 80005b0:	22ff      	movs	r2, #255	; 0xff
 80005b2:	60da      	str	r2, [r3, #12]
  htim1.Init.ClockDivision = TIM_CLOCKDIVISION_DIV1;
 80005b4:	4b4b      	ldr	r3, [pc, #300]	; (80006e4 <MX_TIM1_Init+0x18c>)
 80005b6:	2200      	movs	r2, #0
 80005b8:	611a      	str	r2, [r3, #16]
  htim1.Init.RepetitionCounter = 0;
 80005ba:	4b4a      	ldr	r3, [pc, #296]	; (80006e4 <MX_TIM1_Init+0x18c>)
 80005bc:	2200      	movs	r2, #0
 80005be:	615a      	str	r2, [r3, #20]
  htim1.Init.AutoReloadPreload = TIM_AUTORELOAD_PRELOAD_DISABLE;
 80005c0:	4b48      	ldr	r3, [pc, #288]	; (80006e4 <MX_TIM1_Init+0x18c>)
 80005c2:	2200      	movs	r2, #0
 80005c4:	619a      	str	r2, [r3, #24]
  if (HAL_TIM_Base_Init(&htim1) != HAL_OK)
 80005c6:	4b47      	ldr	r3, [pc, #284]	; (80006e4 <MX_TIM1_Init+0x18c>)
 80005c8:	0018      	movs	r0, r3
 80005ca:	f001 f9a7 	bl	800191c <HAL_TIM_Base_Init>
 80005ce:	1e03      	subs	r3, r0, #0
 80005d0:	d001      	beq.n	80005d6 <MX_TIM1_Init+0x7e>
  {
    Error_Handler();
 80005d2:	f7ff ff79 	bl	80004c8 <Error_Handler>
  }
  sClockSourceConfig.ClockSource = TIM_CLOCKSOURCE_INTERNAL;
 80005d6:	2148      	movs	r1, #72	; 0x48
 80005d8:	187b      	adds	r3, r7, r1
 80005da:	2280      	movs	r2, #128	; 0x80
 80005dc:	0152      	lsls	r2, r2, #5
 80005de:	601a      	str	r2, [r3, #0]
  if (HAL_TIM_ConfigClockSource(&htim1, &sClockSourceConfig) != HAL_OK)
 80005e0:	187a      	adds	r2, r7, r1
 80005e2:	4b40      	ldr	r3, [pc, #256]	; (80006e4 <MX_TIM1_Init+0x18c>)
 80005e4:	0011      	movs	r1, r2
 80005e6:	0018      	movs	r0, r3
 80005e8:	f001 faf4 	bl	8001bd4 <HAL_TIM_ConfigClockSource>
 80005ec:	1e03      	subs	r3, r0, #0
 80005ee:	d001      	beq.n	80005f4 <MX_TIM1_Init+0x9c>
  {
    Error_Handler();
 80005f0:	f7ff ff6a 	bl	80004c8 <Error_Handler>
  }
  if (HAL_TIM_PWM_Init(&htim1) != HAL_OK)
 80005f4:	4b3b      	ldr	r3, [pc, #236]	; (80006e4 <MX_TIM1_Init+0x18c>)
 80005f6:	0018      	movs	r0, r3
 80005f8:	f001 f9bc 	bl	8001974 <HAL_TIM_PWM_Init>
 80005fc:	1e03      	subs	r3, r0, #0
 80005fe:	d001      	beq.n	8000604 <MX_TIM1_Init+0xac>
  {
    Error_Handler();
 8000600:	f7ff ff62 	bl	80004c8 <Error_Handler>
  }
  sMasterConfig.MasterOutputTrigger = TIM_TRGO_RESET;
 8000604:	2140      	movs	r1, #64	; 0x40
 8000606:	187b      	adds	r3, r7, r1
 8000608:	2200      	movs	r2, #0
 800060a:	601a      	str	r2, [r3, #0]
  sMasterConfig.MasterSlaveMode = TIM_MASTERSLAVEMODE_DISABLE;
 800060c:	187b      	adds	r3, r7, r1
 800060e:	2200      	movs	r2, #0
 8000610:	605a      	str	r2, [r3, #4]
  if (HAL_TIMEx_MasterConfigSynchronization(&htim1, &sMasterConfig) != HAL_OK)
 8000612:	187a      	adds	r2, r7, r1
 8000614:	4b33      	ldr	r3, [pc, #204]	; (80006e4 <MX_TIM1_Init+0x18c>)
 8000616:	0011      	movs	r1, r2
 8000618:	0018      	movs	r0, r3
 800061a:	f001 fed3 	bl	80023c4 <HAL_TIMEx_MasterConfigSynchronization>
 800061e:	1e03      	subs	r3, r0, #0
 8000620:	d001      	beq.n	8000626 <MX_TIM1_Init+0xce>
  {
    Error_Handler();
 8000622:	f7ff ff51 	bl	80004c8 <Error_Handler>
  }
  sConfigOC.OCMode = TIM_OCMODE_PWM1;
 8000626:	2124      	movs	r1, #36	; 0x24
 8000628:	187b      	adds	r3, r7, r1
 800062a:	2260      	movs	r2, #96	; 0x60
 800062c:	601a      	str	r2, [r3, #0]
  sConfigOC.Pulse = 0;
 800062e:	187b      	adds	r3, r7, r1
 8000630:	2200      	movs	r2, #0
 8000632:	605a      	str	r2, [r3, #4]
  sConfigOC.OCPolarity = TIM_OCPOLARITY_HIGH;
 8000634:	187b      	adds	r3, r7, r1
 8000636:	2200      	movs	r2, #0
 8000638:	609a      	str	r2, [r3, #8]
  sConfigOC.OCNPolarity = TIM_OCNPOLARITY_HIGH;
 800063a:	187b      	adds	r3, r7, r1
 800063c:	2200      	movs	r2, #0
 800063e:	60da      	str	r2, [r3, #12]
  sConfigOC.OCFastMode = TIM_OCFAST_DISABLE;
 8000640:	187b      	adds	r3, r7, r1
 8000642:	2200      	movs	r2, #0
 8000644:	611a      	str	r2, [r3, #16]
  sConfigOC.OCIdleState = TIM_OCIDLESTATE_RESET;
 8000646:	187b      	adds	r3, r7, r1
 8000648:	2200      	movs	r2, #0
 800064a:	615a      	str	r2, [r3, #20]
  sConfigOC.OCNIdleState = TIM_OCNIDLESTATE_RESET;
 800064c:	187b      	adds	r3, r7, r1
 800064e:	2200      	movs	r2, #0
 8000650:	619a      	str	r2, [r3, #24]
  if (HAL_TIM_PWM_ConfigChannel(&htim1, &sConfigOC, TIM_CHANNEL_1) != HAL_OK)
 8000652:	1879      	adds	r1, r7, r1
 8000654:	4b23      	ldr	r3, [pc, #140]	; (80006e4 <MX_TIM1_Init+0x18c>)
 8000656:	2200      	movs	r2, #0
 8000658:	0018      	movs	r0, r3
 800065a:	f001 fa03 	bl	8001a64 <HAL_TIM_PWM_ConfigChannel>
 800065e:	1e03      	subs	r3, r0, #0
 8000660:	d001      	beq.n	8000666 <MX_TIM1_Init+0x10e>
  {
    Error_Handler();
 8000662:	f7ff ff31 	bl	80004c8 <Error_Handler>
  }
  if (HAL_TIM_PWM_ConfigChannel(&htim1, &sConfigOC, TIM_CHANNEL_2) != HAL_OK)
 8000666:	2324      	movs	r3, #36	; 0x24
 8000668:	18f9      	adds	r1, r7, r3
 800066a:	4b1e      	ldr	r3, [pc, #120]	; (80006e4 <MX_TIM1_Init+0x18c>)
 800066c:	2204      	movs	r2, #4
 800066e:	0018      	movs	r0, r3
 8000670:	f001 f9f8 	bl	8001a64 <HAL_TIM_PWM_ConfigChannel>
 8000674:	1e03      	subs	r3, r0, #0
 8000676:	d001      	beq.n	800067c <MX_TIM1_Init+0x124>
  {
    Error_Handler();
 8000678:	f7ff ff26 	bl	80004c8 <Error_Handler>
  }
  if (HAL_TIM_PWM_ConfigChannel(&htim1, &sConfigOC, TIM_CHANNEL_3) != HAL_OK)
 800067c:	2324      	movs	r3, #36	; 0x24
 800067e:	18f9      	adds	r1, r7, r3
 8000680:	4b18      	ldr	r3, [pc, #96]	; (80006e4 <MX_TIM1_Init+0x18c>)
 8000682:	2208      	movs	r2, #8
 8000684:	0018      	movs	r0, r3
 8000686:	f001 f9ed 	bl	8001a64 <HAL_TIM_PWM_ConfigChannel>
 800068a:	1e03      	subs	r3, r0, #0
 800068c:	d001      	beq.n	8000692 <MX_TIM1_Init+0x13a>
  {
    Error_Handler();
 800068e:	f7ff ff1b 	bl	80004c8 <Error_Handler>
  }
  sBreakDeadTimeConfig.OffStateRunMode = TIM_OSSR_DISABLE;
 8000692:	1d3b      	adds	r3, r7, #4
 8000694:	2200      	movs	r2, #0
 8000696:	601a      	str	r2, [r3, #0]
  sBreakDeadTimeConfig.OffStateIDLEMode = TIM_OSSI_DISABLE;
 8000698:	1d3b      	adds	r3, r7, #4
 800069a:	2200      	movs	r2, #0
 800069c:	605a      	str	r2, [r3, #4]
  sBreakDeadTimeConfig.LockLevel = TIM_LOCKLEVEL_OFF;
 800069e:	1d3b      	adds	r3, r7, #4
 80006a0:	2200      	movs	r2, #0
 80006a2:	609a      	str	r2, [r3, #8]
  sBreakDeadTimeConfig.DeadTime = 0;
 80006a4:	1d3b      	adds	r3, r7, #4
 80006a6:	2200      	movs	r2, #0
 80006a8:	60da      	str	r2, [r3, #12]
  sBreakDeadTimeConfig.BreakState = TIM_BREAK_DISABLE;
 80006aa:	1d3b      	adds	r3, r7, #4
 80006ac:	2200      	movs	r2, #0
 80006ae:	611a      	str	r2, [r3, #16]
  sBreakDeadTimeConfig.BreakPolarity = TIM_BREAKPOLARITY_HIGH;
 80006b0:	1d3b      	adds	r3, r7, #4
 80006b2:	2280      	movs	r2, #128	; 0x80
 80006b4:	0192      	lsls	r2, r2, #6
 80006b6:	615a      	str	r2, [r3, #20]
  sBreakDeadTimeConfig.AutomaticOutput = TIM_AUTOMATICOUTPUT_DISABLE;
 80006b8:	1d3b      	adds	r3, r7, #4
 80006ba:	2200      	movs	r2, #0
 80006bc:	61da      	str	r2, [r3, #28]
  if (HAL_TIMEx_ConfigBreakDeadTime(&htim1, &sBreakDeadTimeConfig) != HAL_OK)
 80006be:	1d3a      	adds	r2, r7, #4
 80006c0:	4b08      	ldr	r3, [pc, #32]	; (80006e4 <MX_TIM1_Init+0x18c>)
 80006c2:	0011      	movs	r1, r2
 80006c4:	0018      	movs	r0, r3
 80006c6:	f001 fedb 	bl	8002480 <HAL_TIMEx_ConfigBreakDeadTime>
 80006ca:	1e03      	subs	r3, r0, #0
 80006cc:	d001      	beq.n	80006d2 <MX_TIM1_Init+0x17a>
  {
    Error_Handler();
 80006ce:	f7ff fefb 	bl	80004c8 <Error_Handler>
  }
  HAL_TIM_MspPostInit(&htim1);
 80006d2:	4b04      	ldr	r3, [pc, #16]	; (80006e4 <MX_TIM1_Init+0x18c>)
 80006d4:	0018      	movs	r0, r3
 80006d6:	f000 f93f 	bl	8000958 <HAL_TIM_MspPostInit>

}
 80006da:	46c0      	nop			; (mov r8, r8)
 80006dc:	46bd      	mov	sp, r7
 80006de:	b016      	add	sp, #88	; 0x58
 80006e0:	bd80      	pop	{r7, pc}
 80006e2:	46c0      	nop			; (mov r8, r8)
 80006e4:	20000074 	.word	0x20000074
 80006e8:	40012c00 	.word	0x40012c00

080006ec <MX_TIM2_Init>:
/* TIM2 init function */
void MX_TIM2_Init(void)
{
 80006ec:	b580      	push	{r7, lr}
 80006ee:	b08a      	sub	sp, #40	; 0x28
 80006f0:	af00      	add	r7, sp, #0
  TIM_MasterConfigTypeDef sMasterConfig = {0};
 80006f2:	2320      	movs	r3, #32
 80006f4:	18fb      	adds	r3, r7, r3
 80006f6:	0018      	movs	r0, r3
 80006f8:	2308      	movs	r3, #8
 80006fa:	001a      	movs	r2, r3
 80006fc:	2100      	movs	r1, #0
 80006fe:	f001 ff41 	bl	8002584 <memset>
  TIM_OC_InitTypeDef sConfigOC = {0};
 8000702:	1d3b      	adds	r3, r7, #4
 8000704:	0018      	movs	r0, r3
 8000706:	231c      	movs	r3, #28
 8000708:	001a      	movs	r2, r3
 800070a:	2100      	movs	r1, #0
 800070c:	f001 ff3a 	bl	8002584 <memset>

  htim2.Instance = TIM2;
 8000710:	4b29      	ldr	r3, [pc, #164]	; (80007b8 <MX_TIM2_Init+0xcc>)
 8000712:	2280      	movs	r2, #128	; 0x80
 8000714:	05d2      	lsls	r2, r2, #23
 8000716:	601a      	str	r2, [r3, #0]
  htim2.Init.Prescaler = 1;
 8000718:	4b27      	ldr	r3, [pc, #156]	; (80007b8 <MX_TIM2_Init+0xcc>)
 800071a:	2201      	movs	r2, #1
 800071c:	605a      	str	r2, [r3, #4]
  htim2.Init.CounterMode = TIM_COUNTERMODE_UP;
 800071e:	4b26      	ldr	r3, [pc, #152]	; (80007b8 <MX_TIM2_Init+0xcc>)
 8000720:	2200      	movs	r2, #0
 8000722:	609a      	str	r2, [r3, #8]
  htim2.Init.Period = 64;
 8000724:	4b24      	ldr	r3, [pc, #144]	; (80007b8 <MX_TIM2_Init+0xcc>)
 8000726:	2240      	movs	r2, #64	; 0x40
 8000728:	60da      	str	r2, [r3, #12]
  htim2.Init.ClockDivision = TIM_CLOCKDIVISION_DIV1;
 800072a:	4b23      	ldr	r3, [pc, #140]	; (80007b8 <MX_TIM2_Init+0xcc>)
 800072c:	2200      	movs	r2, #0
 800072e:	611a      	str	r2, [r3, #16]
  htim2.Init.AutoReloadPreload = TIM_AUTORELOAD_PRELOAD_DISABLE;
 8000730:	4b21      	ldr	r3, [pc, #132]	; (80007b8 <MX_TIM2_Init+0xcc>)
 8000732:	2200      	movs	r2, #0
 8000734:	619a      	str	r2, [r3, #24]
  if (HAL_TIM_PWM_Init(&htim2) != HAL_OK)
 8000736:	4b20      	ldr	r3, [pc, #128]	; (80007b8 <MX_TIM2_Init+0xcc>)
 8000738:	0018      	movs	r0, r3
 800073a:	f001 f91b 	bl	8001974 <HAL_TIM_PWM_Init>
 800073e:	1e03      	subs	r3, r0, #0
 8000740:	d001      	beq.n	8000746 <MX_TIM2_Init+0x5a>
  {
    Error_Handler();
 8000742:	f7ff fec1 	bl	80004c8 <Error_Handler>
  }
  sMasterConfig.MasterOutputTrigger = TIM_TRGO_RESET;
 8000746:	2120      	movs	r1, #32
 8000748:	187b      	adds	r3, r7, r1
 800074a:	2200      	movs	r2, #0
 800074c:	601a      	str	r2, [r3, #0]
  sMasterConfig.MasterSlaveMode = TIM_MASTERSLAVEMODE_DISABLE;
 800074e:	187b      	adds	r3, r7, r1
 8000750:	2200      	movs	r2, #0
 8000752:	605a      	str	r2, [r3, #4]
  if (HAL_TIMEx_MasterConfigSynchronization(&htim2, &sMasterConfig) != HAL_OK)
 8000754:	187a      	adds	r2, r7, r1
 8000756:	4b18      	ldr	r3, [pc, #96]	; (80007b8 <MX_TIM2_Init+0xcc>)
 8000758:	0011      	movs	r1, r2
 800075a:	0018      	movs	r0, r3
 800075c:	f001 fe32 	bl	80023c4 <HAL_TIMEx_MasterConfigSynchronization>
 8000760:	1e03      	subs	r3, r0, #0
 8000762:	d001      	beq.n	8000768 <MX_TIM2_Init+0x7c>
  {
    Error_Handler();
 8000764:	f7ff feb0 	bl	80004c8 <Error_Handler>
  }
  sConfigOC.OCMode = TIM_OCMODE_PWM1;
 8000768:	1d3b      	adds	r3, r7, #4
 800076a:	2260      	movs	r2, #96	; 0x60
 800076c:	601a      	str	r2, [r3, #0]
  sConfigOC.Pulse = 0;
 800076e:	1d3b      	adds	r3, r7, #4
 8000770:	2200      	movs	r2, #0
 8000772:	605a      	str	r2, [r3, #4]
  sConfigOC.OCPolarity = TIM_OCPOLARITY_HIGH;
 8000774:	1d3b      	adds	r3, r7, #4
 8000776:	2200      	movs	r2, #0
 8000778:	609a      	str	r2, [r3, #8]
  sConfigOC.OCFastMode = TIM_OCFAST_DISABLE;
 800077a:	1d3b      	adds	r3, r7, #4
 800077c:	2200      	movs	r2, #0
 800077e:	611a      	str	r2, [r3, #16]
  if (HAL_TIM_PWM_ConfigChannel(&htim2, &sConfigOC, TIM_CHANNEL_1) != HAL_OK)
 8000780:	1d39      	adds	r1, r7, #4
 8000782:	4b0d      	ldr	r3, [pc, #52]	; (80007b8 <MX_TIM2_Init+0xcc>)
 8000784:	2200      	movs	r2, #0
 8000786:	0018      	movs	r0, r3
 8000788:	f001 f96c 	bl	8001a64 <HAL_TIM_PWM_ConfigChannel>
 800078c:	1e03      	subs	r3, r0, #0
 800078e:	d001      	beq.n	8000794 <MX_TIM2_Init+0xa8>
  {
    Error_Handler();
 8000790:	f7ff fe9a 	bl	80004c8 <Error_Handler>
  }
  if (HAL_TIM_PWM_ConfigChannel(&htim2, &sConfigOC, TIM_CHANNEL_2) != HAL_OK)
 8000794:	1d39      	adds	r1, r7, #4
 8000796:	4b08      	ldr	r3, [pc, #32]	; (80007b8 <MX_TIM2_Init+0xcc>)
 8000798:	2204      	movs	r2, #4
 800079a:	0018      	movs	r0, r3
 800079c:	f001 f962 	bl	8001a64 <HAL_TIM_PWM_ConfigChannel>
 80007a0:	1e03      	subs	r3, r0, #0
 80007a2:	d001      	beq.n	80007a8 <MX_TIM2_Init+0xbc>
  {
    Error_Handler();
 80007a4:	f7ff fe90 	bl	80004c8 <Error_Handler>
  }
  HAL_TIM_MspPostInit(&htim2);
 80007a8:	4b03      	ldr	r3, [pc, #12]	; (80007b8 <MX_TIM2_Init+0xcc>)
 80007aa:	0018      	movs	r0, r3
 80007ac:	f000 f8d4 	bl	8000958 <HAL_TIM_MspPostInit>

}
 80007b0:	46c0      	nop			; (mov r8, r8)
 80007b2:	46bd      	mov	sp, r7
 80007b4:	b00a      	add	sp, #40	; 0x28
 80007b6:	bd80      	pop	{r7, pc}
 80007b8:	200000b4 	.word	0x200000b4

080007bc <MX_TIM3_Init>:
/* TIM3 init function */
void MX_TIM3_Init(void)
{
 80007bc:	b580      	push	{r7, lr}
 80007be:	b08a      	sub	sp, #40	; 0x28
 80007c0:	af00      	add	r7, sp, #0
  TIM_MasterConfigTypeDef sMasterConfig = {0};
 80007c2:	2320      	movs	r3, #32
 80007c4:	18fb      	adds	r3, r7, r3
 80007c6:	0018      	movs	r0, r3
 80007c8:	2308      	movs	r3, #8
 80007ca:	001a      	movs	r2, r3
 80007cc:	2100      	movs	r1, #0
 80007ce:	f001 fed9 	bl	8002584 <memset>
  TIM_OC_InitTypeDef sConfigOC = {0};
 80007d2:	1d3b      	adds	r3, r7, #4
 80007d4:	0018      	movs	r0, r3
 80007d6:	231c      	movs	r3, #28
 80007d8:	001a      	movs	r2, r3
 80007da:	2100      	movs	r1, #0
 80007dc:	f001 fed2 	bl	8002584 <memset>

  htim3.Instance = TIM3;
 80007e0:	4b33      	ldr	r3, [pc, #204]	; (80008b0 <MX_TIM3_Init+0xf4>)
 80007e2:	4a34      	ldr	r2, [pc, #208]	; (80008b4 <MX_TIM3_Init+0xf8>)
 80007e4:	601a      	str	r2, [r3, #0]
  htim3.Init.Prescaler = 1;
 80007e6:	4b32      	ldr	r3, [pc, #200]	; (80008b0 <MX_TIM3_Init+0xf4>)
 80007e8:	2201      	movs	r2, #1
 80007ea:	605a      	str	r2, [r3, #4]
  htim3.Init.CounterMode = TIM_COUNTERMODE_UP;
 80007ec:	4b30      	ldr	r3, [pc, #192]	; (80008b0 <MX_TIM3_Init+0xf4>)
 80007ee:	2200      	movs	r2, #0
 80007f0:	609a      	str	r2, [r3, #8]
  htim3.Init.Period = 255;
 80007f2:	4b2f      	ldr	r3, [pc, #188]	; (80008b0 <MX_TIM3_Init+0xf4>)
 80007f4:	22ff      	movs	r2, #255	; 0xff
 80007f6:	60da      	str	r2, [r3, #12]
  htim3.Init.ClockDivision = TIM_CLOCKDIVISION_DIV1;
 80007f8:	4b2d      	ldr	r3, [pc, #180]	; (80008b0 <MX_TIM3_Init+0xf4>)
 80007fa:	2200      	movs	r2, #0
 80007fc:	611a      	str	r2, [r3, #16]
  htim3.Init.AutoReloadPreload = TIM_AUTORELOAD_PRELOAD_DISABLE;
 80007fe:	4b2c      	ldr	r3, [pc, #176]	; (80008b0 <MX_TIM3_Init+0xf4>)
 8000800:	2200      	movs	r2, #0
 8000802:	619a      	str	r2, [r3, #24]
  if (HAL_TIM_PWM_Init(&htim3) != HAL_OK)
 8000804:	4b2a      	ldr	r3, [pc, #168]	; (80008b0 <MX_TIM3_Init+0xf4>)
 8000806:	0018      	movs	r0, r3
 8000808:	f001 f8b4 	bl	8001974 <HAL_TIM_PWM_Init>
 800080c:	1e03      	subs	r3, r0, #0
 800080e:	d001      	beq.n	8000814 <MX_TIM3_Init+0x58>
  {
    Error_Handler();
 8000810:	f7ff fe5a 	bl	80004c8 <Error_Handler>
  }
  sMasterConfig.MasterOutputTrigger = TIM_TRGO_RESET;
 8000814:	2120      	movs	r1, #32
 8000816:	187b      	adds	r3, r7, r1
 8000818:	2200      	movs	r2, #0
 800081a:	601a      	str	r2, [r3, #0]
  sMasterConfig.MasterSlaveMode = TIM_MASTERSLAVEMODE_DISABLE;
 800081c:	187b      	adds	r3, r7, r1
 800081e:	2200      	movs	r2, #0
 8000820:	605a      	str	r2, [r3, #4]
  if (HAL_TIMEx_MasterConfigSynchronization(&htim3, &sMasterConfig) != HAL_OK)
 8000822:	187a      	adds	r2, r7, r1
 8000824:	4b22      	ldr	r3, [pc, #136]	; (80008b0 <MX_TIM3_Init+0xf4>)
 8000826:	0011      	movs	r1, r2
 8000828:	0018      	movs	r0, r3
 800082a:	f001 fdcb 	bl	80023c4 <HAL_TIMEx_MasterConfigSynchronization>
 800082e:	1e03      	subs	r3, r0, #0
 8000830:	d001      	beq.n	8000836 <MX_TIM3_Init+0x7a>
  {
    Error_Handler();
 8000832:	f7ff fe49 	bl	80004c8 <Error_Handler>
  }
  sConfigOC.OCMode = TIM_OCMODE_PWM1;
 8000836:	1d3b      	adds	r3, r7, #4
 8000838:	2260      	movs	r2, #96	; 0x60
 800083a:	601a      	str	r2, [r3, #0]
  sConfigOC.Pulse = 0;
 800083c:	1d3b      	adds	r3, r7, #4
 800083e:	2200      	movs	r2, #0
 8000840:	605a      	str	r2, [r3, #4]
  sConfigOC.OCPolarity = TIM_OCPOLARITY_HIGH;
 8000842:	1d3b      	adds	r3, r7, #4
 8000844:	2200      	movs	r2, #0
 8000846:	609a      	str	r2, [r3, #8]
  sConfigOC.OCFastMode = TIM_OCFAST_DISABLE;
 8000848:	1d3b      	adds	r3, r7, #4
 800084a:	2200      	movs	r2, #0
 800084c:	611a      	str	r2, [r3, #16]
  if (HAL_TIM_PWM_ConfigChannel(&htim3, &sConfigOC, TIM_CHANNEL_1) != HAL_OK)
 800084e:	1d39      	adds	r1, r7, #4
 8000850:	4b17      	ldr	r3, [pc, #92]	; (80008b0 <MX_TIM3_Init+0xf4>)
 8000852:	2200      	movs	r2, #0
 8000854:	0018      	movs	r0, r3
 8000856:	f001 f905 	bl	8001a64 <HAL_TIM_PWM_ConfigChannel>
 800085a:	1e03      	subs	r3, r0, #0
 800085c:	d001      	beq.n	8000862 <MX_TIM3_Init+0xa6>
  {
    Error_Handler();
 800085e:	f7ff fe33 	bl	80004c8 <Error_Handler>
  }
  if (HAL_TIM_PWM_ConfigChannel(&htim3, &sConfigOC, TIM_CHANNEL_2) != HAL_OK)
 8000862:	1d39      	adds	r1, r7, #4
 8000864:	4b12      	ldr	r3, [pc, #72]	; (80008b0 <MX_TIM3_Init+0xf4>)
 8000866:	2204      	movs	r2, #4
 8000868:	0018      	movs	r0, r3
 800086a:	f001 f8fb 	bl	8001a64 <HAL_TIM_PWM_ConfigChannel>
 800086e:	1e03      	subs	r3, r0, #0
 8000870:	d001      	beq.n	8000876 <MX_TIM3_Init+0xba>
  {
    Error_Handler();
 8000872:	f7ff fe29 	bl	80004c8 <Error_Handler>
  }
  if (HAL_TIM_PWM_ConfigChannel(&htim3, &sConfigOC, TIM_CHANNEL_3) != HAL_OK)
 8000876:	1d39      	adds	r1, r7, #4
 8000878:	4b0d      	ldr	r3, [pc, #52]	; (80008b0 <MX_TIM3_Init+0xf4>)
 800087a:	2208      	movs	r2, #8
 800087c:	0018      	movs	r0, r3
 800087e:	f001 f8f1 	bl	8001a64 <HAL_TIM_PWM_ConfigChannel>
 8000882:	1e03      	subs	r3, r0, #0
 8000884:	d001      	beq.n	800088a <MX_TIM3_Init+0xce>
  {
    Error_Handler();
 8000886:	f7ff fe1f 	bl	80004c8 <Error_Handler>
  }
  if (HAL_TIM_PWM_ConfigChannel(&htim3, &sConfigOC, TIM_CHANNEL_4) != HAL_OK)
 800088a:	1d39      	adds	r1, r7, #4
 800088c:	4b08      	ldr	r3, [pc, #32]	; (80008b0 <MX_TIM3_Init+0xf4>)
 800088e:	220c      	movs	r2, #12
 8000890:	0018      	movs	r0, r3
 8000892:	f001 f8e7 	bl	8001a64 <HAL_TIM_PWM_ConfigChannel>
 8000896:	1e03      	subs	r3, r0, #0
 8000898:	d001      	beq.n	800089e <MX_TIM3_Init+0xe2>
  {
    Error_Handler();
 800089a:	f7ff fe15 	bl	80004c8 <Error_Handler>
  }
  HAL_TIM_MspPostInit(&htim3);
 800089e:	4b04      	ldr	r3, [pc, #16]	; (80008b0 <MX_TIM3_Init+0xf4>)
 80008a0:	0018      	movs	r0, r3
 80008a2:	f000 f859 	bl	8000958 <HAL_TIM_MspPostInit>

}
 80008a6:	46c0      	nop			; (mov r8, r8)
 80008a8:	46bd      	mov	sp, r7
 80008aa:	b00a      	add	sp, #40	; 0x28
 80008ac:	bd80      	pop	{r7, pc}
 80008ae:	46c0      	nop			; (mov r8, r8)
 80008b0:	20000034 	.word	0x20000034
 80008b4:	40000400 	.word	0x40000400

080008b8 <HAL_TIM_Base_MspInit>:

void HAL_TIM_Base_MspInit(TIM_HandleTypeDef* tim_baseHandle)
{
 80008b8:	b580      	push	{r7, lr}
 80008ba:	b084      	sub	sp, #16
 80008bc:	af00      	add	r7, sp, #0
 80008be:	6078      	str	r0, [r7, #4]

  if(tim_baseHandle->Instance==TIM1)
 80008c0:	687b      	ldr	r3, [r7, #4]
 80008c2:	681b      	ldr	r3, [r3, #0]
 80008c4:	4a0a      	ldr	r2, [pc, #40]	; (80008f0 <HAL_TIM_Base_MspInit+0x38>)
 80008c6:	4293      	cmp	r3, r2
 80008c8:	d10d      	bne.n	80008e6 <HAL_TIM_Base_MspInit+0x2e>
  {
  /* USER CODE BEGIN TIM1_MspInit 0 */

  /* USER CODE END TIM1_MspInit 0 */
    /* TIM1 clock enable */
    __HAL_RCC_TIM1_CLK_ENABLE();
 80008ca:	4b0a      	ldr	r3, [pc, #40]	; (80008f4 <HAL_TIM_Base_MspInit+0x3c>)
 80008cc:	699a      	ldr	r2, [r3, #24]
 80008ce:	4b09      	ldr	r3, [pc, #36]	; (80008f4 <HAL_TIM_Base_MspInit+0x3c>)
 80008d0:	2180      	movs	r1, #128	; 0x80
 80008d2:	0109      	lsls	r1, r1, #4
 80008d4:	430a      	orrs	r2, r1
 80008d6:	619a      	str	r2, [r3, #24]
 80008d8:	4b06      	ldr	r3, [pc, #24]	; (80008f4 <HAL_TIM_Base_MspInit+0x3c>)
 80008da:	699a      	ldr	r2, [r3, #24]
 80008dc:	2380      	movs	r3, #128	; 0x80
 80008de:	011b      	lsls	r3, r3, #4
 80008e0:	4013      	ands	r3, r2
 80008e2:	60fb      	str	r3, [r7, #12]
 80008e4:	68fb      	ldr	r3, [r7, #12]
  /* USER CODE BEGIN TIM1_MspInit 1 */

  /* USER CODE END TIM1_MspInit 1 */
  }
}
 80008e6:	46c0      	nop			; (mov r8, r8)
 80008e8:	46bd      	mov	sp, r7
 80008ea:	b004      	add	sp, #16
 80008ec:	bd80      	pop	{r7, pc}
 80008ee:	46c0      	nop			; (mov r8, r8)
 80008f0:	40012c00 	.word	0x40012c00
 80008f4:	40021000 	.word	0x40021000

080008f8 <HAL_TIM_PWM_MspInit>:

void HAL_TIM_PWM_MspInit(TIM_HandleTypeDef* tim_pwmHandle)
{
 80008f8:	b580      	push	{r7, lr}
 80008fa:	b084      	sub	sp, #16
 80008fc:	af00      	add	r7, sp, #0
 80008fe:	6078      	str	r0, [r7, #4]

  if(tim_pwmHandle->Instance==TIM2)
 8000900:	687b      	ldr	r3, [r7, #4]
 8000902:	681a      	ldr	r2, [r3, #0]
 8000904:	2380      	movs	r3, #128	; 0x80
 8000906:	05db      	lsls	r3, r3, #23
 8000908:	429a      	cmp	r2, r3
 800090a:	d10c      	bne.n	8000926 <HAL_TIM_PWM_MspInit+0x2e>
  {
  /* USER CODE BEGIN TIM2_MspInit 0 */

  /* USER CODE END TIM2_MspInit 0 */
    /* TIM2 clock enable */
    __HAL_RCC_TIM2_CLK_ENABLE();
 800090c:	4b10      	ldr	r3, [pc, #64]	; (8000950 <HAL_TIM_PWM_MspInit+0x58>)
 800090e:	69da      	ldr	r2, [r3, #28]
 8000910:	4b0f      	ldr	r3, [pc, #60]	; (8000950 <HAL_TIM_PWM_MspInit+0x58>)
 8000912:	2101      	movs	r1, #1
 8000914:	430a      	orrs	r2, r1
 8000916:	61da      	str	r2, [r3, #28]
 8000918:	4b0d      	ldr	r3, [pc, #52]	; (8000950 <HAL_TIM_PWM_MspInit+0x58>)
 800091a:	69db      	ldr	r3, [r3, #28]
 800091c:	2201      	movs	r2, #1
 800091e:	4013      	ands	r3, r2
 8000920:	60fb      	str	r3, [r7, #12]
 8000922:	68fb      	ldr	r3, [r7, #12]
    __HAL_RCC_TIM3_CLK_ENABLE();
  /* USER CODE BEGIN TIM3_MspInit 1 */

  /* USER CODE END TIM3_MspInit 1 */
  }
}
 8000924:	e010      	b.n	8000948 <HAL_TIM_PWM_MspInit+0x50>
  else if(tim_pwmHandle->Instance==TIM3)
 8000926:	687b      	ldr	r3, [r7, #4]
 8000928:	681b      	ldr	r3, [r3, #0]
 800092a:	4a0a      	ldr	r2, [pc, #40]	; (8000954 <HAL_TIM_PWM_MspInit+0x5c>)
 800092c:	4293      	cmp	r3, r2
 800092e:	d10b      	bne.n	8000948 <HAL_TIM_PWM_MspInit+0x50>
    __HAL_RCC_TIM3_CLK_ENABLE();
 8000930:	4b07      	ldr	r3, [pc, #28]	; (8000950 <HAL_TIM_PWM_MspInit+0x58>)
 8000932:	69da      	ldr	r2, [r3, #28]
 8000934:	4b06      	ldr	r3, [pc, #24]	; (8000950 <HAL_TIM_PWM_MspInit+0x58>)
 8000936:	2102      	movs	r1, #2
 8000938:	430a      	orrs	r2, r1
 800093a:	61da      	str	r2, [r3, #28]
 800093c:	4b04      	ldr	r3, [pc, #16]	; (8000950 <HAL_TIM_PWM_MspInit+0x58>)
 800093e:	69db      	ldr	r3, [r3, #28]
 8000940:	2202      	movs	r2, #2
 8000942:	4013      	ands	r3, r2
 8000944:	60bb      	str	r3, [r7, #8]
 8000946:	68bb      	ldr	r3, [r7, #8]
}
 8000948:	46c0      	nop			; (mov r8, r8)
 800094a:	46bd      	mov	sp, r7
 800094c:	b004      	add	sp, #16
 800094e:	bd80      	pop	{r7, pc}
 8000950:	40021000 	.word	0x40021000
 8000954:	40000400 	.word	0x40000400

08000958 <HAL_TIM_MspPostInit>:
void HAL_TIM_MspPostInit(TIM_HandleTypeDef* timHandle)
{
 8000958:	b590      	push	{r4, r7, lr}
 800095a:	b08d      	sub	sp, #52	; 0x34
 800095c:	af00      	add	r7, sp, #0
 800095e:	6078      	str	r0, [r7, #4]

  GPIO_InitTypeDef GPIO_InitStruct = {0};
 8000960:	231c      	movs	r3, #28
 8000962:	18fb      	adds	r3, r7, r3
 8000964:	0018      	movs	r0, r3
 8000966:	2314      	movs	r3, #20
 8000968:	001a      	movs	r2, r3
 800096a:	2100      	movs	r1, #0
 800096c:	f001 fe0a 	bl	8002584 <memset>
  if(timHandle->Instance==TIM1)
 8000970:	687b      	ldr	r3, [r7, #4]
 8000972:	681b      	ldr	r3, [r3, #0]
 8000974:	4a54      	ldr	r2, [pc, #336]	; (8000ac8 <HAL_TIM_MspPostInit+0x170>)
 8000976:	4293      	cmp	r3, r2
 8000978:	d126      	bne.n	80009c8 <HAL_TIM_MspPostInit+0x70>
  {
  /* USER CODE BEGIN TIM1_MspPostInit 0 */

  /* USER CODE END TIM1_MspPostInit 0 */
    __HAL_RCC_GPIOA_CLK_ENABLE();
 800097a:	4b54      	ldr	r3, [pc, #336]	; (8000acc <HAL_TIM_MspPostInit+0x174>)
 800097c:	695a      	ldr	r2, [r3, #20]
 800097e:	4b53      	ldr	r3, [pc, #332]	; (8000acc <HAL_TIM_MspPostInit+0x174>)
 8000980:	2180      	movs	r1, #128	; 0x80
 8000982:	0289      	lsls	r1, r1, #10
 8000984:	430a      	orrs	r2, r1
 8000986:	615a      	str	r2, [r3, #20]
 8000988:	4b50      	ldr	r3, [pc, #320]	; (8000acc <HAL_TIM_MspPostInit+0x174>)
 800098a:	695a      	ldr	r2, [r3, #20]
 800098c:	2380      	movs	r3, #128	; 0x80
 800098e:	029b      	lsls	r3, r3, #10
 8000990:	4013      	ands	r3, r2
 8000992:	61bb      	str	r3, [r7, #24]
 8000994:	69bb      	ldr	r3, [r7, #24]
    /**TIM1 GPIO Configuration    
    PA8     ------> TIM1_CH1
    PA9     ------> TIM1_CH2
    PA10     ------> TIM1_CH3 
    */
    GPIO_InitStruct.Pin = GPIO_PIN_8|GPIO_PIN_9|GPIO_PIN_10;
 8000996:	211c      	movs	r1, #28
 8000998:	187b      	adds	r3, r7, r1
 800099a:	22e0      	movs	r2, #224	; 0xe0
 800099c:	00d2      	lsls	r2, r2, #3
 800099e:	601a      	str	r2, [r3, #0]
    GPIO_InitStruct.Mode = GPIO_MODE_AF_PP;
 80009a0:	187b      	adds	r3, r7, r1
 80009a2:	2202      	movs	r2, #2
 80009a4:	605a      	str	r2, [r3, #4]
    GPIO_InitStruct.Pull = GPIO_NOPULL;
 80009a6:	187b      	adds	r3, r7, r1
 80009a8:	2200      	movs	r2, #0
 80009aa:	609a      	str	r2, [r3, #8]
    GPIO_InitStruct.Speed = GPIO_SPEED_FREQ_LOW;
 80009ac:	187b      	adds	r3, r7, r1
 80009ae:	2200      	movs	r2, #0
 80009b0:	60da      	str	r2, [r3, #12]
    GPIO_InitStruct.Alternate = GPIO_AF2_TIM1;
 80009b2:	187b      	adds	r3, r7, r1
 80009b4:	2202      	movs	r2, #2
 80009b6:	611a      	str	r2, [r3, #16]
    HAL_GPIO_Init(GPIOA, &GPIO_InitStruct);
 80009b8:	187a      	adds	r2, r7, r1
 80009ba:	2390      	movs	r3, #144	; 0x90
 80009bc:	05db      	lsls	r3, r3, #23
 80009be:	0011      	movs	r1, r2
 80009c0:	0018      	movs	r0, r3
 80009c2:	f000 f9ed 	bl	8000da0 <HAL_GPIO_Init>
  /* USER CODE BEGIN TIM3_MspPostInit 1 */

  /* USER CODE END TIM3_MspPostInit 1 */
  }

}
 80009c6:	e07a      	b.n	8000abe <HAL_TIM_MspPostInit+0x166>
  else if(timHandle->Instance==TIM2)
 80009c8:	687b      	ldr	r3, [r7, #4]
 80009ca:	681a      	ldr	r2, [r3, #0]
 80009cc:	2380      	movs	r3, #128	; 0x80
 80009ce:	05db      	lsls	r3, r3, #23
 80009d0:	429a      	cmp	r2, r3
 80009d2:	d14b      	bne.n	8000a6c <HAL_TIM_MspPostInit+0x114>
    __HAL_RCC_GPIOA_CLK_ENABLE();
 80009d4:	4b3d      	ldr	r3, [pc, #244]	; (8000acc <HAL_TIM_MspPostInit+0x174>)
 80009d6:	695a      	ldr	r2, [r3, #20]
 80009d8:	4b3c      	ldr	r3, [pc, #240]	; (8000acc <HAL_TIM_MspPostInit+0x174>)
 80009da:	2180      	movs	r1, #128	; 0x80
 80009dc:	0289      	lsls	r1, r1, #10
 80009de:	430a      	orrs	r2, r1
 80009e0:	615a      	str	r2, [r3, #20]
 80009e2:	4b3a      	ldr	r3, [pc, #232]	; (8000acc <HAL_TIM_MspPostInit+0x174>)
 80009e4:	695a      	ldr	r2, [r3, #20]
 80009e6:	2380      	movs	r3, #128	; 0x80
 80009e8:	029b      	lsls	r3, r3, #10
 80009ea:	4013      	ands	r3, r2
 80009ec:	617b      	str	r3, [r7, #20]
 80009ee:	697b      	ldr	r3, [r7, #20]
    __HAL_RCC_GPIOB_CLK_ENABLE();
 80009f0:	4b36      	ldr	r3, [pc, #216]	; (8000acc <HAL_TIM_MspPostInit+0x174>)
 80009f2:	695a      	ldr	r2, [r3, #20]
 80009f4:	4b35      	ldr	r3, [pc, #212]	; (8000acc <HAL_TIM_MspPostInit+0x174>)
 80009f6:	2180      	movs	r1, #128	; 0x80
 80009f8:	02c9      	lsls	r1, r1, #11
 80009fa:	430a      	orrs	r2, r1
 80009fc:	615a      	str	r2, [r3, #20]
 80009fe:	4b33      	ldr	r3, [pc, #204]	; (8000acc <HAL_TIM_MspPostInit+0x174>)
 8000a00:	695a      	ldr	r2, [r3, #20]
 8000a02:	2380      	movs	r3, #128	; 0x80
 8000a04:	02db      	lsls	r3, r3, #11
 8000a06:	4013      	ands	r3, r2
 8000a08:	613b      	str	r3, [r7, #16]
 8000a0a:	693b      	ldr	r3, [r7, #16]
    GPIO_InitStruct.Pin = GPIO_PIN_15;
 8000a0c:	211c      	movs	r1, #28
 8000a0e:	187b      	adds	r3, r7, r1
 8000a10:	2280      	movs	r2, #128	; 0x80
 8000a12:	0212      	lsls	r2, r2, #8
 8000a14:	601a      	str	r2, [r3, #0]
    GPIO_InitStruct.Mode = GPIO_MODE_AF_PP;
 8000a16:	000c      	movs	r4, r1
 8000a18:	193b      	adds	r3, r7, r4
 8000a1a:	2202      	movs	r2, #2
 8000a1c:	605a      	str	r2, [r3, #4]
    GPIO_InitStruct.Pull = GPIO_NOPULL;
 8000a1e:	193b      	adds	r3, r7, r4
 8000a20:	2200      	movs	r2, #0
 8000a22:	609a      	str	r2, [r3, #8]
    GPIO_InitStruct.Speed = GPIO_SPEED_FREQ_LOW;
 8000a24:	193b      	adds	r3, r7, r4
 8000a26:	2200      	movs	r2, #0
 8000a28:	60da      	str	r2, [r3, #12]
    GPIO_InitStruct.Alternate = GPIO_AF2_TIM2;
 8000a2a:	193b      	adds	r3, r7, r4
 8000a2c:	2202      	movs	r2, #2
 8000a2e:	611a      	str	r2, [r3, #16]
    HAL_GPIO_Init(GPIOA, &GPIO_InitStruct);
 8000a30:	193a      	adds	r2, r7, r4
 8000a32:	2390      	movs	r3, #144	; 0x90
 8000a34:	05db      	lsls	r3, r3, #23
 8000a36:	0011      	movs	r1, r2
 8000a38:	0018      	movs	r0, r3
 8000a3a:	f000 f9b1 	bl	8000da0 <HAL_GPIO_Init>
    GPIO_InitStruct.Pin = GPIO_PIN_3;
 8000a3e:	0021      	movs	r1, r4
 8000a40:	187b      	adds	r3, r7, r1
 8000a42:	2208      	movs	r2, #8
 8000a44:	601a      	str	r2, [r3, #0]
    GPIO_InitStruct.Mode = GPIO_MODE_AF_PP;
 8000a46:	187b      	adds	r3, r7, r1
 8000a48:	2202      	movs	r2, #2
 8000a4a:	605a      	str	r2, [r3, #4]
    GPIO_InitStruct.Pull = GPIO_NOPULL;
 8000a4c:	187b      	adds	r3, r7, r1
 8000a4e:	2200      	movs	r2, #0
 8000a50:	609a      	str	r2, [r3, #8]
    GPIO_InitStruct.Speed = GPIO_SPEED_FREQ_LOW;
 8000a52:	187b      	adds	r3, r7, r1
 8000a54:	2200      	movs	r2, #0
 8000a56:	60da      	str	r2, [r3, #12]
    GPIO_InitStruct.Alternate = GPIO_AF2_TIM2;
 8000a58:	187b      	adds	r3, r7, r1
 8000a5a:	2202      	movs	r2, #2
 8000a5c:	611a      	str	r2, [r3, #16]
    HAL_GPIO_Init(GPIOB, &GPIO_InitStruct);
 8000a5e:	187b      	adds	r3, r7, r1
 8000a60:	4a1b      	ldr	r2, [pc, #108]	; (8000ad0 <HAL_TIM_MspPostInit+0x178>)
 8000a62:	0019      	movs	r1, r3
 8000a64:	0010      	movs	r0, r2
 8000a66:	f000 f99b 	bl	8000da0 <HAL_GPIO_Init>
}
 8000a6a:	e028      	b.n	8000abe <HAL_TIM_MspPostInit+0x166>
  else if(timHandle->Instance==TIM3)
 8000a6c:	687b      	ldr	r3, [r7, #4]
 8000a6e:	681b      	ldr	r3, [r3, #0]
 8000a70:	4a18      	ldr	r2, [pc, #96]	; (8000ad4 <HAL_TIM_MspPostInit+0x17c>)
 8000a72:	4293      	cmp	r3, r2
 8000a74:	d123      	bne.n	8000abe <HAL_TIM_MspPostInit+0x166>
    __HAL_RCC_GPIOB_CLK_ENABLE();
 8000a76:	4b15      	ldr	r3, [pc, #84]	; (8000acc <HAL_TIM_MspPostInit+0x174>)
 8000a78:	695a      	ldr	r2, [r3, #20]
 8000a7a:	4b14      	ldr	r3, [pc, #80]	; (8000acc <HAL_TIM_MspPostInit+0x174>)
 8000a7c:	2180      	movs	r1, #128	; 0x80
 8000a7e:	02c9      	lsls	r1, r1, #11
 8000a80:	430a      	orrs	r2, r1
 8000a82:	615a      	str	r2, [r3, #20]
 8000a84:	4b11      	ldr	r3, [pc, #68]	; (8000acc <HAL_TIM_MspPostInit+0x174>)
 8000a86:	695a      	ldr	r2, [r3, #20]
 8000a88:	2380      	movs	r3, #128	; 0x80
 8000a8a:	02db      	lsls	r3, r3, #11
 8000a8c:	4013      	ands	r3, r2
 8000a8e:	60fb      	str	r3, [r7, #12]
 8000a90:	68fb      	ldr	r3, [r7, #12]
    GPIO_InitStruct.Pin = GPIO_PIN_0|GPIO_PIN_1|GPIO_PIN_4|GPIO_PIN_5;
 8000a92:	211c      	movs	r1, #28
 8000a94:	187b      	adds	r3, r7, r1
 8000a96:	2233      	movs	r2, #51	; 0x33
 8000a98:	601a      	str	r2, [r3, #0]
    GPIO_InitStruct.Mode = GPIO_MODE_AF_PP;
 8000a9a:	187b      	adds	r3, r7, r1
 8000a9c:	2202      	movs	r2, #2
 8000a9e:	605a      	str	r2, [r3, #4]
    GPIO_InitStruct.Pull = GPIO_NOPULL;
 8000aa0:	187b      	adds	r3, r7, r1
 8000aa2:	2200      	movs	r2, #0
 8000aa4:	609a      	str	r2, [r3, #8]
    GPIO_InitStruct.Speed = GPIO_SPEED_FREQ_LOW;
 8000aa6:	187b      	adds	r3, r7, r1
 8000aa8:	2200      	movs	r2, #0
 8000aaa:	60da      	str	r2, [r3, #12]
    GPIO_InitStruct.Alternate = GPIO_AF1_TIM3;
 8000aac:	187b      	adds	r3, r7, r1
 8000aae:	2201      	movs	r2, #1
 8000ab0:	611a      	str	r2, [r3, #16]
    HAL_GPIO_Init(GPIOB, &GPIO_InitStruct);
 8000ab2:	187b      	adds	r3, r7, r1
 8000ab4:	4a06      	ldr	r2, [pc, #24]	; (8000ad0 <HAL_TIM_MspPostInit+0x178>)
 8000ab6:	0019      	movs	r1, r3
 8000ab8:	0010      	movs	r0, r2
 8000aba:	f000 f971 	bl	8000da0 <HAL_GPIO_Init>
}
 8000abe:	46c0      	nop			; (mov r8, r8)
 8000ac0:	46bd      	mov	sp, r7
 8000ac2:	b00d      	add	sp, #52	; 0x34
 8000ac4:	bd90      	pop	{r4, r7, pc}
 8000ac6:	46c0      	nop			; (mov r8, r8)
 8000ac8:	40012c00 	.word	0x40012c00
 8000acc:	40021000 	.word	0x40021000
 8000ad0:	48000400 	.word	0x48000400
 8000ad4:	40000400 	.word	0x40000400

08000ad8 <Reset_Handler>:

  .section .text.Reset_Handler
  .weak Reset_Handler
  .type Reset_Handler, %function
Reset_Handler:
  ldr   r0, =_estack
 8000ad8:	480d      	ldr	r0, [pc, #52]	; (8000b10 <LoopForever+0x2>)
  mov   sp, r0          /* set stack pointer */
 8000ada:	4685      	mov	sp, r0

/* Copy the data segment initializers from flash to SRAM */
  ldr r0, =_sdata
 8000adc:	480d      	ldr	r0, [pc, #52]	; (8000b14 <LoopForever+0x6>)
  ldr r1, =_edata
 8000ade:	490e      	ldr	r1, [pc, #56]	; (8000b18 <LoopForever+0xa>)
  ldr r2, =_sidata
 8000ae0:	4a0e      	ldr	r2, [pc, #56]	; (8000b1c <LoopForever+0xe>)
  movs r3, #0
 8000ae2:	2300      	movs	r3, #0
  b LoopCopyDataInit
 8000ae4:	e002      	b.n	8000aec <LoopCopyDataInit>

08000ae6 <CopyDataInit>:

CopyDataInit:
  ldr r4, [r2, r3]
 8000ae6:	58d4      	ldr	r4, [r2, r3]
  str r4, [r0, r3]
 8000ae8:	50c4      	str	r4, [r0, r3]
  adds r3, r3, #4
 8000aea:	3304      	adds	r3, #4

08000aec <LoopCopyDataInit>:

LoopCopyDataInit:
  adds r4, r0, r3
 8000aec:	18c4      	adds	r4, r0, r3
  cmp r4, r1
 8000aee:	428c      	cmp	r4, r1
  bcc CopyDataInit
 8000af0:	d3f9      	bcc.n	8000ae6 <CopyDataInit>
  
/* Zero fill the bss segment. */
  ldr r2, =_sbss
 8000af2:	4a0b      	ldr	r2, [pc, #44]	; (8000b20 <LoopForever+0x12>)
  ldr r4, =_ebss
 8000af4:	4c0b      	ldr	r4, [pc, #44]	; (8000b24 <LoopForever+0x16>)
  movs r3, #0
 8000af6:	2300      	movs	r3, #0
  b LoopFillZerobss
 8000af8:	e001      	b.n	8000afe <LoopFillZerobss>

08000afa <FillZerobss>:

FillZerobss:
  str  r3, [r2]
 8000afa:	6013      	str	r3, [r2, #0]
  adds r2, r2, #4
 8000afc:	3204      	adds	r2, #4

08000afe <LoopFillZerobss>:

LoopFillZerobss:
  cmp r2, r4
 8000afe:	42a2      	cmp	r2, r4
  bcc FillZerobss
 8000b00:	d3fb      	bcc.n	8000afa <FillZerobss>

/* Call the clock system intitialization function.*/
  bl  SystemInit
 8000b02:	f7ff fd24 	bl	800054e <SystemInit>
/* Call static constructors */
  bl __libc_init_array
 8000b06:	f001 fd19 	bl	800253c <__libc_init_array>
/* Call the application's entry point.*/
  bl main
 8000b0a:	f7ff fc09 	bl	8000320 <main>

08000b0e <LoopForever>:

LoopForever:
    b LoopForever
 8000b0e:	e7fe      	b.n	8000b0e <LoopForever>
  ldr   r0, =_estack
 8000b10:	20002000 	.word	0x20002000
  ldr r0, =_sdata
 8000b14:	20000000 	.word	0x20000000
  ldr r1, =_edata
 8000b18:	20000018 	.word	0x20000018
  ldr r2, =_sidata
 8000b1c:	080025e4 	.word	0x080025e4
  ldr r2, =_sbss
 8000b20:	20000018 	.word	0x20000018
  ldr r4, =_ebss
 8000b24:	200000f8 	.word	0x200000f8

08000b28 <ADC1_COMP_IRQHandler>:
 * @retval : None
*/
    .section .text.Default_Handler,"ax",%progbits
Default_Handler:
Infinite_Loop:
  b Infinite_Loop
 8000b28:	e7fe      	b.n	8000b28 <ADC1_COMP_IRQHandler>
	...

08000b2c <HAL_Init>:
  *       In the default implementation,Systick is used as source of time base.
  *       The tick variable is incremented each 1ms in its ISR.
  * @retval HAL status
  */
HAL_StatusTypeDef HAL_Init(void)
{
 8000b2c:	b580      	push	{r7, lr}
 8000b2e:	af00      	add	r7, sp, #0
  /* Configure Flash prefetch */ 
#if (PREFETCH_ENABLE != 0)
  __HAL_FLASH_PREFETCH_BUFFER_ENABLE();
 8000b30:	4b07      	ldr	r3, [pc, #28]	; (8000b50 <HAL_Init+0x24>)
 8000b32:	681a      	ldr	r2, [r3, #0]
 8000b34:	4b06      	ldr	r3, [pc, #24]	; (8000b50 <HAL_Init+0x24>)
 8000b36:	2110      	movs	r1, #16
 8000b38:	430a      	orrs	r2, r1
 8000b3a:	601a      	str	r2, [r3, #0]
#endif /* PREFETCH_ENABLE */

  /* Use systick as time base source and configure 1ms tick (default clock after Reset is HSI) */

  HAL_InitTick(TICK_INT_PRIORITY);
 8000b3c:	2000      	movs	r0, #0
 8000b3e:	f000 f809 	bl	8000b54 <HAL_InitTick>

  /* Init the low level hardware */
  HAL_MspInit();
 8000b42:	f7ff fcc7 	bl	80004d4 <HAL_MspInit>

  /* Return function status */
  return HAL_OK;
 8000b46:	2300      	movs	r3, #0
}
 8000b48:	0018      	movs	r0, r3
 8000b4a:	46bd      	mov	sp, r7
 8000b4c:	bd80      	pop	{r7, pc}
 8000b4e:	46c0      	nop			; (mov r8, r8)
 8000b50:	40022000 	.word	0x40022000

08000b54 <HAL_InitTick>:
  *       implementation  in user file.
  * @param TickPriority Tick interrupt priority.
  * @retval HAL status
  */
__weak HAL_StatusTypeDef HAL_InitTick(uint32_t TickPriority)
{
 8000b54:	b590      	push	{r4, r7, lr}
 8000b56:	b083      	sub	sp, #12
 8000b58:	af00      	add	r7, sp, #0
 8000b5a:	6078      	str	r0, [r7, #4]
  /*Configure the SysTick to have interrupt in 1ms time basis*/
  if (HAL_SYSTICK_Config(SystemCoreClock / (1000U / uwTickFreq)) > 0U)
 8000b5c:	4b14      	ldr	r3, [pc, #80]	; (8000bb0 <HAL_InitTick+0x5c>)
 8000b5e:	681c      	ldr	r4, [r3, #0]
 8000b60:	4b14      	ldr	r3, [pc, #80]	; (8000bb4 <HAL_InitTick+0x60>)
 8000b62:	781b      	ldrb	r3, [r3, #0]
 8000b64:	0019      	movs	r1, r3
 8000b66:	23fa      	movs	r3, #250	; 0xfa
 8000b68:	0098      	lsls	r0, r3, #2
 8000b6a:	f7ff facd 	bl	8000108 <__udivsi3>
 8000b6e:	0003      	movs	r3, r0
 8000b70:	0019      	movs	r1, r3
 8000b72:	0020      	movs	r0, r4
 8000b74:	f7ff fac8 	bl	8000108 <__udivsi3>
 8000b78:	0003      	movs	r3, r0
 8000b7a:	0018      	movs	r0, r3
 8000b7c:	f000 f903 	bl	8000d86 <HAL_SYSTICK_Config>
 8000b80:	1e03      	subs	r3, r0, #0
 8000b82:	d001      	beq.n	8000b88 <HAL_InitTick+0x34>
  {
    return HAL_ERROR;
 8000b84:	2301      	movs	r3, #1
 8000b86:	e00f      	b.n	8000ba8 <HAL_InitTick+0x54>
  }

  /* Configure the SysTick IRQ priority */
  if (TickPriority < (1UL << __NVIC_PRIO_BITS))
 8000b88:	687b      	ldr	r3, [r7, #4]
 8000b8a:	2b03      	cmp	r3, #3
 8000b8c:	d80b      	bhi.n	8000ba6 <HAL_InitTick+0x52>
  {
    HAL_NVIC_SetPriority(SysTick_IRQn, TickPriority, 0U);
 8000b8e:	6879      	ldr	r1, [r7, #4]
 8000b90:	2301      	movs	r3, #1
 8000b92:	425b      	negs	r3, r3
 8000b94:	2200      	movs	r2, #0
 8000b96:	0018      	movs	r0, r3
 8000b98:	f000 f8e0 	bl	8000d5c <HAL_NVIC_SetPriority>
    uwTickPrio = TickPriority;
 8000b9c:	4b06      	ldr	r3, [pc, #24]	; (8000bb8 <HAL_InitTick+0x64>)
 8000b9e:	687a      	ldr	r2, [r7, #4]
 8000ba0:	601a      	str	r2, [r3, #0]
  {
    return HAL_ERROR;
  }

   /* Return function status */
  return HAL_OK;
 8000ba2:	2300      	movs	r3, #0
 8000ba4:	e000      	b.n	8000ba8 <HAL_InitTick+0x54>
    return HAL_ERROR;
 8000ba6:	2301      	movs	r3, #1
}
 8000ba8:	0018      	movs	r0, r3
 8000baa:	46bd      	mov	sp, r7
 8000bac:	b003      	add	sp, #12
 8000bae:	bd90      	pop	{r4, r7, pc}
 8000bb0:	2000000c 	.word	0x2000000c
 8000bb4:	20000014 	.word	0x20000014
 8000bb8:	20000010 	.word	0x20000010

08000bbc <HAL_IncTick>:
  * @note This function is declared as __weak to be overwritten in case of other 
  *       implementations in user file.
  * @retval None
  */
__weak void HAL_IncTick(void)
{
 8000bbc:	b580      	push	{r7, lr}
 8000bbe:	af00      	add	r7, sp, #0
  uwTick += uwTickFreq;
 8000bc0:	4b05      	ldr	r3, [pc, #20]	; (8000bd8 <HAL_IncTick+0x1c>)
 8000bc2:	781b      	ldrb	r3, [r3, #0]
 8000bc4:	001a      	movs	r2, r3
 8000bc6:	4b05      	ldr	r3, [pc, #20]	; (8000bdc <HAL_IncTick+0x20>)
 8000bc8:	681b      	ldr	r3, [r3, #0]
 8000bca:	18d2      	adds	r2, r2, r3
 8000bcc:	4b03      	ldr	r3, [pc, #12]	; (8000bdc <HAL_IncTick+0x20>)
 8000bce:	601a      	str	r2, [r3, #0]
}
 8000bd0:	46c0      	nop			; (mov r8, r8)
 8000bd2:	46bd      	mov	sp, r7
 8000bd4:	bd80      	pop	{r7, pc}
 8000bd6:	46c0      	nop			; (mov r8, r8)
 8000bd8:	20000014 	.word	0x20000014
 8000bdc:	200000f4 	.word	0x200000f4

08000be0 <HAL_GetTick>:
  * @note   This function is declared as __weak  to be overwritten  in case of other 
  *       implementations in user file.
  * @retval tick value
  */
__weak uint32_t HAL_GetTick(void)
{
 8000be0:	b580      	push	{r7, lr}
 8000be2:	af00      	add	r7, sp, #0
  return uwTick;
 8000be4:	4b02      	ldr	r3, [pc, #8]	; (8000bf0 <HAL_GetTick+0x10>)
 8000be6:	681b      	ldr	r3, [r3, #0]
}
 8000be8:	0018      	movs	r0, r3
 8000bea:	46bd      	mov	sp, r7
 8000bec:	bd80      	pop	{r7, pc}
 8000bee:	46c0      	nop			; (mov r8, r8)
 8000bf0:	200000f4 	.word	0x200000f4

08000bf4 <HAL_Delay>:
  *       implementations in user file.
  * @param Delay specifies the delay time length, in milliseconds.
  * @retval None
  */
__weak void HAL_Delay(uint32_t Delay)
{
 8000bf4:	b580      	push	{r7, lr}
 8000bf6:	b084      	sub	sp, #16
 8000bf8:	af00      	add	r7, sp, #0
 8000bfa:	6078      	str	r0, [r7, #4]
  uint32_t tickstart = HAL_GetTick();
 8000bfc:	f7ff fff0 	bl	8000be0 <HAL_GetTick>
 8000c00:	0003      	movs	r3, r0
 8000c02:	60bb      	str	r3, [r7, #8]
  uint32_t wait = Delay;
 8000c04:	687b      	ldr	r3, [r7, #4]
 8000c06:	60fb      	str	r3, [r7, #12]
  
  /* Add a freq to guarantee minimum wait */
  if (wait < HAL_MAX_DELAY)
 8000c08:	68fb      	ldr	r3, [r7, #12]
 8000c0a:	3301      	adds	r3, #1
 8000c0c:	d005      	beq.n	8000c1a <HAL_Delay+0x26>
  {
    wait += (uint32_t)(uwTickFreq);
 8000c0e:	4b09      	ldr	r3, [pc, #36]	; (8000c34 <HAL_Delay+0x40>)
 8000c10:	781b      	ldrb	r3, [r3, #0]
 8000c12:	001a      	movs	r2, r3
 8000c14:	68fb      	ldr	r3, [r7, #12]
 8000c16:	189b      	adds	r3, r3, r2
 8000c18:	60fb      	str	r3, [r7, #12]
  }
  
  while((HAL_GetTick() - tickstart) < wait)
 8000c1a:	46c0      	nop			; (mov r8, r8)
 8000c1c:	f7ff ffe0 	bl	8000be0 <HAL_GetTick>
 8000c20:	0002      	movs	r2, r0
 8000c22:	68bb      	ldr	r3, [r7, #8]
 8000c24:	1ad3      	subs	r3, r2, r3
 8000c26:	68fa      	ldr	r2, [r7, #12]
 8000c28:	429a      	cmp	r2, r3
 8000c2a:	d8f7      	bhi.n	8000c1c <HAL_Delay+0x28>
  {
  }
}
 8000c2c:	46c0      	nop			; (mov r8, r8)
 8000c2e:	46bd      	mov	sp, r7
 8000c30:	b004      	add	sp, #16
 8000c32:	bd80      	pop	{r7, pc}
 8000c34:	20000014 	.word	0x20000014

08000c38 <__NVIC_SetPriority>:
  \param [in]      IRQn  Interrupt number.
  \param [in]  priority  Priority to set.
  \note    The priority cannot be set for every processor exception.
 */
__STATIC_INLINE void __NVIC_SetPriority(IRQn_Type IRQn, uint32_t priority)
{
 8000c38:	b590      	push	{r4, r7, lr}
 8000c3a:	b083      	sub	sp, #12
 8000c3c:	af00      	add	r7, sp, #0
 8000c3e:	0002      	movs	r2, r0
 8000c40:	6039      	str	r1, [r7, #0]
 8000c42:	1dfb      	adds	r3, r7, #7
 8000c44:	701a      	strb	r2, [r3, #0]
  if ((int32_t)(IRQn) >= 0)
 8000c46:	1dfb      	adds	r3, r7, #7
 8000c48:	781b      	ldrb	r3, [r3, #0]
 8000c4a:	2b7f      	cmp	r3, #127	; 0x7f
 8000c4c:	d828      	bhi.n	8000ca0 <__NVIC_SetPriority+0x68>
  {
    NVIC->IP[_IP_IDX(IRQn)]  = ((uint32_t)(NVIC->IP[_IP_IDX(IRQn)]  & ~(0xFFUL << _BIT_SHIFT(IRQn))) |
 8000c4e:	4a2f      	ldr	r2, [pc, #188]	; (8000d0c <__NVIC_SetPriority+0xd4>)
 8000c50:	1dfb      	adds	r3, r7, #7
 8000c52:	781b      	ldrb	r3, [r3, #0]
 8000c54:	b25b      	sxtb	r3, r3
 8000c56:	089b      	lsrs	r3, r3, #2
 8000c58:	33c0      	adds	r3, #192	; 0xc0
 8000c5a:	009b      	lsls	r3, r3, #2
 8000c5c:	589b      	ldr	r3, [r3, r2]
 8000c5e:	1dfa      	adds	r2, r7, #7
 8000c60:	7812      	ldrb	r2, [r2, #0]
 8000c62:	0011      	movs	r1, r2
 8000c64:	2203      	movs	r2, #3
 8000c66:	400a      	ands	r2, r1
 8000c68:	00d2      	lsls	r2, r2, #3
 8000c6a:	21ff      	movs	r1, #255	; 0xff
 8000c6c:	4091      	lsls	r1, r2
 8000c6e:	000a      	movs	r2, r1
 8000c70:	43d2      	mvns	r2, r2
 8000c72:	401a      	ands	r2, r3
 8000c74:	0011      	movs	r1, r2
       (((priority << (8U - __NVIC_PRIO_BITS)) & (uint32_t)0xFFUL) << _BIT_SHIFT(IRQn)));
 8000c76:	683b      	ldr	r3, [r7, #0]
 8000c78:	019b      	lsls	r3, r3, #6
 8000c7a:	22ff      	movs	r2, #255	; 0xff
 8000c7c:	401a      	ands	r2, r3
 8000c7e:	1dfb      	adds	r3, r7, #7
 8000c80:	781b      	ldrb	r3, [r3, #0]
 8000c82:	0018      	movs	r0, r3
 8000c84:	2303      	movs	r3, #3
 8000c86:	4003      	ands	r3, r0
 8000c88:	00db      	lsls	r3, r3, #3
 8000c8a:	409a      	lsls	r2, r3
    NVIC->IP[_IP_IDX(IRQn)]  = ((uint32_t)(NVIC->IP[_IP_IDX(IRQn)]  & ~(0xFFUL << _BIT_SHIFT(IRQn))) |
 8000c8c:	481f      	ldr	r0, [pc, #124]	; (8000d0c <__NVIC_SetPriority+0xd4>)
 8000c8e:	1dfb      	adds	r3, r7, #7
 8000c90:	781b      	ldrb	r3, [r3, #0]
 8000c92:	b25b      	sxtb	r3, r3
 8000c94:	089b      	lsrs	r3, r3, #2
 8000c96:	430a      	orrs	r2, r1
 8000c98:	33c0      	adds	r3, #192	; 0xc0
 8000c9a:	009b      	lsls	r3, r3, #2
 8000c9c:	501a      	str	r2, [r3, r0]
  else
  {
    SCB->SHP[_SHP_IDX(IRQn)] = ((uint32_t)(SCB->SHP[_SHP_IDX(IRQn)] & ~(0xFFUL << _BIT_SHIFT(IRQn))) |
       (((priority << (8U - __NVIC_PRIO_BITS)) & (uint32_t)0xFFUL) << _BIT_SHIFT(IRQn)));
  }
}
 8000c9e:	e031      	b.n	8000d04 <__NVIC_SetPriority+0xcc>
    SCB->SHP[_SHP_IDX(IRQn)] = ((uint32_t)(SCB->SHP[_SHP_IDX(IRQn)] & ~(0xFFUL << _BIT_SHIFT(IRQn))) |
 8000ca0:	4a1b      	ldr	r2, [pc, #108]	; (8000d10 <__NVIC_SetPriority+0xd8>)
 8000ca2:	1dfb      	adds	r3, r7, #7
 8000ca4:	781b      	ldrb	r3, [r3, #0]
 8000ca6:	0019      	movs	r1, r3
 8000ca8:	230f      	movs	r3, #15
 8000caa:	400b      	ands	r3, r1
 8000cac:	3b08      	subs	r3, #8
 8000cae:	089b      	lsrs	r3, r3, #2
 8000cb0:	3306      	adds	r3, #6
 8000cb2:	009b      	lsls	r3, r3, #2
 8000cb4:	18d3      	adds	r3, r2, r3
 8000cb6:	3304      	adds	r3, #4
 8000cb8:	681b      	ldr	r3, [r3, #0]
 8000cba:	1dfa      	adds	r2, r7, #7
 8000cbc:	7812      	ldrb	r2, [r2, #0]
 8000cbe:	0011      	movs	r1, r2
 8000cc0:	2203      	movs	r2, #3
 8000cc2:	400a      	ands	r2, r1
 8000cc4:	00d2      	lsls	r2, r2, #3
 8000cc6:	21ff      	movs	r1, #255	; 0xff
 8000cc8:	4091      	lsls	r1, r2
 8000cca:	000a      	movs	r2, r1
 8000ccc:	43d2      	mvns	r2, r2
 8000cce:	401a      	ands	r2, r3
 8000cd0:	0011      	movs	r1, r2
       (((priority << (8U - __NVIC_PRIO_BITS)) & (uint32_t)0xFFUL) << _BIT_SHIFT(IRQn)));
 8000cd2:	683b      	ldr	r3, [r7, #0]
 8000cd4:	019b      	lsls	r3, r3, #6
 8000cd6:	22ff      	movs	r2, #255	; 0xff
 8000cd8:	401a      	ands	r2, r3
 8000cda:	1dfb      	adds	r3, r7, #7
 8000cdc:	781b      	ldrb	r3, [r3, #0]
 8000cde:	0018      	movs	r0, r3
 8000ce0:	2303      	movs	r3, #3
 8000ce2:	4003      	ands	r3, r0
 8000ce4:	00db      	lsls	r3, r3, #3
 8000ce6:	409a      	lsls	r2, r3
    SCB->SHP[_SHP_IDX(IRQn)] = ((uint32_t)(SCB->SHP[_SHP_IDX(IRQn)] & ~(0xFFUL << _BIT_SHIFT(IRQn))) |
 8000ce8:	4809      	ldr	r0, [pc, #36]	; (8000d10 <__NVIC_SetPriority+0xd8>)
 8000cea:	1dfb      	adds	r3, r7, #7
 8000cec:	781b      	ldrb	r3, [r3, #0]
 8000cee:	001c      	movs	r4, r3
 8000cf0:	230f      	movs	r3, #15
 8000cf2:	4023      	ands	r3, r4
 8000cf4:	3b08      	subs	r3, #8
 8000cf6:	089b      	lsrs	r3, r3, #2
 8000cf8:	430a      	orrs	r2, r1
 8000cfa:	3306      	adds	r3, #6
 8000cfc:	009b      	lsls	r3, r3, #2
 8000cfe:	18c3      	adds	r3, r0, r3
 8000d00:	3304      	adds	r3, #4
 8000d02:	601a      	str	r2, [r3, #0]
}
 8000d04:	46c0      	nop			; (mov r8, r8)
 8000d06:	46bd      	mov	sp, r7
 8000d08:	b003      	add	sp, #12
 8000d0a:	bd90      	pop	{r4, r7, pc}
 8000d0c:	e000e100 	.word	0xe000e100
 8000d10:	e000ed00 	.word	0xe000ed00

08000d14 <SysTick_Config>:
  \note    When the variable <b>__Vendor_SysTickConfig</b> is set to 1, then the
           function <b>SysTick_Config</b> is not included. In this case, the file <b><i>device</i>.h</b>
           must contain a vendor-specific implementation of this function.
 */
__STATIC_INLINE uint32_t SysTick_Config(uint32_t ticks)
{
 8000d14:	b580      	push	{r7, lr}
 8000d16:	b082      	sub	sp, #8
 8000d18:	af00      	add	r7, sp, #0
 8000d1a:	6078      	str	r0, [r7, #4]
  if ((ticks - 1UL) > SysTick_LOAD_RELOAD_Msk)
 8000d1c:	687b      	ldr	r3, [r7, #4]
 8000d1e:	3b01      	subs	r3, #1
 8000d20:	4a0c      	ldr	r2, [pc, #48]	; (8000d54 <SysTick_Config+0x40>)
 8000d22:	4293      	cmp	r3, r2
 8000d24:	d901      	bls.n	8000d2a <SysTick_Config+0x16>
  {
    return (1UL);                                                   /* Reload value impossible */
 8000d26:	2301      	movs	r3, #1
 8000d28:	e010      	b.n	8000d4c <SysTick_Config+0x38>
  }

  SysTick->LOAD  = (uint32_t)(ticks - 1UL);                         /* set reload register */
 8000d2a:	4b0b      	ldr	r3, [pc, #44]	; (8000d58 <SysTick_Config+0x44>)
 8000d2c:	687a      	ldr	r2, [r7, #4]
 8000d2e:	3a01      	subs	r2, #1
 8000d30:	605a      	str	r2, [r3, #4]
  NVIC_SetPriority (SysTick_IRQn, (1UL << __NVIC_PRIO_BITS) - 1UL); /* set Priority for Systick Interrupt */
 8000d32:	2301      	movs	r3, #1
 8000d34:	425b      	negs	r3, r3
 8000d36:	2103      	movs	r1, #3
 8000d38:	0018      	movs	r0, r3
 8000d3a:	f7ff ff7d 	bl	8000c38 <__NVIC_SetPriority>
  SysTick->VAL   = 0UL;                                             /* Load the SysTick Counter Value */
 8000d3e:	4b06      	ldr	r3, [pc, #24]	; (8000d58 <SysTick_Config+0x44>)
 8000d40:	2200      	movs	r2, #0
 8000d42:	609a      	str	r2, [r3, #8]
  SysTick->CTRL  = SysTick_CTRL_CLKSOURCE_Msk |
 8000d44:	4b04      	ldr	r3, [pc, #16]	; (8000d58 <SysTick_Config+0x44>)
 8000d46:	2207      	movs	r2, #7
 8000d48:	601a      	str	r2, [r3, #0]
                   SysTick_CTRL_TICKINT_Msk   |
                   SysTick_CTRL_ENABLE_Msk;                         /* Enable SysTick IRQ and SysTick Timer */
  return (0UL);                                                     /* Function successful */
 8000d4a:	2300      	movs	r3, #0
}
 8000d4c:	0018      	movs	r0, r3
 8000d4e:	46bd      	mov	sp, r7
 8000d50:	b002      	add	sp, #8
 8000d52:	bd80      	pop	{r7, pc}
 8000d54:	00ffffff 	.word	0x00ffffff
 8000d58:	e000e010 	.word	0xe000e010

08000d5c <HAL_NVIC_SetPriority>:
  *         with stm32f0xx devices, this parameter is a dummy value and it is ignored, because 
  *         no subpriority supported in Cortex M0 based products.   
  * @retval None
  */
void HAL_NVIC_SetPriority(IRQn_Type IRQn, uint32_t PreemptPriority, uint32_t SubPriority)
{ 
 8000d5c:	b580      	push	{r7, lr}
 8000d5e:	b084      	sub	sp, #16
 8000d60:	af00      	add	r7, sp, #0
 8000d62:	60b9      	str	r1, [r7, #8]
 8000d64:	607a      	str	r2, [r7, #4]
 8000d66:	210f      	movs	r1, #15
 8000d68:	187b      	adds	r3, r7, r1
 8000d6a:	1c02      	adds	r2, r0, #0
 8000d6c:	701a      	strb	r2, [r3, #0]
  /* Check the parameters */
  assert_param(IS_NVIC_PREEMPTION_PRIORITY(PreemptPriority));
  NVIC_SetPriority(IRQn,PreemptPriority);
 8000d6e:	68ba      	ldr	r2, [r7, #8]
 8000d70:	187b      	adds	r3, r7, r1
 8000d72:	781b      	ldrb	r3, [r3, #0]
 8000d74:	b25b      	sxtb	r3, r3
 8000d76:	0011      	movs	r1, r2
 8000d78:	0018      	movs	r0, r3
 8000d7a:	f7ff ff5d 	bl	8000c38 <__NVIC_SetPriority>
}
 8000d7e:	46c0      	nop			; (mov r8, r8)
 8000d80:	46bd      	mov	sp, r7
 8000d82:	b004      	add	sp, #16
 8000d84:	bd80      	pop	{r7, pc}

08000d86 <HAL_SYSTICK_Config>:
  * @param  TicksNumb Specifies the ticks Number of ticks between two interrupts.
  * @retval status:  - 0  Function succeeded.
  *                  - 1  Function failed.
  */
uint32_t HAL_SYSTICK_Config(uint32_t TicksNumb)
{
 8000d86:	b580      	push	{r7, lr}
 8000d88:	b082      	sub	sp, #8
 8000d8a:	af00      	add	r7, sp, #0
 8000d8c:	6078      	str	r0, [r7, #4]
   return SysTick_Config(TicksNumb);
 8000d8e:	687b      	ldr	r3, [r7, #4]
 8000d90:	0018      	movs	r0, r3
 8000d92:	f7ff ffbf 	bl	8000d14 <SysTick_Config>
 8000d96:	0003      	movs	r3, r0
}
 8000d98:	0018      	movs	r0, r3
 8000d9a:	46bd      	mov	sp, r7
 8000d9c:	b002      	add	sp, #8
 8000d9e:	bd80      	pop	{r7, pc}

08000da0 <HAL_GPIO_Init>:
  * @param  GPIO_Init pointer to a GPIO_InitTypeDef structure that contains
  *         the configuration information for the specified GPIO peripheral.
  * @retval None
  */
void HAL_GPIO_Init(GPIO_TypeDef  *GPIOx, GPIO_InitTypeDef *GPIO_Init)
{ 
 8000da0:	b580      	push	{r7, lr}
 8000da2:	b086      	sub	sp, #24
 8000da4:	af00      	add	r7, sp, #0
 8000da6:	6078      	str	r0, [r7, #4]
 8000da8:	6039      	str	r1, [r7, #0]
  uint32_t position = 0x00u;
 8000daa:	2300      	movs	r3, #0
 8000dac:	617b      	str	r3, [r7, #20]
  assert_param(IS_GPIO_PIN(GPIO_Init->Pin));
  assert_param(IS_GPIO_MODE(GPIO_Init->Mode));
  assert_param(IS_GPIO_PULL(GPIO_Init->Pull));

  /* Configure the port pins */
  while (((GPIO_Init->Pin) >> position) != 0x00u)
 8000dae:	e14f      	b.n	8001050 <HAL_GPIO_Init+0x2b0>
  {
    /* Get current io position */
    iocurrent = (GPIO_Init->Pin) & (1uL << position);
 8000db0:	683b      	ldr	r3, [r7, #0]
 8000db2:	681b      	ldr	r3, [r3, #0]
 8000db4:	2101      	movs	r1, #1
 8000db6:	697a      	ldr	r2, [r7, #20]
 8000db8:	4091      	lsls	r1, r2
 8000dba:	000a      	movs	r2, r1
 8000dbc:	4013      	ands	r3, r2
 8000dbe:	60fb      	str	r3, [r7, #12]

    if (iocurrent != 0x00u)
 8000dc0:	68fb      	ldr	r3, [r7, #12]
 8000dc2:	2b00      	cmp	r3, #0
 8000dc4:	d100      	bne.n	8000dc8 <HAL_GPIO_Init+0x28>
 8000dc6:	e140      	b.n	800104a <HAL_GPIO_Init+0x2aa>
    {
      /*--------------------- GPIO Mode Configuration ------------------------*/
      /* In case of Alternate function mode selection */
      if((GPIO_Init->Mode == GPIO_MODE_AF_PP) || (GPIO_Init->Mode == GPIO_MODE_AF_OD))
 8000dc8:	683b      	ldr	r3, [r7, #0]
 8000dca:	685b      	ldr	r3, [r3, #4]
 8000dcc:	2b02      	cmp	r3, #2
 8000dce:	d003      	beq.n	8000dd8 <HAL_GPIO_Init+0x38>
 8000dd0:	683b      	ldr	r3, [r7, #0]
 8000dd2:	685b      	ldr	r3, [r3, #4]
 8000dd4:	2b12      	cmp	r3, #18
 8000dd6:	d123      	bne.n	8000e20 <HAL_GPIO_Init+0x80>
        /* Check the Alternate function parameters */
        assert_param(IS_GPIO_AF_INSTANCE(GPIOx));
        assert_param(IS_GPIO_AF(GPIO_Init->Alternate));

        /* Configure Alternate function mapped with the current IO */
        temp = GPIOx->AFR[position >> 3u];
 8000dd8:	697b      	ldr	r3, [r7, #20]
 8000dda:	08da      	lsrs	r2, r3, #3
 8000ddc:	687b      	ldr	r3, [r7, #4]
 8000dde:	3208      	adds	r2, #8
 8000de0:	0092      	lsls	r2, r2, #2
 8000de2:	58d3      	ldr	r3, [r2, r3]
 8000de4:	613b      	str	r3, [r7, #16]
        temp &= ~(0xFu << ((position & 0x07u) * 4u));
 8000de6:	697b      	ldr	r3, [r7, #20]
 8000de8:	2207      	movs	r2, #7
 8000dea:	4013      	ands	r3, r2
 8000dec:	009b      	lsls	r3, r3, #2
 8000dee:	220f      	movs	r2, #15
 8000df0:	409a      	lsls	r2, r3
 8000df2:	0013      	movs	r3, r2
 8000df4:	43da      	mvns	r2, r3
 8000df6:	693b      	ldr	r3, [r7, #16]
 8000df8:	4013      	ands	r3, r2
 8000dfa:	613b      	str	r3, [r7, #16]
        temp |= ((GPIO_Init->Alternate) << ((position & 0x07u) * 4u));
 8000dfc:	683b      	ldr	r3, [r7, #0]
 8000dfe:	691a      	ldr	r2, [r3, #16]
 8000e00:	697b      	ldr	r3, [r7, #20]
 8000e02:	2107      	movs	r1, #7
 8000e04:	400b      	ands	r3, r1
 8000e06:	009b      	lsls	r3, r3, #2
 8000e08:	409a      	lsls	r2, r3
 8000e0a:	0013      	movs	r3, r2
 8000e0c:	693a      	ldr	r2, [r7, #16]
 8000e0e:	4313      	orrs	r3, r2
 8000e10:	613b      	str	r3, [r7, #16]
        GPIOx->AFR[position >> 3u] = temp;
 8000e12:	697b      	ldr	r3, [r7, #20]
 8000e14:	08da      	lsrs	r2, r3, #3
 8000e16:	687b      	ldr	r3, [r7, #4]
 8000e18:	3208      	adds	r2, #8
 8000e1a:	0092      	lsls	r2, r2, #2
 8000e1c:	6939      	ldr	r1, [r7, #16]
 8000e1e:	50d1      	str	r1, [r2, r3]
      }

      /* Configure IO Direction mode (Input, Output, Alternate or Analog) */
      temp = GPIOx->MODER;
 8000e20:	687b      	ldr	r3, [r7, #4]
 8000e22:	681b      	ldr	r3, [r3, #0]
 8000e24:	613b      	str	r3, [r7, #16]
      temp &= ~(GPIO_MODER_MODER0 << (position * 2u));
 8000e26:	697b      	ldr	r3, [r7, #20]
 8000e28:	005b      	lsls	r3, r3, #1
 8000e2a:	2203      	movs	r2, #3
 8000e2c:	409a      	lsls	r2, r3
 8000e2e:	0013      	movs	r3, r2
 8000e30:	43da      	mvns	r2, r3
 8000e32:	693b      	ldr	r3, [r7, #16]
 8000e34:	4013      	ands	r3, r2
 8000e36:	613b      	str	r3, [r7, #16]
      temp |= ((GPIO_Init->Mode & GPIO_MODE) << (position * 2u));
 8000e38:	683b      	ldr	r3, [r7, #0]
 8000e3a:	685b      	ldr	r3, [r3, #4]
 8000e3c:	2203      	movs	r2, #3
 8000e3e:	401a      	ands	r2, r3
 8000e40:	697b      	ldr	r3, [r7, #20]
 8000e42:	005b      	lsls	r3, r3, #1
 8000e44:	409a      	lsls	r2, r3
 8000e46:	0013      	movs	r3, r2
 8000e48:	693a      	ldr	r2, [r7, #16]
 8000e4a:	4313      	orrs	r3, r2
 8000e4c:	613b      	str	r3, [r7, #16]
      GPIOx->MODER = temp;
 8000e4e:	687b      	ldr	r3, [r7, #4]
 8000e50:	693a      	ldr	r2, [r7, #16]
 8000e52:	601a      	str	r2, [r3, #0]

      /* In case of Output or Alternate function mode selection */
      if((GPIO_Init->Mode == GPIO_MODE_OUTPUT_PP) || (GPIO_Init->Mode == GPIO_MODE_AF_PP) ||
 8000e54:	683b      	ldr	r3, [r7, #0]
 8000e56:	685b      	ldr	r3, [r3, #4]
 8000e58:	2b01      	cmp	r3, #1
 8000e5a:	d00b      	beq.n	8000e74 <HAL_GPIO_Init+0xd4>
 8000e5c:	683b      	ldr	r3, [r7, #0]
 8000e5e:	685b      	ldr	r3, [r3, #4]
 8000e60:	2b02      	cmp	r3, #2
 8000e62:	d007      	beq.n	8000e74 <HAL_GPIO_Init+0xd4>
         (GPIO_Init->Mode == GPIO_MODE_OUTPUT_OD) || (GPIO_Init->Mode == GPIO_MODE_AF_OD))
 8000e64:	683b      	ldr	r3, [r7, #0]
 8000e66:	685b      	ldr	r3, [r3, #4]
      if((GPIO_Init->Mode == GPIO_MODE_OUTPUT_PP) || (GPIO_Init->Mode == GPIO_MODE_AF_PP) ||
 8000e68:	2b11      	cmp	r3, #17
 8000e6a:	d003      	beq.n	8000e74 <HAL_GPIO_Init+0xd4>
         (GPIO_Init->Mode == GPIO_MODE_OUTPUT_OD) || (GPIO_Init->Mode == GPIO_MODE_AF_OD))
 8000e6c:	683b      	ldr	r3, [r7, #0]
 8000e6e:	685b      	ldr	r3, [r3, #4]
 8000e70:	2b12      	cmp	r3, #18
 8000e72:	d130      	bne.n	8000ed6 <HAL_GPIO_Init+0x136>
      {
        /* Check the Speed parameter */
        assert_param(IS_GPIO_SPEED(GPIO_Init->Speed));
        /* Configure the IO Speed */
        temp = GPIOx->OSPEEDR;
 8000e74:	687b      	ldr	r3, [r7, #4]
 8000e76:	689b      	ldr	r3, [r3, #8]
 8000e78:	613b      	str	r3, [r7, #16]
        temp &= ~(GPIO_OSPEEDER_OSPEEDR0 << (position * 2u));
 8000e7a:	697b      	ldr	r3, [r7, #20]
 8000e7c:	005b      	lsls	r3, r3, #1
 8000e7e:	2203      	movs	r2, #3
 8000e80:	409a      	lsls	r2, r3
 8000e82:	0013      	movs	r3, r2
 8000e84:	43da      	mvns	r2, r3
 8000e86:	693b      	ldr	r3, [r7, #16]
 8000e88:	4013      	ands	r3, r2
 8000e8a:	613b      	str	r3, [r7, #16]
        temp |= (GPIO_Init->Speed << (position * 2u));
 8000e8c:	683b      	ldr	r3, [r7, #0]
 8000e8e:	68da      	ldr	r2, [r3, #12]
 8000e90:	697b      	ldr	r3, [r7, #20]
 8000e92:	005b      	lsls	r3, r3, #1
 8000e94:	409a      	lsls	r2, r3
 8000e96:	0013      	movs	r3, r2
 8000e98:	693a      	ldr	r2, [r7, #16]
 8000e9a:	4313      	orrs	r3, r2
 8000e9c:	613b      	str	r3, [r7, #16]
        GPIOx->OSPEEDR = temp;
 8000e9e:	687b      	ldr	r3, [r7, #4]
 8000ea0:	693a      	ldr	r2, [r7, #16]
 8000ea2:	609a      	str	r2, [r3, #8]

        /* Configure the IO Output Type */
        temp = GPIOx->OTYPER;
 8000ea4:	687b      	ldr	r3, [r7, #4]
 8000ea6:	685b      	ldr	r3, [r3, #4]
 8000ea8:	613b      	str	r3, [r7, #16]
        temp &= ~(GPIO_OTYPER_OT_0 << position) ;
 8000eaa:	2201      	movs	r2, #1
 8000eac:	697b      	ldr	r3, [r7, #20]
 8000eae:	409a      	lsls	r2, r3
 8000eb0:	0013      	movs	r3, r2
 8000eb2:	43da      	mvns	r2, r3
 8000eb4:	693b      	ldr	r3, [r7, #16]
 8000eb6:	4013      	ands	r3, r2
 8000eb8:	613b      	str	r3, [r7, #16]
        temp |= (((GPIO_Init->Mode & GPIO_OUTPUT_TYPE) >> 4u) << position);
 8000eba:	683b      	ldr	r3, [r7, #0]
 8000ebc:	685b      	ldr	r3, [r3, #4]
 8000ebe:	091b      	lsrs	r3, r3, #4
 8000ec0:	2201      	movs	r2, #1
 8000ec2:	401a      	ands	r2, r3
 8000ec4:	697b      	ldr	r3, [r7, #20]
 8000ec6:	409a      	lsls	r2, r3
 8000ec8:	0013      	movs	r3, r2
 8000eca:	693a      	ldr	r2, [r7, #16]
 8000ecc:	4313      	orrs	r3, r2
 8000ece:	613b      	str	r3, [r7, #16]
        GPIOx->OTYPER = temp;
 8000ed0:	687b      	ldr	r3, [r7, #4]
 8000ed2:	693a      	ldr	r2, [r7, #16]
 8000ed4:	605a      	str	r2, [r3, #4]
      }

      /* Activate the Pull-up or Pull down resistor for the current IO */
      temp = GPIOx->PUPDR;
 8000ed6:	687b      	ldr	r3, [r7, #4]
 8000ed8:	68db      	ldr	r3, [r3, #12]
 8000eda:	613b      	str	r3, [r7, #16]
      temp &= ~(GPIO_PUPDR_PUPDR0 << (position * 2u));
 8000edc:	697b      	ldr	r3, [r7, #20]
 8000ede:	005b      	lsls	r3, r3, #1
 8000ee0:	2203      	movs	r2, #3
 8000ee2:	409a      	lsls	r2, r3
 8000ee4:	0013      	movs	r3, r2
 8000ee6:	43da      	mvns	r2, r3
 8000ee8:	693b      	ldr	r3, [r7, #16]
 8000eea:	4013      	ands	r3, r2
 8000eec:	613b      	str	r3, [r7, #16]
      temp |= ((GPIO_Init->Pull) << (position * 2u));
 8000eee:	683b      	ldr	r3, [r7, #0]
 8000ef0:	689a      	ldr	r2, [r3, #8]
 8000ef2:	697b      	ldr	r3, [r7, #20]
 8000ef4:	005b      	lsls	r3, r3, #1
 8000ef6:	409a      	lsls	r2, r3
 8000ef8:	0013      	movs	r3, r2
 8000efa:	693a      	ldr	r2, [r7, #16]
 8000efc:	4313      	orrs	r3, r2
 8000efe:	613b      	str	r3, [r7, #16]
      GPIOx->PUPDR = temp;
 8000f00:	687b      	ldr	r3, [r7, #4]
 8000f02:	693a      	ldr	r2, [r7, #16]
 8000f04:	60da      	str	r2, [r3, #12]

      /*--------------------- EXTI Mode Configuration ------------------------*/
      /* Configure the External Interrupt or event for the current IO */
      if((GPIO_Init->Mode & EXTI_MODE) == EXTI_MODE)
 8000f06:	683b      	ldr	r3, [r7, #0]
 8000f08:	685a      	ldr	r2, [r3, #4]
 8000f0a:	2380      	movs	r3, #128	; 0x80
 8000f0c:	055b      	lsls	r3, r3, #21
 8000f0e:	4013      	ands	r3, r2
 8000f10:	d100      	bne.n	8000f14 <HAL_GPIO_Init+0x174>
 8000f12:	e09a      	b.n	800104a <HAL_GPIO_Init+0x2aa>
      {
        /* Enable SYSCFG Clock */
        __HAL_RCC_SYSCFG_CLK_ENABLE();
 8000f14:	4b54      	ldr	r3, [pc, #336]	; (8001068 <HAL_GPIO_Init+0x2c8>)
 8000f16:	699a      	ldr	r2, [r3, #24]
 8000f18:	4b53      	ldr	r3, [pc, #332]	; (8001068 <HAL_GPIO_Init+0x2c8>)
 8000f1a:	2101      	movs	r1, #1
 8000f1c:	430a      	orrs	r2, r1
 8000f1e:	619a      	str	r2, [r3, #24]
 8000f20:	4b51      	ldr	r3, [pc, #324]	; (8001068 <HAL_GPIO_Init+0x2c8>)
 8000f22:	699b      	ldr	r3, [r3, #24]
 8000f24:	2201      	movs	r2, #1
 8000f26:	4013      	ands	r3, r2
 8000f28:	60bb      	str	r3, [r7, #8]
 8000f2a:	68bb      	ldr	r3, [r7, #8]

        temp = SYSCFG->EXTICR[position >> 2u];
 8000f2c:	4a4f      	ldr	r2, [pc, #316]	; (800106c <HAL_GPIO_Init+0x2cc>)
 8000f2e:	697b      	ldr	r3, [r7, #20]
 8000f30:	089b      	lsrs	r3, r3, #2
 8000f32:	3302      	adds	r3, #2
 8000f34:	009b      	lsls	r3, r3, #2
 8000f36:	589b      	ldr	r3, [r3, r2]
 8000f38:	613b      	str	r3, [r7, #16]
        temp &= ~(0x0FuL << (4u * (position & 0x03u)));
 8000f3a:	697b      	ldr	r3, [r7, #20]
 8000f3c:	2203      	movs	r2, #3
 8000f3e:	4013      	ands	r3, r2
 8000f40:	009b      	lsls	r3, r3, #2
 8000f42:	220f      	movs	r2, #15
 8000f44:	409a      	lsls	r2, r3
 8000f46:	0013      	movs	r3, r2
 8000f48:	43da      	mvns	r2, r3
 8000f4a:	693b      	ldr	r3, [r7, #16]
 8000f4c:	4013      	ands	r3, r2
 8000f4e:	613b      	str	r3, [r7, #16]
        temp |= (GPIO_GET_INDEX(GPIOx) << (4u * (position & 0x03u)));
 8000f50:	687a      	ldr	r2, [r7, #4]
 8000f52:	2390      	movs	r3, #144	; 0x90
 8000f54:	05db      	lsls	r3, r3, #23
 8000f56:	429a      	cmp	r2, r3
 8000f58:	d013      	beq.n	8000f82 <HAL_GPIO_Init+0x1e2>
 8000f5a:	687b      	ldr	r3, [r7, #4]
 8000f5c:	4a44      	ldr	r2, [pc, #272]	; (8001070 <HAL_GPIO_Init+0x2d0>)
 8000f5e:	4293      	cmp	r3, r2
 8000f60:	d00d      	beq.n	8000f7e <HAL_GPIO_Init+0x1de>
 8000f62:	687b      	ldr	r3, [r7, #4]
 8000f64:	4a43      	ldr	r2, [pc, #268]	; (8001074 <HAL_GPIO_Init+0x2d4>)
 8000f66:	4293      	cmp	r3, r2
 8000f68:	d007      	beq.n	8000f7a <HAL_GPIO_Init+0x1da>
 8000f6a:	687b      	ldr	r3, [r7, #4]
 8000f6c:	4a42      	ldr	r2, [pc, #264]	; (8001078 <HAL_GPIO_Init+0x2d8>)
 8000f6e:	4293      	cmp	r3, r2
 8000f70:	d101      	bne.n	8000f76 <HAL_GPIO_Init+0x1d6>
 8000f72:	2303      	movs	r3, #3
 8000f74:	e006      	b.n	8000f84 <HAL_GPIO_Init+0x1e4>
 8000f76:	2305      	movs	r3, #5
 8000f78:	e004      	b.n	8000f84 <HAL_GPIO_Init+0x1e4>
 8000f7a:	2302      	movs	r3, #2
 8000f7c:	e002      	b.n	8000f84 <HAL_GPIO_Init+0x1e4>
 8000f7e:	2301      	movs	r3, #1
 8000f80:	e000      	b.n	8000f84 <HAL_GPIO_Init+0x1e4>
 8000f82:	2300      	movs	r3, #0
 8000f84:	697a      	ldr	r2, [r7, #20]
 8000f86:	2103      	movs	r1, #3
 8000f88:	400a      	ands	r2, r1
 8000f8a:	0092      	lsls	r2, r2, #2
 8000f8c:	4093      	lsls	r3, r2
 8000f8e:	693a      	ldr	r2, [r7, #16]
 8000f90:	4313      	orrs	r3, r2
 8000f92:	613b      	str	r3, [r7, #16]
        SYSCFG->EXTICR[position >> 2u] = temp;
 8000f94:	4935      	ldr	r1, [pc, #212]	; (800106c <HAL_GPIO_Init+0x2cc>)
 8000f96:	697b      	ldr	r3, [r7, #20]
 8000f98:	089b      	lsrs	r3, r3, #2
 8000f9a:	3302      	adds	r3, #2
 8000f9c:	009b      	lsls	r3, r3, #2
 8000f9e:	693a      	ldr	r2, [r7, #16]
 8000fa0:	505a      	str	r2, [r3, r1]

        /* Clear EXTI line configuration */
        temp = EXTI->IMR;
 8000fa2:	4b36      	ldr	r3, [pc, #216]	; (800107c <HAL_GPIO_Init+0x2dc>)
 8000fa4:	681b      	ldr	r3, [r3, #0]
 8000fa6:	613b      	str	r3, [r7, #16]
        temp &= ~(iocurrent);
 8000fa8:	68fb      	ldr	r3, [r7, #12]
 8000faa:	43da      	mvns	r2, r3
 8000fac:	693b      	ldr	r3, [r7, #16]
 8000fae:	4013      	ands	r3, r2
 8000fb0:	613b      	str	r3, [r7, #16]
        if((GPIO_Init->Mode & GPIO_MODE_IT) == GPIO_MODE_IT)
 8000fb2:	683b      	ldr	r3, [r7, #0]
 8000fb4:	685a      	ldr	r2, [r3, #4]
 8000fb6:	2380      	movs	r3, #128	; 0x80
 8000fb8:	025b      	lsls	r3, r3, #9
 8000fba:	4013      	ands	r3, r2
 8000fbc:	d003      	beq.n	8000fc6 <HAL_GPIO_Init+0x226>
        {
          temp |= iocurrent;
 8000fbe:	693a      	ldr	r2, [r7, #16]
 8000fc0:	68fb      	ldr	r3, [r7, #12]
 8000fc2:	4313      	orrs	r3, r2
 8000fc4:	613b      	str	r3, [r7, #16]
        }
        EXTI->IMR = temp;
 8000fc6:	4b2d      	ldr	r3, [pc, #180]	; (800107c <HAL_GPIO_Init+0x2dc>)
 8000fc8:	693a      	ldr	r2, [r7, #16]
 8000fca:	601a      	str	r2, [r3, #0]

        temp = EXTI->EMR;
 8000fcc:	4b2b      	ldr	r3, [pc, #172]	; (800107c <HAL_GPIO_Init+0x2dc>)
 8000fce:	685b      	ldr	r3, [r3, #4]
 8000fd0:	613b      	str	r3, [r7, #16]
        temp &= ~(iocurrent);
 8000fd2:	68fb      	ldr	r3, [r7, #12]
 8000fd4:	43da      	mvns	r2, r3
 8000fd6:	693b      	ldr	r3, [r7, #16]
 8000fd8:	4013      	ands	r3, r2
 8000fda:	613b      	str	r3, [r7, #16]
        if((GPIO_Init->Mode & GPIO_MODE_EVT) == GPIO_MODE_EVT)
 8000fdc:	683b      	ldr	r3, [r7, #0]
 8000fde:	685a      	ldr	r2, [r3, #4]
 8000fe0:	2380      	movs	r3, #128	; 0x80
 8000fe2:	029b      	lsls	r3, r3, #10
 8000fe4:	4013      	ands	r3, r2
 8000fe6:	d003      	beq.n	8000ff0 <HAL_GPIO_Init+0x250>
        {
          temp |= iocurrent;
 8000fe8:	693a      	ldr	r2, [r7, #16]
 8000fea:	68fb      	ldr	r3, [r7, #12]
 8000fec:	4313      	orrs	r3, r2
 8000fee:	613b      	str	r3, [r7, #16]
        }
        EXTI->EMR = temp;
 8000ff0:	4b22      	ldr	r3, [pc, #136]	; (800107c <HAL_GPIO_Init+0x2dc>)
 8000ff2:	693a      	ldr	r2, [r7, #16]
 8000ff4:	605a      	str	r2, [r3, #4]

        /* Clear Rising Falling edge configuration */
        temp = EXTI->RTSR;
 8000ff6:	4b21      	ldr	r3, [pc, #132]	; (800107c <HAL_GPIO_Init+0x2dc>)
 8000ff8:	689b      	ldr	r3, [r3, #8]
 8000ffa:	613b      	str	r3, [r7, #16]
        temp &= ~(iocurrent);
 8000ffc:	68fb      	ldr	r3, [r7, #12]
 8000ffe:	43da      	mvns	r2, r3
 8001000:	693b      	ldr	r3, [r7, #16]
 8001002:	4013      	ands	r3, r2
 8001004:	613b      	str	r3, [r7, #16]
        if((GPIO_Init->Mode & RISING_EDGE) == RISING_EDGE)
 8001006:	683b      	ldr	r3, [r7, #0]
 8001008:	685a      	ldr	r2, [r3, #4]
 800100a:	2380      	movs	r3, #128	; 0x80
 800100c:	035b      	lsls	r3, r3, #13
 800100e:	4013      	ands	r3, r2
 8001010:	d003      	beq.n	800101a <HAL_GPIO_Init+0x27a>
        {
          temp |= iocurrent;
 8001012:	693a      	ldr	r2, [r7, #16]
 8001014:	68fb      	ldr	r3, [r7, #12]
 8001016:	4313      	orrs	r3, r2
 8001018:	613b      	str	r3, [r7, #16]
        }
        EXTI->RTSR = temp;
 800101a:	4b18      	ldr	r3, [pc, #96]	; (800107c <HAL_GPIO_Init+0x2dc>)
 800101c:	693a      	ldr	r2, [r7, #16]
 800101e:	609a      	str	r2, [r3, #8]

        temp = EXTI->FTSR;
 8001020:	4b16      	ldr	r3, [pc, #88]	; (800107c <HAL_GPIO_Init+0x2dc>)
 8001022:	68db      	ldr	r3, [r3, #12]
 8001024:	613b      	str	r3, [r7, #16]
        temp &= ~(iocurrent);
 8001026:	68fb      	ldr	r3, [r7, #12]
 8001028:	43da      	mvns	r2, r3
 800102a:	693b      	ldr	r3, [r7, #16]
 800102c:	4013      	ands	r3, r2
 800102e:	613b      	str	r3, [r7, #16]
        if((GPIO_Init->Mode & FALLING_EDGE) == FALLING_EDGE)
 8001030:	683b      	ldr	r3, [r7, #0]
 8001032:	685a      	ldr	r2, [r3, #4]
 8001034:	2380      	movs	r3, #128	; 0x80
 8001036:	039b      	lsls	r3, r3, #14
 8001038:	4013      	ands	r3, r2
 800103a:	d003      	beq.n	8001044 <HAL_GPIO_Init+0x2a4>
        {
          temp |= iocurrent;
 800103c:	693a      	ldr	r2, [r7, #16]
 800103e:	68fb      	ldr	r3, [r7, #12]
 8001040:	4313      	orrs	r3, r2
 8001042:	613b      	str	r3, [r7, #16]
        }
        EXTI->FTSR = temp;
 8001044:	4b0d      	ldr	r3, [pc, #52]	; (800107c <HAL_GPIO_Init+0x2dc>)
 8001046:	693a      	ldr	r2, [r7, #16]
 8001048:	60da      	str	r2, [r3, #12]
      }
    }

    position++;
 800104a:	697b      	ldr	r3, [r7, #20]
 800104c:	3301      	adds	r3, #1
 800104e:	617b      	str	r3, [r7, #20]
  while (((GPIO_Init->Pin) >> position) != 0x00u)
 8001050:	683b      	ldr	r3, [r7, #0]
 8001052:	681a      	ldr	r2, [r3, #0]
 8001054:	697b      	ldr	r3, [r7, #20]
 8001056:	40da      	lsrs	r2, r3
 8001058:	1e13      	subs	r3, r2, #0
 800105a:	d000      	beq.n	800105e <HAL_GPIO_Init+0x2be>
 800105c:	e6a8      	b.n	8000db0 <HAL_GPIO_Init+0x10>
  } 
}
 800105e:	46c0      	nop			; (mov r8, r8)
 8001060:	46bd      	mov	sp, r7
 8001062:	b006      	add	sp, #24
 8001064:	bd80      	pop	{r7, pc}
 8001066:	46c0      	nop			; (mov r8, r8)
 8001068:	40021000 	.word	0x40021000
 800106c:	40010000 	.word	0x40010000
 8001070:	48000400 	.word	0x48000400
 8001074:	48000800 	.word	0x48000800
 8001078:	48000c00 	.word	0x48000c00
 800107c:	40010400 	.word	0x40010400

08001080 <HAL_RCC_OscConfig>:
  *         supported by this macro. User should request a transition to HSE Off
  *         first and then HSE On or HSE Bypass.
  * @retval HAL status
  */
HAL_StatusTypeDef HAL_RCC_OscConfig(RCC_OscInitTypeDef  *RCC_OscInitStruct)
{
 8001080:	b580      	push	{r7, lr}
 8001082:	b088      	sub	sp, #32
 8001084:	af00      	add	r7, sp, #0
 8001086:	6078      	str	r0, [r7, #4]
  uint32_t tickstart;
  uint32_t pll_config;
  uint32_t pll_config2;

  /* Check Null pointer */
  if(RCC_OscInitStruct == NULL)
 8001088:	687b      	ldr	r3, [r7, #4]
 800108a:	2b00      	cmp	r3, #0
 800108c:	d101      	bne.n	8001092 <HAL_RCC_OscConfig+0x12>
  {
    return HAL_ERROR;
 800108e:	2301      	movs	r3, #1
 8001090:	e303      	b.n	800169a <HAL_RCC_OscConfig+0x61a>

  /* Check the parameters */
  assert_param(IS_RCC_OSCILLATORTYPE(RCC_OscInitStruct->OscillatorType));

  /*------------------------------- HSE Configuration ------------------------*/ 
  if(((RCC_OscInitStruct->OscillatorType) & RCC_OSCILLATORTYPE_HSE) == RCC_OSCILLATORTYPE_HSE)
 8001092:	687b      	ldr	r3, [r7, #4]
 8001094:	681b      	ldr	r3, [r3, #0]
 8001096:	2201      	movs	r2, #1
 8001098:	4013      	ands	r3, r2
 800109a:	d100      	bne.n	800109e <HAL_RCC_OscConfig+0x1e>
 800109c:	e08d      	b.n	80011ba <HAL_RCC_OscConfig+0x13a>
  {
    /* Check the parameters */
    assert_param(IS_RCC_HSE(RCC_OscInitStruct->HSEState));

    /* When the HSE is used as system clock or clock source for PLL in these cases it is not allowed to be disabled */
    if((__HAL_RCC_GET_SYSCLK_SOURCE() == RCC_SYSCLKSOURCE_STATUS_HSE) 
 800109e:	4bc4      	ldr	r3, [pc, #784]	; (80013b0 <HAL_RCC_OscConfig+0x330>)
 80010a0:	685b      	ldr	r3, [r3, #4]
 80010a2:	220c      	movs	r2, #12
 80010a4:	4013      	ands	r3, r2
 80010a6:	2b04      	cmp	r3, #4
 80010a8:	d00e      	beq.n	80010c8 <HAL_RCC_OscConfig+0x48>
       || ((__HAL_RCC_GET_SYSCLK_SOURCE() == RCC_SYSCLKSOURCE_STATUS_PLLCLK) && (__HAL_RCC_GET_PLL_OSCSOURCE() == RCC_PLLSOURCE_HSE)))
 80010aa:	4bc1      	ldr	r3, [pc, #772]	; (80013b0 <HAL_RCC_OscConfig+0x330>)
 80010ac:	685b      	ldr	r3, [r3, #4]
 80010ae:	220c      	movs	r2, #12
 80010b0:	4013      	ands	r3, r2
 80010b2:	2b08      	cmp	r3, #8
 80010b4:	d116      	bne.n	80010e4 <HAL_RCC_OscConfig+0x64>
 80010b6:	4bbe      	ldr	r3, [pc, #760]	; (80013b0 <HAL_RCC_OscConfig+0x330>)
 80010b8:	685a      	ldr	r2, [r3, #4]
 80010ba:	2380      	movs	r3, #128	; 0x80
 80010bc:	025b      	lsls	r3, r3, #9
 80010be:	401a      	ands	r2, r3
 80010c0:	2380      	movs	r3, #128	; 0x80
 80010c2:	025b      	lsls	r3, r3, #9
 80010c4:	429a      	cmp	r2, r3
 80010c6:	d10d      	bne.n	80010e4 <HAL_RCC_OscConfig+0x64>
    {
      if((__HAL_RCC_GET_FLAG(RCC_FLAG_HSERDY) != RESET) && (RCC_OscInitStruct->HSEState == RCC_HSE_OFF))
 80010c8:	4bb9      	ldr	r3, [pc, #740]	; (80013b0 <HAL_RCC_OscConfig+0x330>)
 80010ca:	681a      	ldr	r2, [r3, #0]
 80010cc:	2380      	movs	r3, #128	; 0x80
 80010ce:	029b      	lsls	r3, r3, #10
 80010d0:	4013      	ands	r3, r2
 80010d2:	d100      	bne.n	80010d6 <HAL_RCC_OscConfig+0x56>
 80010d4:	e070      	b.n	80011b8 <HAL_RCC_OscConfig+0x138>
 80010d6:	687b      	ldr	r3, [r7, #4]
 80010d8:	685b      	ldr	r3, [r3, #4]
 80010da:	2b00      	cmp	r3, #0
 80010dc:	d000      	beq.n	80010e0 <HAL_RCC_OscConfig+0x60>
 80010de:	e06b      	b.n	80011b8 <HAL_RCC_OscConfig+0x138>
      {
        return HAL_ERROR;
 80010e0:	2301      	movs	r3, #1
 80010e2:	e2da      	b.n	800169a <HAL_RCC_OscConfig+0x61a>
      }
    }
    else
    {
      /* Set the new HSE configuration ---------------------------------------*/
      __HAL_RCC_HSE_CONFIG(RCC_OscInitStruct->HSEState);
 80010e4:	687b      	ldr	r3, [r7, #4]
 80010e6:	685b      	ldr	r3, [r3, #4]
 80010e8:	2b01      	cmp	r3, #1
 80010ea:	d107      	bne.n	80010fc <HAL_RCC_OscConfig+0x7c>
 80010ec:	4bb0      	ldr	r3, [pc, #704]	; (80013b0 <HAL_RCC_OscConfig+0x330>)
 80010ee:	681a      	ldr	r2, [r3, #0]
 80010f0:	4baf      	ldr	r3, [pc, #700]	; (80013b0 <HAL_RCC_OscConfig+0x330>)
 80010f2:	2180      	movs	r1, #128	; 0x80
 80010f4:	0249      	lsls	r1, r1, #9
 80010f6:	430a      	orrs	r2, r1
 80010f8:	601a      	str	r2, [r3, #0]
 80010fa:	e02f      	b.n	800115c <HAL_RCC_OscConfig+0xdc>
 80010fc:	687b      	ldr	r3, [r7, #4]
 80010fe:	685b      	ldr	r3, [r3, #4]
 8001100:	2b00      	cmp	r3, #0
 8001102:	d10c      	bne.n	800111e <HAL_RCC_OscConfig+0x9e>
 8001104:	4baa      	ldr	r3, [pc, #680]	; (80013b0 <HAL_RCC_OscConfig+0x330>)
 8001106:	681a      	ldr	r2, [r3, #0]
 8001108:	4ba9      	ldr	r3, [pc, #676]	; (80013b0 <HAL_RCC_OscConfig+0x330>)
 800110a:	49aa      	ldr	r1, [pc, #680]	; (80013b4 <HAL_RCC_OscConfig+0x334>)
 800110c:	400a      	ands	r2, r1
 800110e:	601a      	str	r2, [r3, #0]
 8001110:	4ba7      	ldr	r3, [pc, #668]	; (80013b0 <HAL_RCC_OscConfig+0x330>)
 8001112:	681a      	ldr	r2, [r3, #0]
 8001114:	4ba6      	ldr	r3, [pc, #664]	; (80013b0 <HAL_RCC_OscConfig+0x330>)
 8001116:	49a8      	ldr	r1, [pc, #672]	; (80013b8 <HAL_RCC_OscConfig+0x338>)
 8001118:	400a      	ands	r2, r1
 800111a:	601a      	str	r2, [r3, #0]
 800111c:	e01e      	b.n	800115c <HAL_RCC_OscConfig+0xdc>
 800111e:	687b      	ldr	r3, [r7, #4]
 8001120:	685b      	ldr	r3, [r3, #4]
 8001122:	2b05      	cmp	r3, #5
 8001124:	d10e      	bne.n	8001144 <HAL_RCC_OscConfig+0xc4>
 8001126:	4ba2      	ldr	r3, [pc, #648]	; (80013b0 <HAL_RCC_OscConfig+0x330>)
 8001128:	681a      	ldr	r2, [r3, #0]
 800112a:	4ba1      	ldr	r3, [pc, #644]	; (80013b0 <HAL_RCC_OscConfig+0x330>)
 800112c:	2180      	movs	r1, #128	; 0x80
 800112e:	02c9      	lsls	r1, r1, #11
 8001130:	430a      	orrs	r2, r1
 8001132:	601a      	str	r2, [r3, #0]
 8001134:	4b9e      	ldr	r3, [pc, #632]	; (80013b0 <HAL_RCC_OscConfig+0x330>)
 8001136:	681a      	ldr	r2, [r3, #0]
 8001138:	4b9d      	ldr	r3, [pc, #628]	; (80013b0 <HAL_RCC_OscConfig+0x330>)
 800113a:	2180      	movs	r1, #128	; 0x80
 800113c:	0249      	lsls	r1, r1, #9
 800113e:	430a      	orrs	r2, r1
 8001140:	601a      	str	r2, [r3, #0]
 8001142:	e00b      	b.n	800115c <HAL_RCC_OscConfig+0xdc>
 8001144:	4b9a      	ldr	r3, [pc, #616]	; (80013b0 <HAL_RCC_OscConfig+0x330>)
 8001146:	681a      	ldr	r2, [r3, #0]
 8001148:	4b99      	ldr	r3, [pc, #612]	; (80013b0 <HAL_RCC_OscConfig+0x330>)
 800114a:	499a      	ldr	r1, [pc, #616]	; (80013b4 <HAL_RCC_OscConfig+0x334>)
 800114c:	400a      	ands	r2, r1
 800114e:	601a      	str	r2, [r3, #0]
 8001150:	4b97      	ldr	r3, [pc, #604]	; (80013b0 <HAL_RCC_OscConfig+0x330>)
 8001152:	681a      	ldr	r2, [r3, #0]
 8001154:	4b96      	ldr	r3, [pc, #600]	; (80013b0 <HAL_RCC_OscConfig+0x330>)
 8001156:	4998      	ldr	r1, [pc, #608]	; (80013b8 <HAL_RCC_OscConfig+0x338>)
 8001158:	400a      	ands	r2, r1
 800115a:	601a      	str	r2, [r3, #0]
      

       /* Check the HSE State */
      if(RCC_OscInitStruct->HSEState != RCC_HSE_OFF)
 800115c:	687b      	ldr	r3, [r7, #4]
 800115e:	685b      	ldr	r3, [r3, #4]
 8001160:	2b00      	cmp	r3, #0
 8001162:	d014      	beq.n	800118e <HAL_RCC_OscConfig+0x10e>
      {
        /* Get Start Tick */
        tickstart = HAL_GetTick();
 8001164:	f7ff fd3c 	bl	8000be0 <HAL_GetTick>
 8001168:	0003      	movs	r3, r0
 800116a:	61bb      	str	r3, [r7, #24]
        
        /* Wait till HSE is ready */
        while(__HAL_RCC_GET_FLAG(RCC_FLAG_HSERDY) == RESET)
 800116c:	e008      	b.n	8001180 <HAL_RCC_OscConfig+0x100>
        {
          if((HAL_GetTick() - tickstart ) > HSE_TIMEOUT_VALUE)
 800116e:	f7ff fd37 	bl	8000be0 <HAL_GetTick>
 8001172:	0002      	movs	r2, r0
 8001174:	69bb      	ldr	r3, [r7, #24]
 8001176:	1ad3      	subs	r3, r2, r3
 8001178:	2b64      	cmp	r3, #100	; 0x64
 800117a:	d901      	bls.n	8001180 <HAL_RCC_OscConfig+0x100>
          {
            return HAL_TIMEOUT;
 800117c:	2303      	movs	r3, #3
 800117e:	e28c      	b.n	800169a <HAL_RCC_OscConfig+0x61a>
        while(__HAL_RCC_GET_FLAG(RCC_FLAG_HSERDY) == RESET)
 8001180:	4b8b      	ldr	r3, [pc, #556]	; (80013b0 <HAL_RCC_OscConfig+0x330>)
 8001182:	681a      	ldr	r2, [r3, #0]
 8001184:	2380      	movs	r3, #128	; 0x80
 8001186:	029b      	lsls	r3, r3, #10
 8001188:	4013      	ands	r3, r2
 800118a:	d0f0      	beq.n	800116e <HAL_RCC_OscConfig+0xee>
 800118c:	e015      	b.n	80011ba <HAL_RCC_OscConfig+0x13a>
        }
      }
      else
      {
        /* Get Start Tick */
        tickstart = HAL_GetTick();
 800118e:	f7ff fd27 	bl	8000be0 <HAL_GetTick>
 8001192:	0003      	movs	r3, r0
 8001194:	61bb      	str	r3, [r7, #24]
        
        /* Wait till HSE is disabled */
        while(__HAL_RCC_GET_FLAG(RCC_FLAG_HSERDY) != RESET)
 8001196:	e008      	b.n	80011aa <HAL_RCC_OscConfig+0x12a>
        {
           if((HAL_GetTick() - tickstart ) > HSE_TIMEOUT_VALUE)
 8001198:	f7ff fd22 	bl	8000be0 <HAL_GetTick>
 800119c:	0002      	movs	r2, r0
 800119e:	69bb      	ldr	r3, [r7, #24]
 80011a0:	1ad3      	subs	r3, r2, r3
 80011a2:	2b64      	cmp	r3, #100	; 0x64
 80011a4:	d901      	bls.n	80011aa <HAL_RCC_OscConfig+0x12a>
          {
            return HAL_TIMEOUT;
 80011a6:	2303      	movs	r3, #3
 80011a8:	e277      	b.n	800169a <HAL_RCC_OscConfig+0x61a>
        while(__HAL_RCC_GET_FLAG(RCC_FLAG_HSERDY) != RESET)
 80011aa:	4b81      	ldr	r3, [pc, #516]	; (80013b0 <HAL_RCC_OscConfig+0x330>)
 80011ac:	681a      	ldr	r2, [r3, #0]
 80011ae:	2380      	movs	r3, #128	; 0x80
 80011b0:	029b      	lsls	r3, r3, #10
 80011b2:	4013      	ands	r3, r2
 80011b4:	d1f0      	bne.n	8001198 <HAL_RCC_OscConfig+0x118>
 80011b6:	e000      	b.n	80011ba <HAL_RCC_OscConfig+0x13a>
      if((__HAL_RCC_GET_FLAG(RCC_FLAG_HSERDY) != RESET) && (RCC_OscInitStruct->HSEState == RCC_HSE_OFF))
 80011b8:	46c0      	nop			; (mov r8, r8)
        }
      }
    }
  }
  /*----------------------------- HSI Configuration --------------------------*/ 
  if(((RCC_OscInitStruct->OscillatorType) & RCC_OSCILLATORTYPE_HSI) == RCC_OSCILLATORTYPE_HSI)
 80011ba:	687b      	ldr	r3, [r7, #4]
 80011bc:	681b      	ldr	r3, [r3, #0]
 80011be:	2202      	movs	r2, #2
 80011c0:	4013      	ands	r3, r2
 80011c2:	d100      	bne.n	80011c6 <HAL_RCC_OscConfig+0x146>
 80011c4:	e069      	b.n	800129a <HAL_RCC_OscConfig+0x21a>
    /* Check the parameters */
    assert_param(IS_RCC_HSI(RCC_OscInitStruct->HSIState));
    assert_param(IS_RCC_CALIBRATION_VALUE(RCC_OscInitStruct->HSICalibrationValue));
    
    /* Check if HSI is used as system clock or as PLL source when PLL is selected as system clock */ 
    if((__HAL_RCC_GET_SYSCLK_SOURCE() == RCC_SYSCLKSOURCE_STATUS_HSI) 
 80011c6:	4b7a      	ldr	r3, [pc, #488]	; (80013b0 <HAL_RCC_OscConfig+0x330>)
 80011c8:	685b      	ldr	r3, [r3, #4]
 80011ca:	220c      	movs	r2, #12
 80011cc:	4013      	ands	r3, r2
 80011ce:	d00b      	beq.n	80011e8 <HAL_RCC_OscConfig+0x168>
       || ((__HAL_RCC_GET_SYSCLK_SOURCE() == RCC_SYSCLKSOURCE_STATUS_PLLCLK) && (__HAL_RCC_GET_PLL_OSCSOURCE() == RCC_PLLSOURCE_HSI)))
 80011d0:	4b77      	ldr	r3, [pc, #476]	; (80013b0 <HAL_RCC_OscConfig+0x330>)
 80011d2:	685b      	ldr	r3, [r3, #4]
 80011d4:	220c      	movs	r2, #12
 80011d6:	4013      	ands	r3, r2
 80011d8:	2b08      	cmp	r3, #8
 80011da:	d11c      	bne.n	8001216 <HAL_RCC_OscConfig+0x196>
 80011dc:	4b74      	ldr	r3, [pc, #464]	; (80013b0 <HAL_RCC_OscConfig+0x330>)
 80011de:	685a      	ldr	r2, [r3, #4]
 80011e0:	2380      	movs	r3, #128	; 0x80
 80011e2:	025b      	lsls	r3, r3, #9
 80011e4:	4013      	ands	r3, r2
 80011e6:	d116      	bne.n	8001216 <HAL_RCC_OscConfig+0x196>
    {
      /* When HSI is used as system clock it will not disabled */
      if((__HAL_RCC_GET_FLAG(RCC_FLAG_HSIRDY) != RESET) && (RCC_OscInitStruct->HSIState != RCC_HSI_ON))
 80011e8:	4b71      	ldr	r3, [pc, #452]	; (80013b0 <HAL_RCC_OscConfig+0x330>)
 80011ea:	681b      	ldr	r3, [r3, #0]
 80011ec:	2202      	movs	r2, #2
 80011ee:	4013      	ands	r3, r2
 80011f0:	d005      	beq.n	80011fe <HAL_RCC_OscConfig+0x17e>
 80011f2:	687b      	ldr	r3, [r7, #4]
 80011f4:	68db      	ldr	r3, [r3, #12]
 80011f6:	2b01      	cmp	r3, #1
 80011f8:	d001      	beq.n	80011fe <HAL_RCC_OscConfig+0x17e>
      {
        return HAL_ERROR;
 80011fa:	2301      	movs	r3, #1
 80011fc:	e24d      	b.n	800169a <HAL_RCC_OscConfig+0x61a>
      }
      /* Otherwise, just the calibration is allowed */
      else
      {
        /* Adjusts the Internal High Speed oscillator (HSI) calibration value.*/
        __HAL_RCC_HSI_CALIBRATIONVALUE_ADJUST(RCC_OscInitStruct->HSICalibrationValue);
 80011fe:	4b6c      	ldr	r3, [pc, #432]	; (80013b0 <HAL_RCC_OscConfig+0x330>)
 8001200:	681b      	ldr	r3, [r3, #0]
 8001202:	22f8      	movs	r2, #248	; 0xf8
 8001204:	4393      	bics	r3, r2
 8001206:	0019      	movs	r1, r3
 8001208:	687b      	ldr	r3, [r7, #4]
 800120a:	691b      	ldr	r3, [r3, #16]
 800120c:	00da      	lsls	r2, r3, #3
 800120e:	4b68      	ldr	r3, [pc, #416]	; (80013b0 <HAL_RCC_OscConfig+0x330>)
 8001210:	430a      	orrs	r2, r1
 8001212:	601a      	str	r2, [r3, #0]
      if((__HAL_RCC_GET_FLAG(RCC_FLAG_HSIRDY) != RESET) && (RCC_OscInitStruct->HSIState != RCC_HSI_ON))
 8001214:	e041      	b.n	800129a <HAL_RCC_OscConfig+0x21a>
      }
    }
    else
    {
      /* Check the HSI State */
      if(RCC_OscInitStruct->HSIState != RCC_HSI_OFF)
 8001216:	687b      	ldr	r3, [r7, #4]
 8001218:	68db      	ldr	r3, [r3, #12]
 800121a:	2b00      	cmp	r3, #0
 800121c:	d024      	beq.n	8001268 <HAL_RCC_OscConfig+0x1e8>
      {
       /* Enable the Internal High Speed oscillator (HSI). */
        __HAL_RCC_HSI_ENABLE();
 800121e:	4b64      	ldr	r3, [pc, #400]	; (80013b0 <HAL_RCC_OscConfig+0x330>)
 8001220:	681a      	ldr	r2, [r3, #0]
 8001222:	4b63      	ldr	r3, [pc, #396]	; (80013b0 <HAL_RCC_OscConfig+0x330>)
 8001224:	2101      	movs	r1, #1
 8001226:	430a      	orrs	r2, r1
 8001228:	601a      	str	r2, [r3, #0]
        
        /* Get Start Tick */
        tickstart = HAL_GetTick();
 800122a:	f7ff fcd9 	bl	8000be0 <HAL_GetTick>
 800122e:	0003      	movs	r3, r0
 8001230:	61bb      	str	r3, [r7, #24]
        
        /* Wait till HSI is ready */
        while(__HAL_RCC_GET_FLAG(RCC_FLAG_HSIRDY) == RESET)
 8001232:	e008      	b.n	8001246 <HAL_RCC_OscConfig+0x1c6>
        {
          if((HAL_GetTick() - tickstart ) > HSI_TIMEOUT_VALUE)
 8001234:	f7ff fcd4 	bl	8000be0 <HAL_GetTick>
 8001238:	0002      	movs	r2, r0
 800123a:	69bb      	ldr	r3, [r7, #24]
 800123c:	1ad3      	subs	r3, r2, r3
 800123e:	2b02      	cmp	r3, #2
 8001240:	d901      	bls.n	8001246 <HAL_RCC_OscConfig+0x1c6>
          {
            return HAL_TIMEOUT;
 8001242:	2303      	movs	r3, #3
 8001244:	e229      	b.n	800169a <HAL_RCC_OscConfig+0x61a>
        while(__HAL_RCC_GET_FLAG(RCC_FLAG_HSIRDY) == RESET)
 8001246:	4b5a      	ldr	r3, [pc, #360]	; (80013b0 <HAL_RCC_OscConfig+0x330>)
 8001248:	681b      	ldr	r3, [r3, #0]
 800124a:	2202      	movs	r2, #2
 800124c:	4013      	ands	r3, r2
 800124e:	d0f1      	beq.n	8001234 <HAL_RCC_OscConfig+0x1b4>
          }
        }
                
        /* Adjusts the Internal High Speed oscillator (HSI) calibration value.*/
        __HAL_RCC_HSI_CALIBRATIONVALUE_ADJUST(RCC_OscInitStruct->HSICalibrationValue);
 8001250:	4b57      	ldr	r3, [pc, #348]	; (80013b0 <HAL_RCC_OscConfig+0x330>)
 8001252:	681b      	ldr	r3, [r3, #0]
 8001254:	22f8      	movs	r2, #248	; 0xf8
 8001256:	4393      	bics	r3, r2
 8001258:	0019      	movs	r1, r3
 800125a:	687b      	ldr	r3, [r7, #4]
 800125c:	691b      	ldr	r3, [r3, #16]
 800125e:	00da      	lsls	r2, r3, #3
 8001260:	4b53      	ldr	r3, [pc, #332]	; (80013b0 <HAL_RCC_OscConfig+0x330>)
 8001262:	430a      	orrs	r2, r1
 8001264:	601a      	str	r2, [r3, #0]
 8001266:	e018      	b.n	800129a <HAL_RCC_OscConfig+0x21a>
      }
      else
      {
        /* Disable the Internal High Speed oscillator (HSI). */
        __HAL_RCC_HSI_DISABLE();
 8001268:	4b51      	ldr	r3, [pc, #324]	; (80013b0 <HAL_RCC_OscConfig+0x330>)
 800126a:	681a      	ldr	r2, [r3, #0]
 800126c:	4b50      	ldr	r3, [pc, #320]	; (80013b0 <HAL_RCC_OscConfig+0x330>)
 800126e:	2101      	movs	r1, #1
 8001270:	438a      	bics	r2, r1
 8001272:	601a      	str	r2, [r3, #0]
        
        /* Get Start Tick */
        tickstart = HAL_GetTick();
 8001274:	f7ff fcb4 	bl	8000be0 <HAL_GetTick>
 8001278:	0003      	movs	r3, r0
 800127a:	61bb      	str	r3, [r7, #24]
        
        /* Wait till HSI is disabled */
        while(__HAL_RCC_GET_FLAG(RCC_FLAG_HSIRDY) != RESET)
 800127c:	e008      	b.n	8001290 <HAL_RCC_OscConfig+0x210>
        {
          if((HAL_GetTick() - tickstart ) > HSI_TIMEOUT_VALUE)
 800127e:	f7ff fcaf 	bl	8000be0 <HAL_GetTick>
 8001282:	0002      	movs	r2, r0
 8001284:	69bb      	ldr	r3, [r7, #24]
 8001286:	1ad3      	subs	r3, r2, r3
 8001288:	2b02      	cmp	r3, #2
 800128a:	d901      	bls.n	8001290 <HAL_RCC_OscConfig+0x210>
          {
            return HAL_TIMEOUT;
 800128c:	2303      	movs	r3, #3
 800128e:	e204      	b.n	800169a <HAL_RCC_OscConfig+0x61a>
        while(__HAL_RCC_GET_FLAG(RCC_FLAG_HSIRDY) != RESET)
 8001290:	4b47      	ldr	r3, [pc, #284]	; (80013b0 <HAL_RCC_OscConfig+0x330>)
 8001292:	681b      	ldr	r3, [r3, #0]
 8001294:	2202      	movs	r2, #2
 8001296:	4013      	ands	r3, r2
 8001298:	d1f1      	bne.n	800127e <HAL_RCC_OscConfig+0x1fe>
        }
      }
    }
  }
  /*------------------------------ LSI Configuration -------------------------*/ 
  if(((RCC_OscInitStruct->OscillatorType) & RCC_OSCILLATORTYPE_LSI) == RCC_OSCILLATORTYPE_LSI)
 800129a:	687b      	ldr	r3, [r7, #4]
 800129c:	681b      	ldr	r3, [r3, #0]
 800129e:	2208      	movs	r2, #8
 80012a0:	4013      	ands	r3, r2
 80012a2:	d036      	beq.n	8001312 <HAL_RCC_OscConfig+0x292>
  {
    /* Check the parameters */
    assert_param(IS_RCC_LSI(RCC_OscInitStruct->LSIState));
    
    /* Check the LSI State */
    if(RCC_OscInitStruct->LSIState != RCC_LSI_OFF)
 80012a4:	687b      	ldr	r3, [r7, #4]
 80012a6:	69db      	ldr	r3, [r3, #28]
 80012a8:	2b00      	cmp	r3, #0
 80012aa:	d019      	beq.n	80012e0 <HAL_RCC_OscConfig+0x260>
    {
      /* Enable the Internal Low Speed oscillator (LSI). */
      __HAL_RCC_LSI_ENABLE();
 80012ac:	4b40      	ldr	r3, [pc, #256]	; (80013b0 <HAL_RCC_OscConfig+0x330>)
 80012ae:	6a5a      	ldr	r2, [r3, #36]	; 0x24
 80012b0:	4b3f      	ldr	r3, [pc, #252]	; (80013b0 <HAL_RCC_OscConfig+0x330>)
 80012b2:	2101      	movs	r1, #1
 80012b4:	430a      	orrs	r2, r1
 80012b6:	625a      	str	r2, [r3, #36]	; 0x24
      
      /* Get Start Tick */
      tickstart = HAL_GetTick();
 80012b8:	f7ff fc92 	bl	8000be0 <HAL_GetTick>
 80012bc:	0003      	movs	r3, r0
 80012be:	61bb      	str	r3, [r7, #24]
      
      /* Wait till LSI is ready */  
      while(__HAL_RCC_GET_FLAG(RCC_FLAG_LSIRDY) == RESET)
 80012c0:	e008      	b.n	80012d4 <HAL_RCC_OscConfig+0x254>
      {
        if((HAL_GetTick() - tickstart ) > LSI_TIMEOUT_VALUE)
 80012c2:	f7ff fc8d 	bl	8000be0 <HAL_GetTick>
 80012c6:	0002      	movs	r2, r0
 80012c8:	69bb      	ldr	r3, [r7, #24]
 80012ca:	1ad3      	subs	r3, r2, r3
 80012cc:	2b02      	cmp	r3, #2
 80012ce:	d901      	bls.n	80012d4 <HAL_RCC_OscConfig+0x254>
        {
          return HAL_TIMEOUT;
 80012d0:	2303      	movs	r3, #3
 80012d2:	e1e2      	b.n	800169a <HAL_RCC_OscConfig+0x61a>
      while(__HAL_RCC_GET_FLAG(RCC_FLAG_LSIRDY) == RESET)
 80012d4:	4b36      	ldr	r3, [pc, #216]	; (80013b0 <HAL_RCC_OscConfig+0x330>)
 80012d6:	6a5b      	ldr	r3, [r3, #36]	; 0x24
 80012d8:	2202      	movs	r2, #2
 80012da:	4013      	ands	r3, r2
 80012dc:	d0f1      	beq.n	80012c2 <HAL_RCC_OscConfig+0x242>
 80012de:	e018      	b.n	8001312 <HAL_RCC_OscConfig+0x292>
      }
    }
    else
    {
      /* Disable the Internal Low Speed oscillator (LSI). */
      __HAL_RCC_LSI_DISABLE();
 80012e0:	4b33      	ldr	r3, [pc, #204]	; (80013b0 <HAL_RCC_OscConfig+0x330>)
 80012e2:	6a5a      	ldr	r2, [r3, #36]	; 0x24
 80012e4:	4b32      	ldr	r3, [pc, #200]	; (80013b0 <HAL_RCC_OscConfig+0x330>)
 80012e6:	2101      	movs	r1, #1
 80012e8:	438a      	bics	r2, r1
 80012ea:	625a      	str	r2, [r3, #36]	; 0x24
      
      /* Get Start Tick */
      tickstart = HAL_GetTick();
 80012ec:	f7ff fc78 	bl	8000be0 <HAL_GetTick>
 80012f0:	0003      	movs	r3, r0
 80012f2:	61bb      	str	r3, [r7, #24]
      
      /* Wait till LSI is disabled */  
      while(__HAL_RCC_GET_FLAG(RCC_FLAG_LSIRDY) != RESET)
 80012f4:	e008      	b.n	8001308 <HAL_RCC_OscConfig+0x288>
      {
        if((HAL_GetTick() - tickstart ) > LSI_TIMEOUT_VALUE)
 80012f6:	f7ff fc73 	bl	8000be0 <HAL_GetTick>
 80012fa:	0002      	movs	r2, r0
 80012fc:	69bb      	ldr	r3, [r7, #24]
 80012fe:	1ad3      	subs	r3, r2, r3
 8001300:	2b02      	cmp	r3, #2
 8001302:	d901      	bls.n	8001308 <HAL_RCC_OscConfig+0x288>
        {
          return HAL_TIMEOUT;
 8001304:	2303      	movs	r3, #3
 8001306:	e1c8      	b.n	800169a <HAL_RCC_OscConfig+0x61a>
      while(__HAL_RCC_GET_FLAG(RCC_FLAG_LSIRDY) != RESET)
 8001308:	4b29      	ldr	r3, [pc, #164]	; (80013b0 <HAL_RCC_OscConfig+0x330>)
 800130a:	6a5b      	ldr	r3, [r3, #36]	; 0x24
 800130c:	2202      	movs	r2, #2
 800130e:	4013      	ands	r3, r2
 8001310:	d1f1      	bne.n	80012f6 <HAL_RCC_OscConfig+0x276>
        }
      }
    }
  }
  /*------------------------------ LSE Configuration -------------------------*/ 
  if(((RCC_OscInitStruct->OscillatorType) & RCC_OSCILLATORTYPE_LSE) == RCC_OSCILLATORTYPE_LSE)
 8001312:	687b      	ldr	r3, [r7, #4]
 8001314:	681b      	ldr	r3, [r3, #0]
 8001316:	2204      	movs	r2, #4
 8001318:	4013      	ands	r3, r2
 800131a:	d100      	bne.n	800131e <HAL_RCC_OscConfig+0x29e>
 800131c:	e0b6      	b.n	800148c <HAL_RCC_OscConfig+0x40c>
  {
    FlagStatus       pwrclkchanged = RESET;
 800131e:	231f      	movs	r3, #31
 8001320:	18fb      	adds	r3, r7, r3
 8001322:	2200      	movs	r2, #0
 8001324:	701a      	strb	r2, [r3, #0]
    /* Check the parameters */
    assert_param(IS_RCC_LSE(RCC_OscInitStruct->LSEState));

    /* Update LSE configuration in Backup Domain control register    */
    /* Requires to enable write access to Backup Domain of necessary */
    if(__HAL_RCC_PWR_IS_CLK_DISABLED())
 8001326:	4b22      	ldr	r3, [pc, #136]	; (80013b0 <HAL_RCC_OscConfig+0x330>)
 8001328:	69da      	ldr	r2, [r3, #28]
 800132a:	2380      	movs	r3, #128	; 0x80
 800132c:	055b      	lsls	r3, r3, #21
 800132e:	4013      	ands	r3, r2
 8001330:	d111      	bne.n	8001356 <HAL_RCC_OscConfig+0x2d6>
    {
      __HAL_RCC_PWR_CLK_ENABLE();
 8001332:	4b1f      	ldr	r3, [pc, #124]	; (80013b0 <HAL_RCC_OscConfig+0x330>)
 8001334:	69da      	ldr	r2, [r3, #28]
 8001336:	4b1e      	ldr	r3, [pc, #120]	; (80013b0 <HAL_RCC_OscConfig+0x330>)
 8001338:	2180      	movs	r1, #128	; 0x80
 800133a:	0549      	lsls	r1, r1, #21
 800133c:	430a      	orrs	r2, r1
 800133e:	61da      	str	r2, [r3, #28]
 8001340:	4b1b      	ldr	r3, [pc, #108]	; (80013b0 <HAL_RCC_OscConfig+0x330>)
 8001342:	69da      	ldr	r2, [r3, #28]
 8001344:	2380      	movs	r3, #128	; 0x80
 8001346:	055b      	lsls	r3, r3, #21
 8001348:	4013      	ands	r3, r2
 800134a:	60fb      	str	r3, [r7, #12]
 800134c:	68fb      	ldr	r3, [r7, #12]
      pwrclkchanged = SET;
 800134e:	231f      	movs	r3, #31
 8001350:	18fb      	adds	r3, r7, r3
 8001352:	2201      	movs	r2, #1
 8001354:	701a      	strb	r2, [r3, #0]
    }
    
    if(HAL_IS_BIT_CLR(PWR->CR, PWR_CR_DBP))
 8001356:	4b19      	ldr	r3, [pc, #100]	; (80013bc <HAL_RCC_OscConfig+0x33c>)
 8001358:	681a      	ldr	r2, [r3, #0]
 800135a:	2380      	movs	r3, #128	; 0x80
 800135c:	005b      	lsls	r3, r3, #1
 800135e:	4013      	ands	r3, r2
 8001360:	d11a      	bne.n	8001398 <HAL_RCC_OscConfig+0x318>
    {
      /* Enable write access to Backup domain */
      SET_BIT(PWR->CR, PWR_CR_DBP);
 8001362:	4b16      	ldr	r3, [pc, #88]	; (80013bc <HAL_RCC_OscConfig+0x33c>)
 8001364:	681a      	ldr	r2, [r3, #0]
 8001366:	4b15      	ldr	r3, [pc, #84]	; (80013bc <HAL_RCC_OscConfig+0x33c>)
 8001368:	2180      	movs	r1, #128	; 0x80
 800136a:	0049      	lsls	r1, r1, #1
 800136c:	430a      	orrs	r2, r1
 800136e:	601a      	str	r2, [r3, #0]
      
      /* Wait for Backup domain Write protection disable */
      tickstart = HAL_GetTick();
 8001370:	f7ff fc36 	bl	8000be0 <HAL_GetTick>
 8001374:	0003      	movs	r3, r0
 8001376:	61bb      	str	r3, [r7, #24]

      while(HAL_IS_BIT_CLR(PWR->CR, PWR_CR_DBP))
 8001378:	e008      	b.n	800138c <HAL_RCC_OscConfig+0x30c>
      {
        if((HAL_GetTick() - tickstart) > RCC_DBP_TIMEOUT_VALUE)
 800137a:	f7ff fc31 	bl	8000be0 <HAL_GetTick>
 800137e:	0002      	movs	r2, r0
 8001380:	69bb      	ldr	r3, [r7, #24]
 8001382:	1ad3      	subs	r3, r2, r3
 8001384:	2b64      	cmp	r3, #100	; 0x64
 8001386:	d901      	bls.n	800138c <HAL_RCC_OscConfig+0x30c>
        {
          return HAL_TIMEOUT;
 8001388:	2303      	movs	r3, #3
 800138a:	e186      	b.n	800169a <HAL_RCC_OscConfig+0x61a>
      while(HAL_IS_BIT_CLR(PWR->CR, PWR_CR_DBP))
 800138c:	4b0b      	ldr	r3, [pc, #44]	; (80013bc <HAL_RCC_OscConfig+0x33c>)
 800138e:	681a      	ldr	r2, [r3, #0]
 8001390:	2380      	movs	r3, #128	; 0x80
 8001392:	005b      	lsls	r3, r3, #1
 8001394:	4013      	ands	r3, r2
 8001396:	d0f0      	beq.n	800137a <HAL_RCC_OscConfig+0x2fa>
        }
      }
    }

    /* Set the new LSE configuration -----------------------------------------*/
    __HAL_RCC_LSE_CONFIG(RCC_OscInitStruct->LSEState);
 8001398:	687b      	ldr	r3, [r7, #4]
 800139a:	689b      	ldr	r3, [r3, #8]
 800139c:	2b01      	cmp	r3, #1
 800139e:	d10f      	bne.n	80013c0 <HAL_RCC_OscConfig+0x340>
 80013a0:	4b03      	ldr	r3, [pc, #12]	; (80013b0 <HAL_RCC_OscConfig+0x330>)
 80013a2:	6a1a      	ldr	r2, [r3, #32]
 80013a4:	4b02      	ldr	r3, [pc, #8]	; (80013b0 <HAL_RCC_OscConfig+0x330>)
 80013a6:	2101      	movs	r1, #1
 80013a8:	430a      	orrs	r2, r1
 80013aa:	621a      	str	r2, [r3, #32]
 80013ac:	e036      	b.n	800141c <HAL_RCC_OscConfig+0x39c>
 80013ae:	46c0      	nop			; (mov r8, r8)
 80013b0:	40021000 	.word	0x40021000
 80013b4:	fffeffff 	.word	0xfffeffff
 80013b8:	fffbffff 	.word	0xfffbffff
 80013bc:	40007000 	.word	0x40007000
 80013c0:	687b      	ldr	r3, [r7, #4]
 80013c2:	689b      	ldr	r3, [r3, #8]
 80013c4:	2b00      	cmp	r3, #0
 80013c6:	d10c      	bne.n	80013e2 <HAL_RCC_OscConfig+0x362>
 80013c8:	4bb6      	ldr	r3, [pc, #728]	; (80016a4 <HAL_RCC_OscConfig+0x624>)
 80013ca:	6a1a      	ldr	r2, [r3, #32]
 80013cc:	4bb5      	ldr	r3, [pc, #724]	; (80016a4 <HAL_RCC_OscConfig+0x624>)
 80013ce:	2101      	movs	r1, #1
 80013d0:	438a      	bics	r2, r1
 80013d2:	621a      	str	r2, [r3, #32]
 80013d4:	4bb3      	ldr	r3, [pc, #716]	; (80016a4 <HAL_RCC_OscConfig+0x624>)
 80013d6:	6a1a      	ldr	r2, [r3, #32]
 80013d8:	4bb2      	ldr	r3, [pc, #712]	; (80016a4 <HAL_RCC_OscConfig+0x624>)
 80013da:	2104      	movs	r1, #4
 80013dc:	438a      	bics	r2, r1
 80013de:	621a      	str	r2, [r3, #32]
 80013e0:	e01c      	b.n	800141c <HAL_RCC_OscConfig+0x39c>
 80013e2:	687b      	ldr	r3, [r7, #4]
 80013e4:	689b      	ldr	r3, [r3, #8]
 80013e6:	2b05      	cmp	r3, #5
 80013e8:	d10c      	bne.n	8001404 <HAL_RCC_OscConfig+0x384>
 80013ea:	4bae      	ldr	r3, [pc, #696]	; (80016a4 <HAL_RCC_OscConfig+0x624>)
 80013ec:	6a1a      	ldr	r2, [r3, #32]
 80013ee:	4bad      	ldr	r3, [pc, #692]	; (80016a4 <HAL_RCC_OscConfig+0x624>)
 80013f0:	2104      	movs	r1, #4
 80013f2:	430a      	orrs	r2, r1
 80013f4:	621a      	str	r2, [r3, #32]
 80013f6:	4bab      	ldr	r3, [pc, #684]	; (80016a4 <HAL_RCC_OscConfig+0x624>)
 80013f8:	6a1a      	ldr	r2, [r3, #32]
 80013fa:	4baa      	ldr	r3, [pc, #680]	; (80016a4 <HAL_RCC_OscConfig+0x624>)
 80013fc:	2101      	movs	r1, #1
 80013fe:	430a      	orrs	r2, r1
 8001400:	621a      	str	r2, [r3, #32]
 8001402:	e00b      	b.n	800141c <HAL_RCC_OscConfig+0x39c>
 8001404:	4ba7      	ldr	r3, [pc, #668]	; (80016a4 <HAL_RCC_OscConfig+0x624>)
 8001406:	6a1a      	ldr	r2, [r3, #32]
 8001408:	4ba6      	ldr	r3, [pc, #664]	; (80016a4 <HAL_RCC_OscConfig+0x624>)
 800140a:	2101      	movs	r1, #1
 800140c:	438a      	bics	r2, r1
 800140e:	621a      	str	r2, [r3, #32]
 8001410:	4ba4      	ldr	r3, [pc, #656]	; (80016a4 <HAL_RCC_OscConfig+0x624>)
 8001412:	6a1a      	ldr	r2, [r3, #32]
 8001414:	4ba3      	ldr	r3, [pc, #652]	; (80016a4 <HAL_RCC_OscConfig+0x624>)
 8001416:	2104      	movs	r1, #4
 8001418:	438a      	bics	r2, r1
 800141a:	621a      	str	r2, [r3, #32]
    /* Check the LSE State */
    if(RCC_OscInitStruct->LSEState != RCC_LSE_OFF)
 800141c:	687b      	ldr	r3, [r7, #4]
 800141e:	689b      	ldr	r3, [r3, #8]
 8001420:	2b00      	cmp	r3, #0
 8001422:	d014      	beq.n	800144e <HAL_RCC_OscConfig+0x3ce>
    {
      /* Get Start Tick */
      tickstart = HAL_GetTick();
 8001424:	f7ff fbdc 	bl	8000be0 <HAL_GetTick>
 8001428:	0003      	movs	r3, r0
 800142a:	61bb      	str	r3, [r7, #24]
      
      /* Wait till LSE is ready */  
      while(__HAL_RCC_GET_FLAG(RCC_FLAG_LSERDY) == RESET)
 800142c:	e009      	b.n	8001442 <HAL_RCC_OscConfig+0x3c2>
      {
        if((HAL_GetTick() - tickstart ) > RCC_LSE_TIMEOUT_VALUE)
 800142e:	f7ff fbd7 	bl	8000be0 <HAL_GetTick>
 8001432:	0002      	movs	r2, r0
 8001434:	69bb      	ldr	r3, [r7, #24]
 8001436:	1ad3      	subs	r3, r2, r3
 8001438:	4a9b      	ldr	r2, [pc, #620]	; (80016a8 <HAL_RCC_OscConfig+0x628>)
 800143a:	4293      	cmp	r3, r2
 800143c:	d901      	bls.n	8001442 <HAL_RCC_OscConfig+0x3c2>
        {
          return HAL_TIMEOUT;
 800143e:	2303      	movs	r3, #3
 8001440:	e12b      	b.n	800169a <HAL_RCC_OscConfig+0x61a>
      while(__HAL_RCC_GET_FLAG(RCC_FLAG_LSERDY) == RESET)
 8001442:	4b98      	ldr	r3, [pc, #608]	; (80016a4 <HAL_RCC_OscConfig+0x624>)
 8001444:	6a1b      	ldr	r3, [r3, #32]
 8001446:	2202      	movs	r2, #2
 8001448:	4013      	ands	r3, r2
 800144a:	d0f0      	beq.n	800142e <HAL_RCC_OscConfig+0x3ae>
 800144c:	e013      	b.n	8001476 <HAL_RCC_OscConfig+0x3f6>
      }
    }
    else
    {
      /* Get Start Tick */
      tickstart = HAL_GetTick();
 800144e:	f7ff fbc7 	bl	8000be0 <HAL_GetTick>
 8001452:	0003      	movs	r3, r0
 8001454:	61bb      	str	r3, [r7, #24]
      
      /* Wait till LSE is disabled */  
      while(__HAL_RCC_GET_FLAG(RCC_FLAG_LSERDY) != RESET)
 8001456:	e009      	b.n	800146c <HAL_RCC_OscConfig+0x3ec>
      {
        if((HAL_GetTick() - tickstart ) > RCC_LSE_TIMEOUT_VALUE)
 8001458:	f7ff fbc2 	bl	8000be0 <HAL_GetTick>
 800145c:	0002      	movs	r2, r0
 800145e:	69bb      	ldr	r3, [r7, #24]
 8001460:	1ad3      	subs	r3, r2, r3
 8001462:	4a91      	ldr	r2, [pc, #580]	; (80016a8 <HAL_RCC_OscConfig+0x628>)
 8001464:	4293      	cmp	r3, r2
 8001466:	d901      	bls.n	800146c <HAL_RCC_OscConfig+0x3ec>
        {
          return HAL_TIMEOUT;
 8001468:	2303      	movs	r3, #3
 800146a:	e116      	b.n	800169a <HAL_RCC_OscConfig+0x61a>
      while(__HAL_RCC_GET_FLAG(RCC_FLAG_LSERDY) != RESET)
 800146c:	4b8d      	ldr	r3, [pc, #564]	; (80016a4 <HAL_RCC_OscConfig+0x624>)
 800146e:	6a1b      	ldr	r3, [r3, #32]
 8001470:	2202      	movs	r2, #2
 8001472:	4013      	ands	r3, r2
 8001474:	d1f0      	bne.n	8001458 <HAL_RCC_OscConfig+0x3d8>
        }
      }
    }

    /* Require to disable power clock if necessary */
    if(pwrclkchanged == SET)
 8001476:	231f      	movs	r3, #31
 8001478:	18fb      	adds	r3, r7, r3
 800147a:	781b      	ldrb	r3, [r3, #0]
 800147c:	2b01      	cmp	r3, #1
 800147e:	d105      	bne.n	800148c <HAL_RCC_OscConfig+0x40c>
    {
      __HAL_RCC_PWR_CLK_DISABLE();
 8001480:	4b88      	ldr	r3, [pc, #544]	; (80016a4 <HAL_RCC_OscConfig+0x624>)
 8001482:	69da      	ldr	r2, [r3, #28]
 8001484:	4b87      	ldr	r3, [pc, #540]	; (80016a4 <HAL_RCC_OscConfig+0x624>)
 8001486:	4989      	ldr	r1, [pc, #548]	; (80016ac <HAL_RCC_OscConfig+0x62c>)
 8001488:	400a      	ands	r2, r1
 800148a:	61da      	str	r2, [r3, #28]
    }
  }

  /*----------------------------- HSI14 Configuration --------------------------*/
  if(((RCC_OscInitStruct->OscillatorType) & RCC_OSCILLATORTYPE_HSI14) == RCC_OSCILLATORTYPE_HSI14)
 800148c:	687b      	ldr	r3, [r7, #4]
 800148e:	681b      	ldr	r3, [r3, #0]
 8001490:	2210      	movs	r2, #16
 8001492:	4013      	ands	r3, r2
 8001494:	d063      	beq.n	800155e <HAL_RCC_OscConfig+0x4de>
    /* Check the parameters */
    assert_param(IS_RCC_HSI14(RCC_OscInitStruct->HSI14State));
    assert_param(IS_RCC_CALIBRATION_VALUE(RCC_OscInitStruct->HSI14CalibrationValue));

    /* Check the HSI14 State */
    if(RCC_OscInitStruct->HSI14State == RCC_HSI14_ON)
 8001496:	687b      	ldr	r3, [r7, #4]
 8001498:	695b      	ldr	r3, [r3, #20]
 800149a:	2b01      	cmp	r3, #1
 800149c:	d12a      	bne.n	80014f4 <HAL_RCC_OscConfig+0x474>
    {
      /* Disable ADC control of the Internal High Speed oscillator HSI14 */
      __HAL_RCC_HSI14ADC_DISABLE();
 800149e:	4b81      	ldr	r3, [pc, #516]	; (80016a4 <HAL_RCC_OscConfig+0x624>)
 80014a0:	6b5a      	ldr	r2, [r3, #52]	; 0x34
 80014a2:	4b80      	ldr	r3, [pc, #512]	; (80016a4 <HAL_RCC_OscConfig+0x624>)
 80014a4:	2104      	movs	r1, #4
 80014a6:	430a      	orrs	r2, r1
 80014a8:	635a      	str	r2, [r3, #52]	; 0x34

      /* Enable the Internal High Speed oscillator (HSI). */
      __HAL_RCC_HSI14_ENABLE();
 80014aa:	4b7e      	ldr	r3, [pc, #504]	; (80016a4 <HAL_RCC_OscConfig+0x624>)
 80014ac:	6b5a      	ldr	r2, [r3, #52]	; 0x34
 80014ae:	4b7d      	ldr	r3, [pc, #500]	; (80016a4 <HAL_RCC_OscConfig+0x624>)
 80014b0:	2101      	movs	r1, #1
 80014b2:	430a      	orrs	r2, r1
 80014b4:	635a      	str	r2, [r3, #52]	; 0x34

      /* Get Start Tick */
      tickstart = HAL_GetTick();
 80014b6:	f7ff fb93 	bl	8000be0 <HAL_GetTick>
 80014ba:	0003      	movs	r3, r0
 80014bc:	61bb      	str	r3, [r7, #24]
      
      /* Wait till HSI is ready */  
      while(__HAL_RCC_GET_FLAG(RCC_FLAG_HSI14RDY) == RESET)
 80014be:	e008      	b.n	80014d2 <HAL_RCC_OscConfig+0x452>
      {
        if((HAL_GetTick() - tickstart) > HSI14_TIMEOUT_VALUE)
 80014c0:	f7ff fb8e 	bl	8000be0 <HAL_GetTick>
 80014c4:	0002      	movs	r2, r0
 80014c6:	69bb      	ldr	r3, [r7, #24]
 80014c8:	1ad3      	subs	r3, r2, r3
 80014ca:	2b02      	cmp	r3, #2
 80014cc:	d901      	bls.n	80014d2 <HAL_RCC_OscConfig+0x452>
        {
          return HAL_TIMEOUT;
 80014ce:	2303      	movs	r3, #3
 80014d0:	e0e3      	b.n	800169a <HAL_RCC_OscConfig+0x61a>
      while(__HAL_RCC_GET_FLAG(RCC_FLAG_HSI14RDY) == RESET)
 80014d2:	4b74      	ldr	r3, [pc, #464]	; (80016a4 <HAL_RCC_OscConfig+0x624>)
 80014d4:	6b5b      	ldr	r3, [r3, #52]	; 0x34
 80014d6:	2202      	movs	r2, #2
 80014d8:	4013      	ands	r3, r2
 80014da:	d0f1      	beq.n	80014c0 <HAL_RCC_OscConfig+0x440>
        }      
      } 

      /* Adjusts the Internal High Speed oscillator 14Mhz (HSI14) calibration value. */
      __HAL_RCC_HSI14_CALIBRATIONVALUE_ADJUST(RCC_OscInitStruct->HSI14CalibrationValue);
 80014dc:	4b71      	ldr	r3, [pc, #452]	; (80016a4 <HAL_RCC_OscConfig+0x624>)
 80014de:	6b5b      	ldr	r3, [r3, #52]	; 0x34
 80014e0:	22f8      	movs	r2, #248	; 0xf8
 80014e2:	4393      	bics	r3, r2
 80014e4:	0019      	movs	r1, r3
 80014e6:	687b      	ldr	r3, [r7, #4]
 80014e8:	699b      	ldr	r3, [r3, #24]
 80014ea:	00da      	lsls	r2, r3, #3
 80014ec:	4b6d      	ldr	r3, [pc, #436]	; (80016a4 <HAL_RCC_OscConfig+0x624>)
 80014ee:	430a      	orrs	r2, r1
 80014f0:	635a      	str	r2, [r3, #52]	; 0x34
 80014f2:	e034      	b.n	800155e <HAL_RCC_OscConfig+0x4de>
    }
    else if(RCC_OscInitStruct->HSI14State == RCC_HSI14_ADC_CONTROL)
 80014f4:	687b      	ldr	r3, [r7, #4]
 80014f6:	695b      	ldr	r3, [r3, #20]
 80014f8:	3305      	adds	r3, #5
 80014fa:	d111      	bne.n	8001520 <HAL_RCC_OscConfig+0x4a0>
    {
      /* Enable ADC control of the Internal High Speed oscillator HSI14 */
      __HAL_RCC_HSI14ADC_ENABLE();
 80014fc:	4b69      	ldr	r3, [pc, #420]	; (80016a4 <HAL_RCC_OscConfig+0x624>)
 80014fe:	6b5a      	ldr	r2, [r3, #52]	; 0x34
 8001500:	4b68      	ldr	r3, [pc, #416]	; (80016a4 <HAL_RCC_OscConfig+0x624>)
 8001502:	2104      	movs	r1, #4
 8001504:	438a      	bics	r2, r1
 8001506:	635a      	str	r2, [r3, #52]	; 0x34

      /* Adjusts the Internal High Speed oscillator 14Mhz (HSI14) calibration value. */
      __HAL_RCC_HSI14_CALIBRATIONVALUE_ADJUST(RCC_OscInitStruct->HSI14CalibrationValue);
 8001508:	4b66      	ldr	r3, [pc, #408]	; (80016a4 <HAL_RCC_OscConfig+0x624>)
 800150a:	6b5b      	ldr	r3, [r3, #52]	; 0x34
 800150c:	22f8      	movs	r2, #248	; 0xf8
 800150e:	4393      	bics	r3, r2
 8001510:	0019      	movs	r1, r3
 8001512:	687b      	ldr	r3, [r7, #4]
 8001514:	699b      	ldr	r3, [r3, #24]
 8001516:	00da      	lsls	r2, r3, #3
 8001518:	4b62      	ldr	r3, [pc, #392]	; (80016a4 <HAL_RCC_OscConfig+0x624>)
 800151a:	430a      	orrs	r2, r1
 800151c:	635a      	str	r2, [r3, #52]	; 0x34
 800151e:	e01e      	b.n	800155e <HAL_RCC_OscConfig+0x4de>
    }
    else
    {
      /* Disable ADC control of the Internal High Speed oscillator HSI14 */
      __HAL_RCC_HSI14ADC_DISABLE();
 8001520:	4b60      	ldr	r3, [pc, #384]	; (80016a4 <HAL_RCC_OscConfig+0x624>)
 8001522:	6b5a      	ldr	r2, [r3, #52]	; 0x34
 8001524:	4b5f      	ldr	r3, [pc, #380]	; (80016a4 <HAL_RCC_OscConfig+0x624>)
 8001526:	2104      	movs	r1, #4
 8001528:	430a      	orrs	r2, r1
 800152a:	635a      	str	r2, [r3, #52]	; 0x34

      /* Disable the Internal High Speed oscillator (HSI). */
      __HAL_RCC_HSI14_DISABLE();
 800152c:	4b5d      	ldr	r3, [pc, #372]	; (80016a4 <HAL_RCC_OscConfig+0x624>)
 800152e:	6b5a      	ldr	r2, [r3, #52]	; 0x34
 8001530:	4b5c      	ldr	r3, [pc, #368]	; (80016a4 <HAL_RCC_OscConfig+0x624>)
 8001532:	2101      	movs	r1, #1
 8001534:	438a      	bics	r2, r1
 8001536:	635a      	str	r2, [r3, #52]	; 0x34

      /* Get Start Tick */
      tickstart = HAL_GetTick();
 8001538:	f7ff fb52 	bl	8000be0 <HAL_GetTick>
 800153c:	0003      	movs	r3, r0
 800153e:	61bb      	str	r3, [r7, #24]
      
      /* Wait till HSI is ready */  
      while(__HAL_RCC_GET_FLAG(RCC_FLAG_HSI14RDY) != RESET)
 8001540:	e008      	b.n	8001554 <HAL_RCC_OscConfig+0x4d4>
      {
        if((HAL_GetTick() - tickstart) > HSI14_TIMEOUT_VALUE)
 8001542:	f7ff fb4d 	bl	8000be0 <HAL_GetTick>
 8001546:	0002      	movs	r2, r0
 8001548:	69bb      	ldr	r3, [r7, #24]
 800154a:	1ad3      	subs	r3, r2, r3
 800154c:	2b02      	cmp	r3, #2
 800154e:	d901      	bls.n	8001554 <HAL_RCC_OscConfig+0x4d4>
        {
          return HAL_TIMEOUT;
 8001550:	2303      	movs	r3, #3
 8001552:	e0a2      	b.n	800169a <HAL_RCC_OscConfig+0x61a>
      while(__HAL_RCC_GET_FLAG(RCC_FLAG_HSI14RDY) != RESET)
 8001554:	4b53      	ldr	r3, [pc, #332]	; (80016a4 <HAL_RCC_OscConfig+0x624>)
 8001556:	6b5b      	ldr	r3, [r3, #52]	; 0x34
 8001558:	2202      	movs	r2, #2
 800155a:	4013      	ands	r3, r2
 800155c:	d1f1      	bne.n	8001542 <HAL_RCC_OscConfig+0x4c2>
#endif /* RCC_HSI48_SUPPORT */
       
  /*-------------------------------- PLL Configuration -----------------------*/
  /* Check the parameters */
  assert_param(IS_RCC_PLL(RCC_OscInitStruct->PLL.PLLState));
  if ((RCC_OscInitStruct->PLL.PLLState) != RCC_PLL_NONE)
 800155e:	687b      	ldr	r3, [r7, #4]
 8001560:	6a1b      	ldr	r3, [r3, #32]
 8001562:	2b00      	cmp	r3, #0
 8001564:	d100      	bne.n	8001568 <HAL_RCC_OscConfig+0x4e8>
 8001566:	e097      	b.n	8001698 <HAL_RCC_OscConfig+0x618>
  {
    /* Check if the PLL is used as system clock or not */
    if(__HAL_RCC_GET_SYSCLK_SOURCE() != RCC_SYSCLKSOURCE_STATUS_PLLCLK)
 8001568:	4b4e      	ldr	r3, [pc, #312]	; (80016a4 <HAL_RCC_OscConfig+0x624>)
 800156a:	685b      	ldr	r3, [r3, #4]
 800156c:	220c      	movs	r2, #12
 800156e:	4013      	ands	r3, r2
 8001570:	2b08      	cmp	r3, #8
 8001572:	d100      	bne.n	8001576 <HAL_RCC_OscConfig+0x4f6>
 8001574:	e06b      	b.n	800164e <HAL_RCC_OscConfig+0x5ce>
    { 
      if((RCC_OscInitStruct->PLL.PLLState) == RCC_PLL_ON)
 8001576:	687b      	ldr	r3, [r7, #4]
 8001578:	6a1b      	ldr	r3, [r3, #32]
 800157a:	2b02      	cmp	r3, #2
 800157c:	d14c      	bne.n	8001618 <HAL_RCC_OscConfig+0x598>
        assert_param(IS_RCC_PLLSOURCE(RCC_OscInitStruct->PLL.PLLSource));
        assert_param(IS_RCC_PLL_MUL(RCC_OscInitStruct->PLL.PLLMUL));
        assert_param(IS_RCC_PREDIV(RCC_OscInitStruct->PLL.PREDIV));
  
        /* Disable the main PLL. */
        __HAL_RCC_PLL_DISABLE();
 800157e:	4b49      	ldr	r3, [pc, #292]	; (80016a4 <HAL_RCC_OscConfig+0x624>)
 8001580:	681a      	ldr	r2, [r3, #0]
 8001582:	4b48      	ldr	r3, [pc, #288]	; (80016a4 <HAL_RCC_OscConfig+0x624>)
 8001584:	494a      	ldr	r1, [pc, #296]	; (80016b0 <HAL_RCC_OscConfig+0x630>)
 8001586:	400a      	ands	r2, r1
 8001588:	601a      	str	r2, [r3, #0]
        
        /* Get Start Tick */
        tickstart = HAL_GetTick();
 800158a:	f7ff fb29 	bl	8000be0 <HAL_GetTick>
 800158e:	0003      	movs	r3, r0
 8001590:	61bb      	str	r3, [r7, #24]
        
        /* Wait till PLL is disabled */
        while(__HAL_RCC_GET_FLAG(RCC_FLAG_PLLRDY)  != RESET)
 8001592:	e008      	b.n	80015a6 <HAL_RCC_OscConfig+0x526>
        {
          if((HAL_GetTick() - tickstart ) > PLL_TIMEOUT_VALUE)
 8001594:	f7ff fb24 	bl	8000be0 <HAL_GetTick>
 8001598:	0002      	movs	r2, r0
 800159a:	69bb      	ldr	r3, [r7, #24]
 800159c:	1ad3      	subs	r3, r2, r3
 800159e:	2b02      	cmp	r3, #2
 80015a0:	d901      	bls.n	80015a6 <HAL_RCC_OscConfig+0x526>
          {
            return HAL_TIMEOUT;
 80015a2:	2303      	movs	r3, #3
 80015a4:	e079      	b.n	800169a <HAL_RCC_OscConfig+0x61a>
        while(__HAL_RCC_GET_FLAG(RCC_FLAG_PLLRDY)  != RESET)
 80015a6:	4b3f      	ldr	r3, [pc, #252]	; (80016a4 <HAL_RCC_OscConfig+0x624>)
 80015a8:	681a      	ldr	r2, [r3, #0]
 80015aa:	2380      	movs	r3, #128	; 0x80
 80015ac:	049b      	lsls	r3, r3, #18
 80015ae:	4013      	ands	r3, r2
 80015b0:	d1f0      	bne.n	8001594 <HAL_RCC_OscConfig+0x514>
          }
        }

        /* Configure the main PLL clock source, predivider and multiplication factor. */
        __HAL_RCC_PLL_CONFIG(RCC_OscInitStruct->PLL.PLLSource,
 80015b2:	4b3c      	ldr	r3, [pc, #240]	; (80016a4 <HAL_RCC_OscConfig+0x624>)
 80015b4:	6adb      	ldr	r3, [r3, #44]	; 0x2c
 80015b6:	220f      	movs	r2, #15
 80015b8:	4393      	bics	r3, r2
 80015ba:	0019      	movs	r1, r3
 80015bc:	687b      	ldr	r3, [r7, #4]
 80015be:	6ada      	ldr	r2, [r3, #44]	; 0x2c
 80015c0:	4b38      	ldr	r3, [pc, #224]	; (80016a4 <HAL_RCC_OscConfig+0x624>)
 80015c2:	430a      	orrs	r2, r1
 80015c4:	62da      	str	r2, [r3, #44]	; 0x2c
 80015c6:	4b37      	ldr	r3, [pc, #220]	; (80016a4 <HAL_RCC_OscConfig+0x624>)
 80015c8:	685b      	ldr	r3, [r3, #4]
 80015ca:	4a3a      	ldr	r2, [pc, #232]	; (80016b4 <HAL_RCC_OscConfig+0x634>)
 80015cc:	4013      	ands	r3, r2
 80015ce:	0019      	movs	r1, r3
 80015d0:	687b      	ldr	r3, [r7, #4]
 80015d2:	6a9a      	ldr	r2, [r3, #40]	; 0x28
 80015d4:	687b      	ldr	r3, [r7, #4]
 80015d6:	6a5b      	ldr	r3, [r3, #36]	; 0x24
 80015d8:	431a      	orrs	r2, r3
 80015da:	4b32      	ldr	r3, [pc, #200]	; (80016a4 <HAL_RCC_OscConfig+0x624>)
 80015dc:	430a      	orrs	r2, r1
 80015de:	605a      	str	r2, [r3, #4]
                             RCC_OscInitStruct->PLL.PREDIV,
                             RCC_OscInitStruct->PLL.PLLMUL);
        /* Enable the main PLL. */
        __HAL_RCC_PLL_ENABLE();
 80015e0:	4b30      	ldr	r3, [pc, #192]	; (80016a4 <HAL_RCC_OscConfig+0x624>)
 80015e2:	681a      	ldr	r2, [r3, #0]
 80015e4:	4b2f      	ldr	r3, [pc, #188]	; (80016a4 <HAL_RCC_OscConfig+0x624>)
 80015e6:	2180      	movs	r1, #128	; 0x80
 80015e8:	0449      	lsls	r1, r1, #17
 80015ea:	430a      	orrs	r2, r1
 80015ec:	601a      	str	r2, [r3, #0]
        
        /* Get Start Tick */
        tickstart = HAL_GetTick();
 80015ee:	f7ff faf7 	bl	8000be0 <HAL_GetTick>
 80015f2:	0003      	movs	r3, r0
 80015f4:	61bb      	str	r3, [r7, #24]
        
        /* Wait till PLL is ready */
        while(__HAL_RCC_GET_FLAG(RCC_FLAG_PLLRDY)  == RESET)
 80015f6:	e008      	b.n	800160a <HAL_RCC_OscConfig+0x58a>
        {
          if((HAL_GetTick() - tickstart ) > PLL_TIMEOUT_VALUE)
 80015f8:	f7ff faf2 	bl	8000be0 <HAL_GetTick>
 80015fc:	0002      	movs	r2, r0
 80015fe:	69bb      	ldr	r3, [r7, #24]
 8001600:	1ad3      	subs	r3, r2, r3
 8001602:	2b02      	cmp	r3, #2
 8001604:	d901      	bls.n	800160a <HAL_RCC_OscConfig+0x58a>
          {
            return HAL_TIMEOUT;
 8001606:	2303      	movs	r3, #3
 8001608:	e047      	b.n	800169a <HAL_RCC_OscConfig+0x61a>
        while(__HAL_RCC_GET_FLAG(RCC_FLAG_PLLRDY)  == RESET)
 800160a:	4b26      	ldr	r3, [pc, #152]	; (80016a4 <HAL_RCC_OscConfig+0x624>)
 800160c:	681a      	ldr	r2, [r3, #0]
 800160e:	2380      	movs	r3, #128	; 0x80
 8001610:	049b      	lsls	r3, r3, #18
 8001612:	4013      	ands	r3, r2
 8001614:	d0f0      	beq.n	80015f8 <HAL_RCC_OscConfig+0x578>
 8001616:	e03f      	b.n	8001698 <HAL_RCC_OscConfig+0x618>
        }
      }
      else
      {
        /* Disable the main PLL. */
        __HAL_RCC_PLL_DISABLE();
 8001618:	4b22      	ldr	r3, [pc, #136]	; (80016a4 <HAL_RCC_OscConfig+0x624>)
 800161a:	681a      	ldr	r2, [r3, #0]
 800161c:	4b21      	ldr	r3, [pc, #132]	; (80016a4 <HAL_RCC_OscConfig+0x624>)
 800161e:	4924      	ldr	r1, [pc, #144]	; (80016b0 <HAL_RCC_OscConfig+0x630>)
 8001620:	400a      	ands	r2, r1
 8001622:	601a      	str	r2, [r3, #0]
 
        /* Get Start Tick */
        tickstart = HAL_GetTick();
 8001624:	f7ff fadc 	bl	8000be0 <HAL_GetTick>
 8001628:	0003      	movs	r3, r0
 800162a:	61bb      	str	r3, [r7, #24]
        
        /* Wait till PLL is disabled */  
        while(__HAL_RCC_GET_FLAG(RCC_FLAG_PLLRDY)  != RESET)
 800162c:	e008      	b.n	8001640 <HAL_RCC_OscConfig+0x5c0>
        {
          if((HAL_GetTick() - tickstart ) > PLL_TIMEOUT_VALUE)
 800162e:	f7ff fad7 	bl	8000be0 <HAL_GetTick>
 8001632:	0002      	movs	r2, r0
 8001634:	69bb      	ldr	r3, [r7, #24]
 8001636:	1ad3      	subs	r3, r2, r3
 8001638:	2b02      	cmp	r3, #2
 800163a:	d901      	bls.n	8001640 <HAL_RCC_OscConfig+0x5c0>
          {
            return HAL_TIMEOUT;
 800163c:	2303      	movs	r3, #3
 800163e:	e02c      	b.n	800169a <HAL_RCC_OscConfig+0x61a>
        while(__HAL_RCC_GET_FLAG(RCC_FLAG_PLLRDY)  != RESET)
 8001640:	4b18      	ldr	r3, [pc, #96]	; (80016a4 <HAL_RCC_OscConfig+0x624>)
 8001642:	681a      	ldr	r2, [r3, #0]
 8001644:	2380      	movs	r3, #128	; 0x80
 8001646:	049b      	lsls	r3, r3, #18
 8001648:	4013      	ands	r3, r2
 800164a:	d1f0      	bne.n	800162e <HAL_RCC_OscConfig+0x5ae>
 800164c:	e024      	b.n	8001698 <HAL_RCC_OscConfig+0x618>
      }
    }
    else
    {
      /* Check if there is a request to disable the PLL used as System clock source */
      if((RCC_OscInitStruct->PLL.PLLState) == RCC_PLL_OFF)
 800164e:	687b      	ldr	r3, [r7, #4]
 8001650:	6a1b      	ldr	r3, [r3, #32]
 8001652:	2b01      	cmp	r3, #1
 8001654:	d101      	bne.n	800165a <HAL_RCC_OscConfig+0x5da>
      {
        return HAL_ERROR;
 8001656:	2301      	movs	r3, #1
 8001658:	e01f      	b.n	800169a <HAL_RCC_OscConfig+0x61a>
      }
      else
      {
        /* Do not return HAL_ERROR if request repeats the current configuration */
        pll_config  = RCC->CFGR;
 800165a:	4b12      	ldr	r3, [pc, #72]	; (80016a4 <HAL_RCC_OscConfig+0x624>)
 800165c:	685b      	ldr	r3, [r3, #4]
 800165e:	617b      	str	r3, [r7, #20]
        pll_config2 = RCC->CFGR2;
 8001660:	4b10      	ldr	r3, [pc, #64]	; (80016a4 <HAL_RCC_OscConfig+0x624>)
 8001662:	6adb      	ldr	r3, [r3, #44]	; 0x2c
 8001664:	613b      	str	r3, [r7, #16]
        if((READ_BIT(pll_config,  RCC_CFGR_PLLSRC)  != RCC_OscInitStruct->PLL.PLLSource) ||
 8001666:	697a      	ldr	r2, [r7, #20]
 8001668:	2380      	movs	r3, #128	; 0x80
 800166a:	025b      	lsls	r3, r3, #9
 800166c:	401a      	ands	r2, r3
 800166e:	687b      	ldr	r3, [r7, #4]
 8001670:	6a5b      	ldr	r3, [r3, #36]	; 0x24
 8001672:	429a      	cmp	r2, r3
 8001674:	d10e      	bne.n	8001694 <HAL_RCC_OscConfig+0x614>
           (READ_BIT(pll_config2, RCC_CFGR2_PREDIV) != RCC_OscInitStruct->PLL.PREDIV)    ||
 8001676:	693b      	ldr	r3, [r7, #16]
 8001678:	220f      	movs	r2, #15
 800167a:	401a      	ands	r2, r3
 800167c:	687b      	ldr	r3, [r7, #4]
 800167e:	6adb      	ldr	r3, [r3, #44]	; 0x2c
        if((READ_BIT(pll_config,  RCC_CFGR_PLLSRC)  != RCC_OscInitStruct->PLL.PLLSource) ||
 8001680:	429a      	cmp	r2, r3
 8001682:	d107      	bne.n	8001694 <HAL_RCC_OscConfig+0x614>
           (READ_BIT(pll_config,  RCC_CFGR_PLLMUL)  != RCC_OscInitStruct->PLL.PLLMUL))
 8001684:	697a      	ldr	r2, [r7, #20]
 8001686:	23f0      	movs	r3, #240	; 0xf0
 8001688:	039b      	lsls	r3, r3, #14
 800168a:	401a      	ands	r2, r3
 800168c:	687b      	ldr	r3, [r7, #4]
 800168e:	6a9b      	ldr	r3, [r3, #40]	; 0x28
           (READ_BIT(pll_config2, RCC_CFGR2_PREDIV) != RCC_OscInitStruct->PLL.PREDIV)    ||
 8001690:	429a      	cmp	r2, r3
 8001692:	d001      	beq.n	8001698 <HAL_RCC_OscConfig+0x618>
        {
          return HAL_ERROR;
 8001694:	2301      	movs	r3, #1
 8001696:	e000      	b.n	800169a <HAL_RCC_OscConfig+0x61a>
        }
      }
    }
  }

  return HAL_OK;
 8001698:	2300      	movs	r3, #0
}
 800169a:	0018      	movs	r0, r3
 800169c:	46bd      	mov	sp, r7
 800169e:	b008      	add	sp, #32
 80016a0:	bd80      	pop	{r7, pc}
 80016a2:	46c0      	nop			; (mov r8, r8)
 80016a4:	40021000 	.word	0x40021000
 80016a8:	00001388 	.word	0x00001388
 80016ac:	efffffff 	.word	0xefffffff
 80016b0:	feffffff 	.word	0xfeffffff
 80016b4:	ffc2ffff 	.word	0xffc2ffff

080016b8 <HAL_RCC_ClockConfig>:
  *         You can use @ref HAL_RCC_GetClockConfig() function to know which clock is
  *         currently used as system clock source.
  * @retval HAL status
  */
HAL_StatusTypeDef HAL_RCC_ClockConfig(RCC_ClkInitTypeDef  *RCC_ClkInitStruct, uint32_t FLatency)
{
 80016b8:	b580      	push	{r7, lr}
 80016ba:	b084      	sub	sp, #16
 80016bc:	af00      	add	r7, sp, #0
 80016be:	6078      	str	r0, [r7, #4]
 80016c0:	6039      	str	r1, [r7, #0]
  uint32_t tickstart;

  /* Check Null pointer */
  if(RCC_ClkInitStruct == NULL)
 80016c2:	687b      	ldr	r3, [r7, #4]
 80016c4:	2b00      	cmp	r3, #0
 80016c6:	d101      	bne.n	80016cc <HAL_RCC_ClockConfig+0x14>
  {
    return HAL_ERROR;
 80016c8:	2301      	movs	r3, #1
 80016ca:	e0b3      	b.n	8001834 <HAL_RCC_ClockConfig+0x17c>
  /* To correctly read data from FLASH memory, the number of wait states (LATENCY) 
  must be correctly programmed according to the frequency of the CPU clock 
    (HCLK) of the device. */

  /* Increasing the number of wait states because of higher CPU frequency */
  if(FLatency > __HAL_FLASH_GET_LATENCY())
 80016cc:	4b5b      	ldr	r3, [pc, #364]	; (800183c <HAL_RCC_ClockConfig+0x184>)
 80016ce:	681b      	ldr	r3, [r3, #0]
 80016d0:	2201      	movs	r2, #1
 80016d2:	4013      	ands	r3, r2
 80016d4:	683a      	ldr	r2, [r7, #0]
 80016d6:	429a      	cmp	r2, r3
 80016d8:	d911      	bls.n	80016fe <HAL_RCC_ClockConfig+0x46>
  {    
    /* Program the new number of wait states to the LATENCY bits in the FLASH_ACR register */
    __HAL_FLASH_SET_LATENCY(FLatency);
 80016da:	4b58      	ldr	r3, [pc, #352]	; (800183c <HAL_RCC_ClockConfig+0x184>)
 80016dc:	681b      	ldr	r3, [r3, #0]
 80016de:	2201      	movs	r2, #1
 80016e0:	4393      	bics	r3, r2
 80016e2:	0019      	movs	r1, r3
 80016e4:	4b55      	ldr	r3, [pc, #340]	; (800183c <HAL_RCC_ClockConfig+0x184>)
 80016e6:	683a      	ldr	r2, [r7, #0]
 80016e8:	430a      	orrs	r2, r1
 80016ea:	601a      	str	r2, [r3, #0]
    
    /* Check that the new number of wait states is taken into account to access the Flash
    memory by reading the FLASH_ACR register */
    if(__HAL_FLASH_GET_LATENCY() != FLatency)
 80016ec:	4b53      	ldr	r3, [pc, #332]	; (800183c <HAL_RCC_ClockConfig+0x184>)
 80016ee:	681b      	ldr	r3, [r3, #0]
 80016f0:	2201      	movs	r2, #1
 80016f2:	4013      	ands	r3, r2
 80016f4:	683a      	ldr	r2, [r7, #0]
 80016f6:	429a      	cmp	r2, r3
 80016f8:	d001      	beq.n	80016fe <HAL_RCC_ClockConfig+0x46>
    {
      return HAL_ERROR;
 80016fa:	2301      	movs	r3, #1
 80016fc:	e09a      	b.n	8001834 <HAL_RCC_ClockConfig+0x17c>
    }
  }

  /*-------------------------- HCLK Configuration --------------------------*/
  if(((RCC_ClkInitStruct->ClockType) & RCC_CLOCKTYPE_HCLK) == RCC_CLOCKTYPE_HCLK)
 80016fe:	687b      	ldr	r3, [r7, #4]
 8001700:	681b      	ldr	r3, [r3, #0]
 8001702:	2202      	movs	r2, #2
 8001704:	4013      	ands	r3, r2
 8001706:	d015      	beq.n	8001734 <HAL_RCC_ClockConfig+0x7c>
  {
    /* Set the highest APB divider in order to ensure that we do not go through
       a non-spec phase whatever we decrease or increase HCLK. */
    if(((RCC_ClkInitStruct->ClockType) & RCC_CLOCKTYPE_PCLK1) == RCC_CLOCKTYPE_PCLK1)
 8001708:	687b      	ldr	r3, [r7, #4]
 800170a:	681b      	ldr	r3, [r3, #0]
 800170c:	2204      	movs	r2, #4
 800170e:	4013      	ands	r3, r2
 8001710:	d006      	beq.n	8001720 <HAL_RCC_ClockConfig+0x68>
    {
      MODIFY_REG(RCC->CFGR, RCC_CFGR_PPRE, RCC_HCLK_DIV16);
 8001712:	4b4b      	ldr	r3, [pc, #300]	; (8001840 <HAL_RCC_ClockConfig+0x188>)
 8001714:	685a      	ldr	r2, [r3, #4]
 8001716:	4b4a      	ldr	r3, [pc, #296]	; (8001840 <HAL_RCC_ClockConfig+0x188>)
 8001718:	21e0      	movs	r1, #224	; 0xe0
 800171a:	00c9      	lsls	r1, r1, #3
 800171c:	430a      	orrs	r2, r1
 800171e:	605a      	str	r2, [r3, #4]
    }

    /* Set the new HCLK clock divider */
    assert_param(IS_RCC_HCLK(RCC_ClkInitStruct->AHBCLKDivider));
    MODIFY_REG(RCC->CFGR, RCC_CFGR_HPRE, RCC_ClkInitStruct->AHBCLKDivider);
 8001720:	4b47      	ldr	r3, [pc, #284]	; (8001840 <HAL_RCC_ClockConfig+0x188>)
 8001722:	685b      	ldr	r3, [r3, #4]
 8001724:	22f0      	movs	r2, #240	; 0xf0
 8001726:	4393      	bics	r3, r2
 8001728:	0019      	movs	r1, r3
 800172a:	687b      	ldr	r3, [r7, #4]
 800172c:	689a      	ldr	r2, [r3, #8]
 800172e:	4b44      	ldr	r3, [pc, #272]	; (8001840 <HAL_RCC_ClockConfig+0x188>)
 8001730:	430a      	orrs	r2, r1
 8001732:	605a      	str	r2, [r3, #4]
  }

  /*------------------------- SYSCLK Configuration ---------------------------*/ 
  if(((RCC_ClkInitStruct->ClockType) & RCC_CLOCKTYPE_SYSCLK) == RCC_CLOCKTYPE_SYSCLK)
 8001734:	687b      	ldr	r3, [r7, #4]
 8001736:	681b      	ldr	r3, [r3, #0]
 8001738:	2201      	movs	r2, #1
 800173a:	4013      	ands	r3, r2
 800173c:	d040      	beq.n	80017c0 <HAL_RCC_ClockConfig+0x108>
  {
    assert_param(IS_RCC_SYSCLKSOURCE(RCC_ClkInitStruct->SYSCLKSource));
    
    /* HSE is selected as System Clock Source */
    if(RCC_ClkInitStruct->SYSCLKSource == RCC_SYSCLKSOURCE_HSE)
 800173e:	687b      	ldr	r3, [r7, #4]
 8001740:	685b      	ldr	r3, [r3, #4]
 8001742:	2b01      	cmp	r3, #1
 8001744:	d107      	bne.n	8001756 <HAL_RCC_ClockConfig+0x9e>
    {
      /* Check the HSE ready flag */  
      if(__HAL_RCC_GET_FLAG(RCC_FLAG_HSERDY) == RESET)
 8001746:	4b3e      	ldr	r3, [pc, #248]	; (8001840 <HAL_RCC_ClockConfig+0x188>)
 8001748:	681a      	ldr	r2, [r3, #0]
 800174a:	2380      	movs	r3, #128	; 0x80
 800174c:	029b      	lsls	r3, r3, #10
 800174e:	4013      	ands	r3, r2
 8001750:	d114      	bne.n	800177c <HAL_RCC_ClockConfig+0xc4>
      {
        return HAL_ERROR;
 8001752:	2301      	movs	r3, #1
 8001754:	e06e      	b.n	8001834 <HAL_RCC_ClockConfig+0x17c>
      }
    }
    /* PLL is selected as System Clock Source */
    else if(RCC_ClkInitStruct->SYSCLKSource == RCC_SYSCLKSOURCE_PLLCLK)
 8001756:	687b      	ldr	r3, [r7, #4]
 8001758:	685b      	ldr	r3, [r3, #4]
 800175a:	2b02      	cmp	r3, #2
 800175c:	d107      	bne.n	800176e <HAL_RCC_ClockConfig+0xb6>
    {
      /* Check the PLL ready flag */  
      if(__HAL_RCC_GET_FLAG(RCC_FLAG_PLLRDY) == RESET)
 800175e:	4b38      	ldr	r3, [pc, #224]	; (8001840 <HAL_RCC_ClockConfig+0x188>)
 8001760:	681a      	ldr	r2, [r3, #0]
 8001762:	2380      	movs	r3, #128	; 0x80
 8001764:	049b      	lsls	r3, r3, #18
 8001766:	4013      	ands	r3, r2
 8001768:	d108      	bne.n	800177c <HAL_RCC_ClockConfig+0xc4>
      {
        return HAL_ERROR;
 800176a:	2301      	movs	r3, #1
 800176c:	e062      	b.n	8001834 <HAL_RCC_ClockConfig+0x17c>
#endif /* RCC_CFGR_SWS_HSI48 */
    /* HSI is selected as System Clock Source */
    else
    {
      /* Check the HSI ready flag */  
      if(__HAL_RCC_GET_FLAG(RCC_FLAG_HSIRDY) == RESET)
 800176e:	4b34      	ldr	r3, [pc, #208]	; (8001840 <HAL_RCC_ClockConfig+0x188>)
 8001770:	681b      	ldr	r3, [r3, #0]
 8001772:	2202      	movs	r2, #2
 8001774:	4013      	ands	r3, r2
 8001776:	d101      	bne.n	800177c <HAL_RCC_ClockConfig+0xc4>
      {
        return HAL_ERROR;
 8001778:	2301      	movs	r3, #1
 800177a:	e05b      	b.n	8001834 <HAL_RCC_ClockConfig+0x17c>
      }
    }
    __HAL_RCC_SYSCLK_CONFIG(RCC_ClkInitStruct->SYSCLKSource);
 800177c:	4b30      	ldr	r3, [pc, #192]	; (8001840 <HAL_RCC_ClockConfig+0x188>)
 800177e:	685b      	ldr	r3, [r3, #4]
 8001780:	2203      	movs	r2, #3
 8001782:	4393      	bics	r3, r2
 8001784:	0019      	movs	r1, r3
 8001786:	687b      	ldr	r3, [r7, #4]
 8001788:	685a      	ldr	r2, [r3, #4]
 800178a:	4b2d      	ldr	r3, [pc, #180]	; (8001840 <HAL_RCC_ClockConfig+0x188>)
 800178c:	430a      	orrs	r2, r1
 800178e:	605a      	str	r2, [r3, #4]

    /* Get Start Tick */
    tickstart = HAL_GetTick();
 8001790:	f7ff fa26 	bl	8000be0 <HAL_GetTick>
 8001794:	0003      	movs	r3, r0
 8001796:	60fb      	str	r3, [r7, #12]
    
    while (__HAL_RCC_GET_SYSCLK_SOURCE() != (RCC_ClkInitStruct->SYSCLKSource << RCC_CFGR_SWS_Pos))
 8001798:	e009      	b.n	80017ae <HAL_RCC_ClockConfig+0xf6>
    {
      if((HAL_GetTick() - tickstart ) > CLOCKSWITCH_TIMEOUT_VALUE)
 800179a:	f7ff fa21 	bl	8000be0 <HAL_GetTick>
 800179e:	0002      	movs	r2, r0
 80017a0:	68fb      	ldr	r3, [r7, #12]
 80017a2:	1ad3      	subs	r3, r2, r3
 80017a4:	4a27      	ldr	r2, [pc, #156]	; (8001844 <HAL_RCC_ClockConfig+0x18c>)
 80017a6:	4293      	cmp	r3, r2
 80017a8:	d901      	bls.n	80017ae <HAL_RCC_ClockConfig+0xf6>
      {
        return HAL_TIMEOUT;
 80017aa:	2303      	movs	r3, #3
 80017ac:	e042      	b.n	8001834 <HAL_RCC_ClockConfig+0x17c>
    while (__HAL_RCC_GET_SYSCLK_SOURCE() != (RCC_ClkInitStruct->SYSCLKSource << RCC_CFGR_SWS_Pos))
 80017ae:	4b24      	ldr	r3, [pc, #144]	; (8001840 <HAL_RCC_ClockConfig+0x188>)
 80017b0:	685b      	ldr	r3, [r3, #4]
 80017b2:	220c      	movs	r2, #12
 80017b4:	401a      	ands	r2, r3
 80017b6:	687b      	ldr	r3, [r7, #4]
 80017b8:	685b      	ldr	r3, [r3, #4]
 80017ba:	009b      	lsls	r3, r3, #2
 80017bc:	429a      	cmp	r2, r3
 80017be:	d1ec      	bne.n	800179a <HAL_RCC_ClockConfig+0xe2>
      }
    }
  }

  /* Decreasing the number of wait states because of lower CPU frequency */
  if(FLatency < __HAL_FLASH_GET_LATENCY())
 80017c0:	4b1e      	ldr	r3, [pc, #120]	; (800183c <HAL_RCC_ClockConfig+0x184>)
 80017c2:	681b      	ldr	r3, [r3, #0]
 80017c4:	2201      	movs	r2, #1
 80017c6:	4013      	ands	r3, r2
 80017c8:	683a      	ldr	r2, [r7, #0]
 80017ca:	429a      	cmp	r2, r3
 80017cc:	d211      	bcs.n	80017f2 <HAL_RCC_ClockConfig+0x13a>
  {    
    /* Program the new number of wait states to the LATENCY bits in the FLASH_ACR register */
    __HAL_FLASH_SET_LATENCY(FLatency);
 80017ce:	4b1b      	ldr	r3, [pc, #108]	; (800183c <HAL_RCC_ClockConfig+0x184>)
 80017d0:	681b      	ldr	r3, [r3, #0]
 80017d2:	2201      	movs	r2, #1
 80017d4:	4393      	bics	r3, r2
 80017d6:	0019      	movs	r1, r3
 80017d8:	4b18      	ldr	r3, [pc, #96]	; (800183c <HAL_RCC_ClockConfig+0x184>)
 80017da:	683a      	ldr	r2, [r7, #0]
 80017dc:	430a      	orrs	r2, r1
 80017de:	601a      	str	r2, [r3, #0]
    
    /* Check that the new number of wait states is taken into account to access the Flash
    memory by reading the FLASH_ACR register */
    if(__HAL_FLASH_GET_LATENCY() != FLatency)
 80017e0:	4b16      	ldr	r3, [pc, #88]	; (800183c <HAL_RCC_ClockConfig+0x184>)
 80017e2:	681b      	ldr	r3, [r3, #0]
 80017e4:	2201      	movs	r2, #1
 80017e6:	4013      	ands	r3, r2
 80017e8:	683a      	ldr	r2, [r7, #0]
 80017ea:	429a      	cmp	r2, r3
 80017ec:	d001      	beq.n	80017f2 <HAL_RCC_ClockConfig+0x13a>
    {
      return HAL_ERROR;
 80017ee:	2301      	movs	r3, #1
 80017f0:	e020      	b.n	8001834 <HAL_RCC_ClockConfig+0x17c>
    }
  }    

  /*-------------------------- PCLK1 Configuration ---------------------------*/ 
  if(((RCC_ClkInitStruct->ClockType) & RCC_CLOCKTYPE_PCLK1) == RCC_CLOCKTYPE_PCLK1)
 80017f2:	687b      	ldr	r3, [r7, #4]
 80017f4:	681b      	ldr	r3, [r3, #0]
 80017f6:	2204      	movs	r2, #4
 80017f8:	4013      	ands	r3, r2
 80017fa:	d009      	beq.n	8001810 <HAL_RCC_ClockConfig+0x158>
  {
    assert_param(IS_RCC_PCLK(RCC_ClkInitStruct->APB1CLKDivider));
    MODIFY_REG(RCC->CFGR, RCC_CFGR_PPRE, RCC_ClkInitStruct->APB1CLKDivider);
 80017fc:	4b10      	ldr	r3, [pc, #64]	; (8001840 <HAL_RCC_ClockConfig+0x188>)
 80017fe:	685b      	ldr	r3, [r3, #4]
 8001800:	4a11      	ldr	r2, [pc, #68]	; (8001848 <HAL_RCC_ClockConfig+0x190>)
 8001802:	4013      	ands	r3, r2
 8001804:	0019      	movs	r1, r3
 8001806:	687b      	ldr	r3, [r7, #4]
 8001808:	68da      	ldr	r2, [r3, #12]
 800180a:	4b0d      	ldr	r3, [pc, #52]	; (8001840 <HAL_RCC_ClockConfig+0x188>)
 800180c:	430a      	orrs	r2, r1
 800180e:	605a      	str	r2, [r3, #4]
  }
  
  /* Update the SystemCoreClock global variable */
  SystemCoreClock = HAL_RCC_GetSysClockFreq() >> AHBPrescTable[(RCC->CFGR & RCC_CFGR_HPRE)>> RCC_CFGR_HPRE_BITNUMBER];
 8001810:	f000 f820 	bl	8001854 <HAL_RCC_GetSysClockFreq>
 8001814:	0001      	movs	r1, r0
 8001816:	4b0a      	ldr	r3, [pc, #40]	; (8001840 <HAL_RCC_ClockConfig+0x188>)
 8001818:	685b      	ldr	r3, [r3, #4]
 800181a:	091b      	lsrs	r3, r3, #4
 800181c:	220f      	movs	r2, #15
 800181e:	4013      	ands	r3, r2
 8001820:	4a0a      	ldr	r2, [pc, #40]	; (800184c <HAL_RCC_ClockConfig+0x194>)
 8001822:	5cd3      	ldrb	r3, [r2, r3]
 8001824:	000a      	movs	r2, r1
 8001826:	40da      	lsrs	r2, r3
 8001828:	4b09      	ldr	r3, [pc, #36]	; (8001850 <HAL_RCC_ClockConfig+0x198>)
 800182a:	601a      	str	r2, [r3, #0]

  /* Configure the source of time base considering new system clocks settings*/
  HAL_InitTick (TICK_INT_PRIORITY);
 800182c:	2000      	movs	r0, #0
 800182e:	f7ff f991 	bl	8000b54 <HAL_InitTick>
  
  return HAL_OK;
 8001832:	2300      	movs	r3, #0
}
 8001834:	0018      	movs	r0, r3
 8001836:	46bd      	mov	sp, r7
 8001838:	b004      	add	sp, #16
 800183a:	bd80      	pop	{r7, pc}
 800183c:	40022000 	.word	0x40022000
 8001840:	40021000 	.word	0x40021000
 8001844:	00001388 	.word	0x00001388
 8001848:	fffff8ff 	.word	0xfffff8ff
 800184c:	080025cc 	.word	0x080025cc
 8001850:	2000000c 	.word	0x2000000c

08001854 <HAL_RCC_GetSysClockFreq>:
  *         right SYSCLK value. Otherwise, any configuration based on this function will be incorrect.
  *         
  * @retval SYSCLK frequency
  */
uint32_t HAL_RCC_GetSysClockFreq(void)
{
 8001854:	b590      	push	{r4, r7, lr}
 8001856:	b08f      	sub	sp, #60	; 0x3c
 8001858:	af00      	add	r7, sp, #0
  const uint8_t aPLLMULFactorTable[16] = { 2U,  3U,  4U,  5U,  6U,  7U,  8U,  9U,
 800185a:	2314      	movs	r3, #20
 800185c:	18fb      	adds	r3, r7, r3
 800185e:	4a2b      	ldr	r2, [pc, #172]	; (800190c <HAL_RCC_GetSysClockFreq+0xb8>)
 8001860:	ca13      	ldmia	r2!, {r0, r1, r4}
 8001862:	c313      	stmia	r3!, {r0, r1, r4}
 8001864:	6812      	ldr	r2, [r2, #0]
 8001866:	601a      	str	r2, [r3, #0]
                                         10U, 11U, 12U, 13U, 14U, 15U, 16U, 16U};
  const uint8_t aPredivFactorTable[16] = { 1U, 2U,  3U,  4U,  5U,  6U,  7U,  8U,
 8001868:	1d3b      	adds	r3, r7, #4
 800186a:	4a29      	ldr	r2, [pc, #164]	; (8001910 <HAL_RCC_GetSysClockFreq+0xbc>)
 800186c:	ca13      	ldmia	r2!, {r0, r1, r4}
 800186e:	c313      	stmia	r3!, {r0, r1, r4}
 8001870:	6812      	ldr	r2, [r2, #0]
 8001872:	601a      	str	r2, [r3, #0]
                                           9U,10U, 11U, 12U, 13U, 14U, 15U, 16U};

  uint32_t tmpreg = 0U, prediv = 0U, pllclk = 0U, pllmul = 0U;
 8001874:	2300      	movs	r3, #0
 8001876:	62fb      	str	r3, [r7, #44]	; 0x2c
 8001878:	2300      	movs	r3, #0
 800187a:	62bb      	str	r3, [r7, #40]	; 0x28
 800187c:	2300      	movs	r3, #0
 800187e:	637b      	str	r3, [r7, #52]	; 0x34
 8001880:	2300      	movs	r3, #0
 8001882:	627b      	str	r3, [r7, #36]	; 0x24
  uint32_t sysclockfreq = 0U;
 8001884:	2300      	movs	r3, #0
 8001886:	633b      	str	r3, [r7, #48]	; 0x30
  
  tmpreg = RCC->CFGR;
 8001888:	4b22      	ldr	r3, [pc, #136]	; (8001914 <HAL_RCC_GetSysClockFreq+0xc0>)
 800188a:	685b      	ldr	r3, [r3, #4]
 800188c:	62fb      	str	r3, [r7, #44]	; 0x2c
  
  /* Get SYSCLK source -------------------------------------------------------*/
  switch (tmpreg & RCC_CFGR_SWS)
 800188e:	6afb      	ldr	r3, [r7, #44]	; 0x2c
 8001890:	220c      	movs	r2, #12
 8001892:	4013      	ands	r3, r2
 8001894:	2b04      	cmp	r3, #4
 8001896:	d002      	beq.n	800189e <HAL_RCC_GetSysClockFreq+0x4a>
 8001898:	2b08      	cmp	r3, #8
 800189a:	d003      	beq.n	80018a4 <HAL_RCC_GetSysClockFreq+0x50>
 800189c:	e02d      	b.n	80018fa <HAL_RCC_GetSysClockFreq+0xa6>
  {
    case RCC_SYSCLKSOURCE_STATUS_HSE:  /* HSE used as system clock */
    {
      sysclockfreq = HSE_VALUE;
 800189e:	4b1e      	ldr	r3, [pc, #120]	; (8001918 <HAL_RCC_GetSysClockFreq+0xc4>)
 80018a0:	633b      	str	r3, [r7, #48]	; 0x30
      break;
 80018a2:	e02d      	b.n	8001900 <HAL_RCC_GetSysClockFreq+0xac>
    }
    case RCC_SYSCLKSOURCE_STATUS_PLLCLK:  /* PLL used as system clock */
    {
      pllmul = aPLLMULFactorTable[(uint32_t)(tmpreg & RCC_CFGR_PLLMUL) >> RCC_CFGR_PLLMUL_BITNUMBER];
 80018a4:	6afb      	ldr	r3, [r7, #44]	; 0x2c
 80018a6:	0c9b      	lsrs	r3, r3, #18
 80018a8:	220f      	movs	r2, #15
 80018aa:	4013      	ands	r3, r2
 80018ac:	2214      	movs	r2, #20
 80018ae:	18ba      	adds	r2, r7, r2
 80018b0:	5cd3      	ldrb	r3, [r2, r3]
 80018b2:	627b      	str	r3, [r7, #36]	; 0x24
      prediv = aPredivFactorTable[(uint32_t)(RCC->CFGR2 & RCC_CFGR2_PREDIV) >> RCC_CFGR2_PREDIV_BITNUMBER];
 80018b4:	4b17      	ldr	r3, [pc, #92]	; (8001914 <HAL_RCC_GetSysClockFreq+0xc0>)
 80018b6:	6adb      	ldr	r3, [r3, #44]	; 0x2c
 80018b8:	220f      	movs	r2, #15
 80018ba:	4013      	ands	r3, r2
 80018bc:	1d3a      	adds	r2, r7, #4
 80018be:	5cd3      	ldrb	r3, [r2, r3]
 80018c0:	62bb      	str	r3, [r7, #40]	; 0x28
      if ((tmpreg & RCC_CFGR_PLLSRC) == RCC_PLLSOURCE_HSE)
 80018c2:	6afa      	ldr	r2, [r7, #44]	; 0x2c
 80018c4:	2380      	movs	r3, #128	; 0x80
 80018c6:	025b      	lsls	r3, r3, #9
 80018c8:	4013      	ands	r3, r2
 80018ca:	d009      	beq.n	80018e0 <HAL_RCC_GetSysClockFreq+0x8c>
      {
        /* HSE used as PLL clock source : PLLCLK = HSE/PREDIV * PLLMUL */
        pllclk = (uint32_t)((uint64_t) HSE_VALUE / (uint64_t) (prediv)) * ((uint64_t) pllmul);
 80018cc:	6ab9      	ldr	r1, [r7, #40]	; 0x28
 80018ce:	4812      	ldr	r0, [pc, #72]	; (8001918 <HAL_RCC_GetSysClockFreq+0xc4>)
 80018d0:	f7fe fc1a 	bl	8000108 <__udivsi3>
 80018d4:	0003      	movs	r3, r0
 80018d6:	001a      	movs	r2, r3
 80018d8:	6a7b      	ldr	r3, [r7, #36]	; 0x24
 80018da:	4353      	muls	r3, r2
 80018dc:	637b      	str	r3, [r7, #52]	; 0x34
 80018de:	e009      	b.n	80018f4 <HAL_RCC_GetSysClockFreq+0xa0>
#if  (defined(STM32F042x6) || defined(STM32F048xx) || defined(STM32F070x6) || defined(STM32F071xB) || defined(STM32F072xB) || defined(STM32F078xx) || defined(STM32F070xB) || defined(STM32F091xC) || defined(STM32F098xx) || defined(STM32F030xC))
        /* HSI used as PLL clock source : PLLCLK = HSI/PREDIV * PLLMUL */
        pllclk = (uint32_t)((uint64_t) HSI_VALUE / (uint64_t) (prediv)) * ((uint64_t) pllmul);
#else
        /* HSI used as PLL clock source : PLLCLK = HSI/2 * PLLMUL */
        pllclk = (uint32_t)((uint64_t) (HSI_VALUE >> 1U) * ((uint64_t) pllmul));
 80018e0:	6a79      	ldr	r1, [r7, #36]	; 0x24
 80018e2:	000a      	movs	r2, r1
 80018e4:	0152      	lsls	r2, r2, #5
 80018e6:	1a52      	subs	r2, r2, r1
 80018e8:	0193      	lsls	r3, r2, #6
 80018ea:	1a9b      	subs	r3, r3, r2
 80018ec:	00db      	lsls	r3, r3, #3
 80018ee:	185b      	adds	r3, r3, r1
 80018f0:	021b      	lsls	r3, r3, #8
 80018f2:	637b      	str	r3, [r7, #52]	; 0x34
#endif
      }
      sysclockfreq = pllclk;
 80018f4:	6b7b      	ldr	r3, [r7, #52]	; 0x34
 80018f6:	633b      	str	r3, [r7, #48]	; 0x30
      break;
 80018f8:	e002      	b.n	8001900 <HAL_RCC_GetSysClockFreq+0xac>
    }
#endif /* RCC_CFGR_SWS_HSI48 */
    case RCC_SYSCLKSOURCE_STATUS_HSI:  /* HSI used as system clock source */
    default: /* HSI used as system clock */
    {
      sysclockfreq = HSI_VALUE;
 80018fa:	4b07      	ldr	r3, [pc, #28]	; (8001918 <HAL_RCC_GetSysClockFreq+0xc4>)
 80018fc:	633b      	str	r3, [r7, #48]	; 0x30
      break;
 80018fe:	46c0      	nop			; (mov r8, r8)
    }
  }
  return sysclockfreq;
 8001900:	6b3b      	ldr	r3, [r7, #48]	; 0x30
}
 8001902:	0018      	movs	r0, r3
 8001904:	46bd      	mov	sp, r7
 8001906:	b00f      	add	sp, #60	; 0x3c
 8001908:	bd90      	pop	{r4, r7, pc}
 800190a:	46c0      	nop			; (mov r8, r8)
 800190c:	080025ac 	.word	0x080025ac
 8001910:	080025bc 	.word	0x080025bc
 8001914:	40021000 	.word	0x40021000
 8001918:	007a1200 	.word	0x007a1200

0800191c <HAL_TIM_Base_Init>:
  *         Ex: call @ref HAL_TIM_Base_DeInit() before HAL_TIM_Base_Init()
  * @param  htim TIM Base handle
  * @retval HAL status
  */
HAL_StatusTypeDef HAL_TIM_Base_Init(TIM_HandleTypeDef *htim)
{
 800191c:	b580      	push	{r7, lr}
 800191e:	b082      	sub	sp, #8
 8001920:	af00      	add	r7, sp, #0
 8001922:	6078      	str	r0, [r7, #4]
  /* Check the TIM handle allocation */
  if (htim == NULL)
 8001924:	687b      	ldr	r3, [r7, #4]
 8001926:	2b00      	cmp	r3, #0
 8001928:	d101      	bne.n	800192e <HAL_TIM_Base_Init+0x12>
  {
    return HAL_ERROR;
 800192a:	2301      	movs	r3, #1
 800192c:	e01e      	b.n	800196c <HAL_TIM_Base_Init+0x50>
  assert_param(IS_TIM_INSTANCE(htim->Instance));
  assert_param(IS_TIM_COUNTER_MODE(htim->Init.CounterMode));
  assert_param(IS_TIM_CLOCKDIVISION_DIV(htim->Init.ClockDivision));
  assert_param(IS_TIM_AUTORELOAD_PRELOAD(htim->Init.AutoReloadPreload));

  if (htim->State == HAL_TIM_STATE_RESET)
 800192e:	687b      	ldr	r3, [r7, #4]
 8001930:	223d      	movs	r2, #61	; 0x3d
 8001932:	5c9b      	ldrb	r3, [r3, r2]
 8001934:	b2db      	uxtb	r3, r3
 8001936:	2b00      	cmp	r3, #0
 8001938:	d107      	bne.n	800194a <HAL_TIM_Base_Init+0x2e>
  {
    /* Allocate lock resource and initialize it */
    htim->Lock = HAL_UNLOCKED;
 800193a:	687b      	ldr	r3, [r7, #4]
 800193c:	223c      	movs	r2, #60	; 0x3c
 800193e:	2100      	movs	r1, #0
 8001940:	5499      	strb	r1, [r3, r2]
    }
    /* Init the low level hardware : GPIO, CLOCK, NVIC */
    htim->Base_MspInitCallback(htim);
#else
    /* Init the low level hardware : GPIO, CLOCK, NVIC */
    HAL_TIM_Base_MspInit(htim);
 8001942:	687b      	ldr	r3, [r7, #4]
 8001944:	0018      	movs	r0, r3
 8001946:	f7fe ffb7 	bl	80008b8 <HAL_TIM_Base_MspInit>
#endif /* USE_HAL_TIM_REGISTER_CALLBACKS */
  }

  /* Set the TIM state */
  htim->State = HAL_TIM_STATE_BUSY;
 800194a:	687b      	ldr	r3, [r7, #4]
 800194c:	223d      	movs	r2, #61	; 0x3d
 800194e:	2102      	movs	r1, #2
 8001950:	5499      	strb	r1, [r3, r2]

  /* Set the Time Base configuration */
  TIM_Base_SetConfig(htim->Instance, &htim->Init);
 8001952:	687b      	ldr	r3, [r7, #4]
 8001954:	681a      	ldr	r2, [r3, #0]
 8001956:	687b      	ldr	r3, [r7, #4]
 8001958:	3304      	adds	r3, #4
 800195a:	0019      	movs	r1, r3
 800195c:	0010      	movs	r0, r2
 800195e:	f000 f9f7 	bl	8001d50 <TIM_Base_SetConfig>

  /* Initialize the TIM state*/
  htim->State = HAL_TIM_STATE_READY;
 8001962:	687b      	ldr	r3, [r7, #4]
 8001964:	223d      	movs	r2, #61	; 0x3d
 8001966:	2101      	movs	r1, #1
 8001968:	5499      	strb	r1, [r3, r2]

  return HAL_OK;
 800196a:	2300      	movs	r3, #0
}
 800196c:	0018      	movs	r0, r3
 800196e:	46bd      	mov	sp, r7
 8001970:	b002      	add	sp, #8
 8001972:	bd80      	pop	{r7, pc}

08001974 <HAL_TIM_PWM_Init>:
  *         Ex: call @ref HAL_TIM_PWM_DeInit() before HAL_TIM_PWM_Init()
  * @param  htim TIM PWM handle
  * @retval HAL status
  */
HAL_StatusTypeDef HAL_TIM_PWM_Init(TIM_HandleTypeDef *htim)
{
 8001974:	b580      	push	{r7, lr}
 8001976:	b082      	sub	sp, #8
 8001978:	af00      	add	r7, sp, #0
 800197a:	6078      	str	r0, [r7, #4]
  /* Check the TIM handle allocation */
  if (htim == NULL)
 800197c:	687b      	ldr	r3, [r7, #4]
 800197e:	2b00      	cmp	r3, #0
 8001980:	d101      	bne.n	8001986 <HAL_TIM_PWM_Init+0x12>
  {
    return HAL_ERROR;
 8001982:	2301      	movs	r3, #1
 8001984:	e01e      	b.n	80019c4 <HAL_TIM_PWM_Init+0x50>
  assert_param(IS_TIM_INSTANCE(htim->Instance));
  assert_param(IS_TIM_COUNTER_MODE(htim->Init.CounterMode));
  assert_param(IS_TIM_CLOCKDIVISION_DIV(htim->Init.ClockDivision));
  assert_param(IS_TIM_AUTORELOAD_PRELOAD(htim->Init.AutoReloadPreload));

  if (htim->State == HAL_TIM_STATE_RESET)
 8001986:	687b      	ldr	r3, [r7, #4]
 8001988:	223d      	movs	r2, #61	; 0x3d
 800198a:	5c9b      	ldrb	r3, [r3, r2]
 800198c:	b2db      	uxtb	r3, r3
 800198e:	2b00      	cmp	r3, #0
 8001990:	d107      	bne.n	80019a2 <HAL_TIM_PWM_Init+0x2e>
  {
    /* Allocate lock resource and initialize it */
    htim->Lock = HAL_UNLOCKED;
 8001992:	687b      	ldr	r3, [r7, #4]
 8001994:	223c      	movs	r2, #60	; 0x3c
 8001996:	2100      	movs	r1, #0
 8001998:	5499      	strb	r1, [r3, r2]
    }
    /* Init the low level hardware : GPIO, CLOCK, NVIC */
    htim->PWM_MspInitCallback(htim);
#else
    /* Init the low level hardware : GPIO, CLOCK, NVIC and DMA */
    HAL_TIM_PWM_MspInit(htim);
 800199a:	687b      	ldr	r3, [r7, #4]
 800199c:	0018      	movs	r0, r3
 800199e:	f7fe ffab 	bl	80008f8 <HAL_TIM_PWM_MspInit>
#endif /* USE_HAL_TIM_REGISTER_CALLBACKS */
  }

  /* Set the TIM state */
  htim->State = HAL_TIM_STATE_BUSY;
 80019a2:	687b      	ldr	r3, [r7, #4]
 80019a4:	223d      	movs	r2, #61	; 0x3d
 80019a6:	2102      	movs	r1, #2
 80019a8:	5499      	strb	r1, [r3, r2]

  /* Init the base time for the PWM */
  TIM_Base_SetConfig(htim->Instance, &htim->Init);
 80019aa:	687b      	ldr	r3, [r7, #4]
 80019ac:	681a      	ldr	r2, [r3, #0]
 80019ae:	687b      	ldr	r3, [r7, #4]
 80019b0:	3304      	adds	r3, #4
 80019b2:	0019      	movs	r1, r3
 80019b4:	0010      	movs	r0, r2
 80019b6:	f000 f9cb 	bl	8001d50 <TIM_Base_SetConfig>

  /* Initialize the TIM state*/
  htim->State = HAL_TIM_STATE_READY;
 80019ba:	687b      	ldr	r3, [r7, #4]
 80019bc:	223d      	movs	r2, #61	; 0x3d
 80019be:	2101      	movs	r1, #1
 80019c0:	5499      	strb	r1, [r3, r2]

  return HAL_OK;
 80019c2:	2300      	movs	r3, #0
}
 80019c4:	0018      	movs	r0, r3
 80019c6:	46bd      	mov	sp, r7
 80019c8:	b002      	add	sp, #8
 80019ca:	bd80      	pop	{r7, pc}

080019cc <HAL_TIM_PWM_Start>:
  *            @arg TIM_CHANNEL_3: TIM Channel 3 selected
  *            @arg TIM_CHANNEL_4: TIM Channel 4 selected
  * @retval HAL status
  */
HAL_StatusTypeDef HAL_TIM_PWM_Start(TIM_HandleTypeDef *htim, uint32_t Channel)
{
 80019cc:	b580      	push	{r7, lr}
 80019ce:	b084      	sub	sp, #16
 80019d0:	af00      	add	r7, sp, #0
 80019d2:	6078      	str	r0, [r7, #4]
 80019d4:	6039      	str	r1, [r7, #0]

  /* Check the parameters */
  assert_param(IS_TIM_CCX_INSTANCE(htim->Instance, Channel));

  /* Enable the Capture compare channel */
  TIM_CCxChannelCmd(htim->Instance, Channel, TIM_CCx_ENABLE);
 80019d6:	687b      	ldr	r3, [r7, #4]
 80019d8:	681b      	ldr	r3, [r3, #0]
 80019da:	6839      	ldr	r1, [r7, #0]
 80019dc:	2201      	movs	r2, #1
 80019de:	0018      	movs	r0, r3
 80019e0:	f000 fccc 	bl	800237c <TIM_CCxChannelCmd>

  if (IS_TIM_BREAK_INSTANCE(htim->Instance) != RESET)
 80019e4:	687b      	ldr	r3, [r7, #4]
 80019e6:	681b      	ldr	r3, [r3, #0]
 80019e8:	4a1a      	ldr	r2, [pc, #104]	; (8001a54 <HAL_TIM_PWM_Start+0x88>)
 80019ea:	4293      	cmp	r3, r2
 80019ec:	d00e      	beq.n	8001a0c <HAL_TIM_PWM_Start+0x40>
 80019ee:	687b      	ldr	r3, [r7, #4]
 80019f0:	681b      	ldr	r3, [r3, #0]
 80019f2:	4a19      	ldr	r2, [pc, #100]	; (8001a58 <HAL_TIM_PWM_Start+0x8c>)
 80019f4:	4293      	cmp	r3, r2
 80019f6:	d009      	beq.n	8001a0c <HAL_TIM_PWM_Start+0x40>
 80019f8:	687b      	ldr	r3, [r7, #4]
 80019fa:	681b      	ldr	r3, [r3, #0]
 80019fc:	4a17      	ldr	r2, [pc, #92]	; (8001a5c <HAL_TIM_PWM_Start+0x90>)
 80019fe:	4293      	cmp	r3, r2
 8001a00:	d004      	beq.n	8001a0c <HAL_TIM_PWM_Start+0x40>
 8001a02:	687b      	ldr	r3, [r7, #4]
 8001a04:	681b      	ldr	r3, [r3, #0]
 8001a06:	4a16      	ldr	r2, [pc, #88]	; (8001a60 <HAL_TIM_PWM_Start+0x94>)
 8001a08:	4293      	cmp	r3, r2
 8001a0a:	d101      	bne.n	8001a10 <HAL_TIM_PWM_Start+0x44>
 8001a0c:	2301      	movs	r3, #1
 8001a0e:	e000      	b.n	8001a12 <HAL_TIM_PWM_Start+0x46>
 8001a10:	2300      	movs	r3, #0
 8001a12:	2b00      	cmp	r3, #0
 8001a14:	d008      	beq.n	8001a28 <HAL_TIM_PWM_Start+0x5c>
  {
    /* Enable the main output */
    __HAL_TIM_MOE_ENABLE(htim);
 8001a16:	687b      	ldr	r3, [r7, #4]
 8001a18:	681b      	ldr	r3, [r3, #0]
 8001a1a:	6c5a      	ldr	r2, [r3, #68]	; 0x44
 8001a1c:	687b      	ldr	r3, [r7, #4]
 8001a1e:	681b      	ldr	r3, [r3, #0]
 8001a20:	2180      	movs	r1, #128	; 0x80
 8001a22:	0209      	lsls	r1, r1, #8
 8001a24:	430a      	orrs	r2, r1
 8001a26:	645a      	str	r2, [r3, #68]	; 0x44
  }

  /* Enable the Peripheral, except in trigger mode where enable is automatically done with trigger */
  tmpsmcr = htim->Instance->SMCR & TIM_SMCR_SMS;
 8001a28:	687b      	ldr	r3, [r7, #4]
 8001a2a:	681b      	ldr	r3, [r3, #0]
 8001a2c:	689b      	ldr	r3, [r3, #8]
 8001a2e:	2207      	movs	r2, #7
 8001a30:	4013      	ands	r3, r2
 8001a32:	60fb      	str	r3, [r7, #12]
  if (!IS_TIM_SLAVEMODE_TRIGGER_ENABLED(tmpsmcr))
 8001a34:	68fb      	ldr	r3, [r7, #12]
 8001a36:	2b06      	cmp	r3, #6
 8001a38:	d007      	beq.n	8001a4a <HAL_TIM_PWM_Start+0x7e>
  {
    __HAL_TIM_ENABLE(htim);
 8001a3a:	687b      	ldr	r3, [r7, #4]
 8001a3c:	681b      	ldr	r3, [r3, #0]
 8001a3e:	681a      	ldr	r2, [r3, #0]
 8001a40:	687b      	ldr	r3, [r7, #4]
 8001a42:	681b      	ldr	r3, [r3, #0]
 8001a44:	2101      	movs	r1, #1
 8001a46:	430a      	orrs	r2, r1
 8001a48:	601a      	str	r2, [r3, #0]
  }

  /* Return function status */
  return HAL_OK;
 8001a4a:	2300      	movs	r3, #0
}
 8001a4c:	0018      	movs	r0, r3
 8001a4e:	46bd      	mov	sp, r7
 8001a50:	b004      	add	sp, #16
 8001a52:	bd80      	pop	{r7, pc}
 8001a54:	40012c00 	.word	0x40012c00
 8001a58:	40014000 	.word	0x40014000
 8001a5c:	40014400 	.word	0x40014400
 8001a60:	40014800 	.word	0x40014800

08001a64 <HAL_TIM_PWM_ConfigChannel>:
  * @retval HAL status
  */
HAL_StatusTypeDef HAL_TIM_PWM_ConfigChannel(TIM_HandleTypeDef *htim,
                                            TIM_OC_InitTypeDef *sConfig,
                                            uint32_t Channel)
{
 8001a64:	b580      	push	{r7, lr}
 8001a66:	b084      	sub	sp, #16
 8001a68:	af00      	add	r7, sp, #0
 8001a6a:	60f8      	str	r0, [r7, #12]
 8001a6c:	60b9      	str	r1, [r7, #8]
 8001a6e:	607a      	str	r2, [r7, #4]
  assert_param(IS_TIM_PWM_MODE(sConfig->OCMode));
  assert_param(IS_TIM_OC_POLARITY(sConfig->OCPolarity));
  assert_param(IS_TIM_FAST_STATE(sConfig->OCFastMode));

  /* Process Locked */
  __HAL_LOCK(htim);
 8001a70:	68fb      	ldr	r3, [r7, #12]
 8001a72:	223c      	movs	r2, #60	; 0x3c
 8001a74:	5c9b      	ldrb	r3, [r3, r2]
 8001a76:	2b01      	cmp	r3, #1
 8001a78:	d101      	bne.n	8001a7e <HAL_TIM_PWM_ConfigChannel+0x1a>
 8001a7a:	2302      	movs	r3, #2
 8001a7c:	e0a4      	b.n	8001bc8 <HAL_TIM_PWM_ConfigChannel+0x164>
 8001a7e:	68fb      	ldr	r3, [r7, #12]
 8001a80:	223c      	movs	r2, #60	; 0x3c
 8001a82:	2101      	movs	r1, #1
 8001a84:	5499      	strb	r1, [r3, r2]

  htim->State = HAL_TIM_STATE_BUSY;
 8001a86:	68fb      	ldr	r3, [r7, #12]
 8001a88:	223d      	movs	r2, #61	; 0x3d
 8001a8a:	2102      	movs	r1, #2
 8001a8c:	5499      	strb	r1, [r3, r2]

  switch (Channel)
 8001a8e:	687b      	ldr	r3, [r7, #4]
 8001a90:	2b04      	cmp	r3, #4
 8001a92:	d029      	beq.n	8001ae8 <HAL_TIM_PWM_ConfigChannel+0x84>
 8001a94:	d802      	bhi.n	8001a9c <HAL_TIM_PWM_ConfigChannel+0x38>
 8001a96:	2b00      	cmp	r3, #0
 8001a98:	d005      	beq.n	8001aa6 <HAL_TIM_PWM_ConfigChannel+0x42>
      htim->Instance->CCMR2 |= sConfig->OCFastMode << 8U;
      break;
    }

    default:
      break;
 8001a9a:	e08c      	b.n	8001bb6 <HAL_TIM_PWM_ConfigChannel+0x152>
  switch (Channel)
 8001a9c:	2b08      	cmp	r3, #8
 8001a9e:	d046      	beq.n	8001b2e <HAL_TIM_PWM_ConfigChannel+0xca>
 8001aa0:	2b0c      	cmp	r3, #12
 8001aa2:	d065      	beq.n	8001b70 <HAL_TIM_PWM_ConfigChannel+0x10c>
      break;
 8001aa4:	e087      	b.n	8001bb6 <HAL_TIM_PWM_ConfigChannel+0x152>
      TIM_OC1_SetConfig(htim->Instance, sConfig);
 8001aa6:	68fb      	ldr	r3, [r7, #12]
 8001aa8:	681b      	ldr	r3, [r3, #0]
 8001aaa:	68ba      	ldr	r2, [r7, #8]
 8001aac:	0011      	movs	r1, r2
 8001aae:	0018      	movs	r0, r3
 8001ab0:	f000 f9ce 	bl	8001e50 <TIM_OC1_SetConfig>
      htim->Instance->CCMR1 |= TIM_CCMR1_OC1PE;
 8001ab4:	68fb      	ldr	r3, [r7, #12]
 8001ab6:	681b      	ldr	r3, [r3, #0]
 8001ab8:	699a      	ldr	r2, [r3, #24]
 8001aba:	68fb      	ldr	r3, [r7, #12]
 8001abc:	681b      	ldr	r3, [r3, #0]
 8001abe:	2108      	movs	r1, #8
 8001ac0:	430a      	orrs	r2, r1
 8001ac2:	619a      	str	r2, [r3, #24]
      htim->Instance->CCMR1 &= ~TIM_CCMR1_OC1FE;
 8001ac4:	68fb      	ldr	r3, [r7, #12]
 8001ac6:	681b      	ldr	r3, [r3, #0]
 8001ac8:	699a      	ldr	r2, [r3, #24]
 8001aca:	68fb      	ldr	r3, [r7, #12]
 8001acc:	681b      	ldr	r3, [r3, #0]
 8001ace:	2104      	movs	r1, #4
 8001ad0:	438a      	bics	r2, r1
 8001ad2:	619a      	str	r2, [r3, #24]
      htim->Instance->CCMR1 |= sConfig->OCFastMode;
 8001ad4:	68fb      	ldr	r3, [r7, #12]
 8001ad6:	681b      	ldr	r3, [r3, #0]
 8001ad8:	6999      	ldr	r1, [r3, #24]
 8001ada:	68bb      	ldr	r3, [r7, #8]
 8001adc:	691a      	ldr	r2, [r3, #16]
 8001ade:	68fb      	ldr	r3, [r7, #12]
 8001ae0:	681b      	ldr	r3, [r3, #0]
 8001ae2:	430a      	orrs	r2, r1
 8001ae4:	619a      	str	r2, [r3, #24]
      break;
 8001ae6:	e066      	b.n	8001bb6 <HAL_TIM_PWM_ConfigChannel+0x152>
      TIM_OC2_SetConfig(htim->Instance, sConfig);
 8001ae8:	68fb      	ldr	r3, [r7, #12]
 8001aea:	681b      	ldr	r3, [r3, #0]
 8001aec:	68ba      	ldr	r2, [r7, #8]
 8001aee:	0011      	movs	r1, r2
 8001af0:	0018      	movs	r0, r3
 8001af2:	f000 fa35 	bl	8001f60 <TIM_OC2_SetConfig>
      htim->Instance->CCMR1 |= TIM_CCMR1_OC2PE;
 8001af6:	68fb      	ldr	r3, [r7, #12]
 8001af8:	681b      	ldr	r3, [r3, #0]
 8001afa:	699a      	ldr	r2, [r3, #24]
 8001afc:	68fb      	ldr	r3, [r7, #12]
 8001afe:	681b      	ldr	r3, [r3, #0]
 8001b00:	2180      	movs	r1, #128	; 0x80
 8001b02:	0109      	lsls	r1, r1, #4
 8001b04:	430a      	orrs	r2, r1
 8001b06:	619a      	str	r2, [r3, #24]
      htim->Instance->CCMR1 &= ~TIM_CCMR1_OC2FE;
 8001b08:	68fb      	ldr	r3, [r7, #12]
 8001b0a:	681b      	ldr	r3, [r3, #0]
 8001b0c:	699a      	ldr	r2, [r3, #24]
 8001b0e:	68fb      	ldr	r3, [r7, #12]
 8001b10:	681b      	ldr	r3, [r3, #0]
 8001b12:	492f      	ldr	r1, [pc, #188]	; (8001bd0 <HAL_TIM_PWM_ConfigChannel+0x16c>)
 8001b14:	400a      	ands	r2, r1
 8001b16:	619a      	str	r2, [r3, #24]
      htim->Instance->CCMR1 |= sConfig->OCFastMode << 8U;
 8001b18:	68fb      	ldr	r3, [r7, #12]
 8001b1a:	681b      	ldr	r3, [r3, #0]
 8001b1c:	6999      	ldr	r1, [r3, #24]
 8001b1e:	68bb      	ldr	r3, [r7, #8]
 8001b20:	691b      	ldr	r3, [r3, #16]
 8001b22:	021a      	lsls	r2, r3, #8
 8001b24:	68fb      	ldr	r3, [r7, #12]
 8001b26:	681b      	ldr	r3, [r3, #0]
 8001b28:	430a      	orrs	r2, r1
 8001b2a:	619a      	str	r2, [r3, #24]
      break;
 8001b2c:	e043      	b.n	8001bb6 <HAL_TIM_PWM_ConfigChannel+0x152>
      TIM_OC3_SetConfig(htim->Instance, sConfig);
 8001b2e:	68fb      	ldr	r3, [r7, #12]
 8001b30:	681b      	ldr	r3, [r3, #0]
 8001b32:	68ba      	ldr	r2, [r7, #8]
 8001b34:	0011      	movs	r1, r2
 8001b36:	0018      	movs	r0, r3
 8001b38:	f000 fa96 	bl	8002068 <TIM_OC3_SetConfig>
      htim->Instance->CCMR2 |= TIM_CCMR2_OC3PE;
 8001b3c:	68fb      	ldr	r3, [r7, #12]
 8001b3e:	681b      	ldr	r3, [r3, #0]
 8001b40:	69da      	ldr	r2, [r3, #28]
 8001b42:	68fb      	ldr	r3, [r7, #12]
 8001b44:	681b      	ldr	r3, [r3, #0]
 8001b46:	2108      	movs	r1, #8
 8001b48:	430a      	orrs	r2, r1
 8001b4a:	61da      	str	r2, [r3, #28]
      htim->Instance->CCMR2 &= ~TIM_CCMR2_OC3FE;
 8001b4c:	68fb      	ldr	r3, [r7, #12]
 8001b4e:	681b      	ldr	r3, [r3, #0]
 8001b50:	69da      	ldr	r2, [r3, #28]
 8001b52:	68fb      	ldr	r3, [r7, #12]
 8001b54:	681b      	ldr	r3, [r3, #0]
 8001b56:	2104      	movs	r1, #4
 8001b58:	438a      	bics	r2, r1
 8001b5a:	61da      	str	r2, [r3, #28]
      htim->Instance->CCMR2 |= sConfig->OCFastMode;
 8001b5c:	68fb      	ldr	r3, [r7, #12]
 8001b5e:	681b      	ldr	r3, [r3, #0]
 8001b60:	69d9      	ldr	r1, [r3, #28]
 8001b62:	68bb      	ldr	r3, [r7, #8]
 8001b64:	691a      	ldr	r2, [r3, #16]
 8001b66:	68fb      	ldr	r3, [r7, #12]
 8001b68:	681b      	ldr	r3, [r3, #0]
 8001b6a:	430a      	orrs	r2, r1
 8001b6c:	61da      	str	r2, [r3, #28]
      break;
 8001b6e:	e022      	b.n	8001bb6 <HAL_TIM_PWM_ConfigChannel+0x152>
      TIM_OC4_SetConfig(htim->Instance, sConfig);
 8001b70:	68fb      	ldr	r3, [r7, #12]
 8001b72:	681b      	ldr	r3, [r3, #0]
 8001b74:	68ba      	ldr	r2, [r7, #8]
 8001b76:	0011      	movs	r1, r2
 8001b78:	0018      	movs	r0, r3
 8001b7a:	f000 fafb 	bl	8002174 <TIM_OC4_SetConfig>
      htim->Instance->CCMR2 |= TIM_CCMR2_OC4PE;
 8001b7e:	68fb      	ldr	r3, [r7, #12]
 8001b80:	681b      	ldr	r3, [r3, #0]
 8001b82:	69da      	ldr	r2, [r3, #28]
 8001b84:	68fb      	ldr	r3, [r7, #12]
 8001b86:	681b      	ldr	r3, [r3, #0]
 8001b88:	2180      	movs	r1, #128	; 0x80
 8001b8a:	0109      	lsls	r1, r1, #4
 8001b8c:	430a      	orrs	r2, r1
 8001b8e:	61da      	str	r2, [r3, #28]
      htim->Instance->CCMR2 &= ~TIM_CCMR2_OC4FE;
 8001b90:	68fb      	ldr	r3, [r7, #12]
 8001b92:	681b      	ldr	r3, [r3, #0]
 8001b94:	69da      	ldr	r2, [r3, #28]
 8001b96:	68fb      	ldr	r3, [r7, #12]
 8001b98:	681b      	ldr	r3, [r3, #0]
 8001b9a:	490d      	ldr	r1, [pc, #52]	; (8001bd0 <HAL_TIM_PWM_ConfigChannel+0x16c>)
 8001b9c:	400a      	ands	r2, r1
 8001b9e:	61da      	str	r2, [r3, #28]
      htim->Instance->CCMR2 |= sConfig->OCFastMode << 8U;
 8001ba0:	68fb      	ldr	r3, [r7, #12]
 8001ba2:	681b      	ldr	r3, [r3, #0]
 8001ba4:	69d9      	ldr	r1, [r3, #28]
 8001ba6:	68bb      	ldr	r3, [r7, #8]
 8001ba8:	691b      	ldr	r3, [r3, #16]
 8001baa:	021a      	lsls	r2, r3, #8
 8001bac:	68fb      	ldr	r3, [r7, #12]
 8001bae:	681b      	ldr	r3, [r3, #0]
 8001bb0:	430a      	orrs	r2, r1
 8001bb2:	61da      	str	r2, [r3, #28]
      break;
 8001bb4:	46c0      	nop			; (mov r8, r8)
  }

  htim->State = HAL_TIM_STATE_READY;
 8001bb6:	68fb      	ldr	r3, [r7, #12]
 8001bb8:	223d      	movs	r2, #61	; 0x3d
 8001bba:	2101      	movs	r1, #1
 8001bbc:	5499      	strb	r1, [r3, r2]

  __HAL_UNLOCK(htim);
 8001bbe:	68fb      	ldr	r3, [r7, #12]
 8001bc0:	223c      	movs	r2, #60	; 0x3c
 8001bc2:	2100      	movs	r1, #0
 8001bc4:	5499      	strb	r1, [r3, r2]

  return HAL_OK;
 8001bc6:	2300      	movs	r3, #0
}
 8001bc8:	0018      	movs	r0, r3
 8001bca:	46bd      	mov	sp, r7
 8001bcc:	b004      	add	sp, #16
 8001bce:	bd80      	pop	{r7, pc}
 8001bd0:	fffffbff 	.word	0xfffffbff

08001bd4 <HAL_TIM_ConfigClockSource>:
  * @param  sClockSourceConfig pointer to a TIM_ClockConfigTypeDef structure that
  *         contains the clock source information for the TIM peripheral.
  * @retval HAL status
  */
HAL_StatusTypeDef HAL_TIM_ConfigClockSource(TIM_HandleTypeDef *htim, TIM_ClockConfigTypeDef *sClockSourceConfig)
{
 8001bd4:	b580      	push	{r7, lr}
 8001bd6:	b084      	sub	sp, #16
 8001bd8:	af00      	add	r7, sp, #0
 8001bda:	6078      	str	r0, [r7, #4]
 8001bdc:	6039      	str	r1, [r7, #0]
  uint32_t tmpsmcr;

  /* Process Locked */
  __HAL_LOCK(htim);
 8001bde:	687b      	ldr	r3, [r7, #4]
 8001be0:	223c      	movs	r2, #60	; 0x3c
 8001be2:	5c9b      	ldrb	r3, [r3, r2]
 8001be4:	2b01      	cmp	r3, #1
 8001be6:	d101      	bne.n	8001bec <HAL_TIM_ConfigClockSource+0x18>
 8001be8:	2302      	movs	r3, #2
 8001bea:	e0ab      	b.n	8001d44 <HAL_TIM_ConfigClockSource+0x170>
 8001bec:	687b      	ldr	r3, [r7, #4]
 8001bee:	223c      	movs	r2, #60	; 0x3c
 8001bf0:	2101      	movs	r1, #1
 8001bf2:	5499      	strb	r1, [r3, r2]

  htim->State = HAL_TIM_STATE_BUSY;
 8001bf4:	687b      	ldr	r3, [r7, #4]
 8001bf6:	223d      	movs	r2, #61	; 0x3d
 8001bf8:	2102      	movs	r1, #2
 8001bfa:	5499      	strb	r1, [r3, r2]

  /* Check the parameters */
  assert_param(IS_TIM_CLOCKSOURCE(sClockSourceConfig->ClockSource));

  /* Reset the SMS, TS, ECE, ETPS and ETRF bits */
  tmpsmcr = htim->Instance->SMCR;
 8001bfc:	687b      	ldr	r3, [r7, #4]
 8001bfe:	681b      	ldr	r3, [r3, #0]
 8001c00:	689b      	ldr	r3, [r3, #8]
 8001c02:	60fb      	str	r3, [r7, #12]
  tmpsmcr &= ~(TIM_SMCR_SMS | TIM_SMCR_TS);
 8001c04:	68fb      	ldr	r3, [r7, #12]
 8001c06:	2277      	movs	r2, #119	; 0x77
 8001c08:	4393      	bics	r3, r2
 8001c0a:	60fb      	str	r3, [r7, #12]
  tmpsmcr &= ~(TIM_SMCR_ETF | TIM_SMCR_ETPS | TIM_SMCR_ECE | TIM_SMCR_ETP);
 8001c0c:	68fb      	ldr	r3, [r7, #12]
 8001c0e:	4a4f      	ldr	r2, [pc, #316]	; (8001d4c <HAL_TIM_ConfigClockSource+0x178>)
 8001c10:	4013      	ands	r3, r2
 8001c12:	60fb      	str	r3, [r7, #12]
  htim->Instance->SMCR = tmpsmcr;
 8001c14:	687b      	ldr	r3, [r7, #4]
 8001c16:	681b      	ldr	r3, [r3, #0]
 8001c18:	68fa      	ldr	r2, [r7, #12]
 8001c1a:	609a      	str	r2, [r3, #8]

  switch (sClockSourceConfig->ClockSource)
 8001c1c:	683b      	ldr	r3, [r7, #0]
 8001c1e:	681b      	ldr	r3, [r3, #0]
 8001c20:	2b40      	cmp	r3, #64	; 0x40
 8001c22:	d100      	bne.n	8001c26 <HAL_TIM_ConfigClockSource+0x52>
 8001c24:	e06b      	b.n	8001cfe <HAL_TIM_ConfigClockSource+0x12a>
 8001c26:	d80e      	bhi.n	8001c46 <HAL_TIM_ConfigClockSource+0x72>
 8001c28:	2b10      	cmp	r3, #16
 8001c2a:	d100      	bne.n	8001c2e <HAL_TIM_ConfigClockSource+0x5a>
 8001c2c:	e077      	b.n	8001d1e <HAL_TIM_ConfigClockSource+0x14a>
 8001c2e:	d803      	bhi.n	8001c38 <HAL_TIM_ConfigClockSource+0x64>
 8001c30:	2b00      	cmp	r3, #0
 8001c32:	d100      	bne.n	8001c36 <HAL_TIM_ConfigClockSource+0x62>
 8001c34:	e073      	b.n	8001d1e <HAL_TIM_ConfigClockSource+0x14a>
      TIM_ITRx_SetConfig(htim->Instance, sClockSourceConfig->ClockSource);
      break;
    }

    default:
      break;
 8001c36:	e07c      	b.n	8001d32 <HAL_TIM_ConfigClockSource+0x15e>
  switch (sClockSourceConfig->ClockSource)
 8001c38:	2b20      	cmp	r3, #32
 8001c3a:	d100      	bne.n	8001c3e <HAL_TIM_ConfigClockSource+0x6a>
 8001c3c:	e06f      	b.n	8001d1e <HAL_TIM_ConfigClockSource+0x14a>
 8001c3e:	2b30      	cmp	r3, #48	; 0x30
 8001c40:	d100      	bne.n	8001c44 <HAL_TIM_ConfigClockSource+0x70>
 8001c42:	e06c      	b.n	8001d1e <HAL_TIM_ConfigClockSource+0x14a>
      break;
 8001c44:	e075      	b.n	8001d32 <HAL_TIM_ConfigClockSource+0x15e>
  switch (sClockSourceConfig->ClockSource)
 8001c46:	2b70      	cmp	r3, #112	; 0x70
 8001c48:	d00e      	beq.n	8001c68 <HAL_TIM_ConfigClockSource+0x94>
 8001c4a:	d804      	bhi.n	8001c56 <HAL_TIM_ConfigClockSource+0x82>
 8001c4c:	2b50      	cmp	r3, #80	; 0x50
 8001c4e:	d036      	beq.n	8001cbe <HAL_TIM_ConfigClockSource+0xea>
 8001c50:	2b60      	cmp	r3, #96	; 0x60
 8001c52:	d044      	beq.n	8001cde <HAL_TIM_ConfigClockSource+0x10a>
      break;
 8001c54:	e06d      	b.n	8001d32 <HAL_TIM_ConfigClockSource+0x15e>
  switch (sClockSourceConfig->ClockSource)
 8001c56:	2280      	movs	r2, #128	; 0x80
 8001c58:	0152      	lsls	r2, r2, #5
 8001c5a:	4293      	cmp	r3, r2
 8001c5c:	d068      	beq.n	8001d30 <HAL_TIM_ConfigClockSource+0x15c>
 8001c5e:	2280      	movs	r2, #128	; 0x80
 8001c60:	0192      	lsls	r2, r2, #6
 8001c62:	4293      	cmp	r3, r2
 8001c64:	d017      	beq.n	8001c96 <HAL_TIM_ConfigClockSource+0xc2>
      break;
 8001c66:	e064      	b.n	8001d32 <HAL_TIM_ConfigClockSource+0x15e>
      TIM_ETR_SetConfig(htim->Instance,
 8001c68:	687b      	ldr	r3, [r7, #4]
 8001c6a:	6818      	ldr	r0, [r3, #0]
 8001c6c:	683b      	ldr	r3, [r7, #0]
 8001c6e:	6899      	ldr	r1, [r3, #8]
 8001c70:	683b      	ldr	r3, [r7, #0]
 8001c72:	685a      	ldr	r2, [r3, #4]
 8001c74:	683b      	ldr	r3, [r7, #0]
 8001c76:	68db      	ldr	r3, [r3, #12]
 8001c78:	f000 fb60 	bl	800233c <TIM_ETR_SetConfig>
      tmpsmcr = htim->Instance->SMCR;
 8001c7c:	687b      	ldr	r3, [r7, #4]
 8001c7e:	681b      	ldr	r3, [r3, #0]
 8001c80:	689b      	ldr	r3, [r3, #8]
 8001c82:	60fb      	str	r3, [r7, #12]
      tmpsmcr |= (TIM_SLAVEMODE_EXTERNAL1 | TIM_CLOCKSOURCE_ETRMODE1);
 8001c84:	68fb      	ldr	r3, [r7, #12]
 8001c86:	2277      	movs	r2, #119	; 0x77
 8001c88:	4313      	orrs	r3, r2
 8001c8a:	60fb      	str	r3, [r7, #12]
      htim->Instance->SMCR = tmpsmcr;
 8001c8c:	687b      	ldr	r3, [r7, #4]
 8001c8e:	681b      	ldr	r3, [r3, #0]
 8001c90:	68fa      	ldr	r2, [r7, #12]
 8001c92:	609a      	str	r2, [r3, #8]
      break;
 8001c94:	e04d      	b.n	8001d32 <HAL_TIM_ConfigClockSource+0x15e>
      TIM_ETR_SetConfig(htim->Instance,
 8001c96:	687b      	ldr	r3, [r7, #4]
 8001c98:	6818      	ldr	r0, [r3, #0]
 8001c9a:	683b      	ldr	r3, [r7, #0]
 8001c9c:	6899      	ldr	r1, [r3, #8]
 8001c9e:	683b      	ldr	r3, [r7, #0]
 8001ca0:	685a      	ldr	r2, [r3, #4]
 8001ca2:	683b      	ldr	r3, [r7, #0]
 8001ca4:	68db      	ldr	r3, [r3, #12]
 8001ca6:	f000 fb49 	bl	800233c <TIM_ETR_SetConfig>
      htim->Instance->SMCR |= TIM_SMCR_ECE;
 8001caa:	687b      	ldr	r3, [r7, #4]
 8001cac:	681b      	ldr	r3, [r3, #0]
 8001cae:	689a      	ldr	r2, [r3, #8]
 8001cb0:	687b      	ldr	r3, [r7, #4]
 8001cb2:	681b      	ldr	r3, [r3, #0]
 8001cb4:	2180      	movs	r1, #128	; 0x80
 8001cb6:	01c9      	lsls	r1, r1, #7
 8001cb8:	430a      	orrs	r2, r1
 8001cba:	609a      	str	r2, [r3, #8]
      break;
 8001cbc:	e039      	b.n	8001d32 <HAL_TIM_ConfigClockSource+0x15e>
      TIM_TI1_ConfigInputStage(htim->Instance,
 8001cbe:	687b      	ldr	r3, [r7, #4]
 8001cc0:	6818      	ldr	r0, [r3, #0]
 8001cc2:	683b      	ldr	r3, [r7, #0]
 8001cc4:	6859      	ldr	r1, [r3, #4]
 8001cc6:	683b      	ldr	r3, [r7, #0]
 8001cc8:	68db      	ldr	r3, [r3, #12]
 8001cca:	001a      	movs	r2, r3
 8001ccc:	f000 fabc 	bl	8002248 <TIM_TI1_ConfigInputStage>
      TIM_ITRx_SetConfig(htim->Instance, TIM_CLOCKSOURCE_TI1);
 8001cd0:	687b      	ldr	r3, [r7, #4]
 8001cd2:	681b      	ldr	r3, [r3, #0]
 8001cd4:	2150      	movs	r1, #80	; 0x50
 8001cd6:	0018      	movs	r0, r3
 8001cd8:	f000 fb16 	bl	8002308 <TIM_ITRx_SetConfig>
      break;
 8001cdc:	e029      	b.n	8001d32 <HAL_TIM_ConfigClockSource+0x15e>
      TIM_TI2_ConfigInputStage(htim->Instance,
 8001cde:	687b      	ldr	r3, [r7, #4]
 8001ce0:	6818      	ldr	r0, [r3, #0]
 8001ce2:	683b      	ldr	r3, [r7, #0]
 8001ce4:	6859      	ldr	r1, [r3, #4]
 8001ce6:	683b      	ldr	r3, [r7, #0]
 8001ce8:	68db      	ldr	r3, [r3, #12]
 8001cea:	001a      	movs	r2, r3
 8001cec:	f000 fada 	bl	80022a4 <TIM_TI2_ConfigInputStage>
      TIM_ITRx_SetConfig(htim->Instance, TIM_CLOCKSOURCE_TI2);
 8001cf0:	687b      	ldr	r3, [r7, #4]
 8001cf2:	681b      	ldr	r3, [r3, #0]
 8001cf4:	2160      	movs	r1, #96	; 0x60
 8001cf6:	0018      	movs	r0, r3
 8001cf8:	f000 fb06 	bl	8002308 <TIM_ITRx_SetConfig>
      break;
 8001cfc:	e019      	b.n	8001d32 <HAL_TIM_ConfigClockSource+0x15e>
      TIM_TI1_ConfigInputStage(htim->Instance,
 8001cfe:	687b      	ldr	r3, [r7, #4]
 8001d00:	6818      	ldr	r0, [r3, #0]
 8001d02:	683b      	ldr	r3, [r7, #0]
 8001d04:	6859      	ldr	r1, [r3, #4]
 8001d06:	683b      	ldr	r3, [r7, #0]
 8001d08:	68db      	ldr	r3, [r3, #12]
 8001d0a:	001a      	movs	r2, r3
 8001d0c:	f000 fa9c 	bl	8002248 <TIM_TI1_ConfigInputStage>
      TIM_ITRx_SetConfig(htim->Instance, TIM_CLOCKSOURCE_TI1ED);
 8001d10:	687b      	ldr	r3, [r7, #4]
 8001d12:	681b      	ldr	r3, [r3, #0]
 8001d14:	2140      	movs	r1, #64	; 0x40
 8001d16:	0018      	movs	r0, r3
 8001d18:	f000 faf6 	bl	8002308 <TIM_ITRx_SetConfig>
      break;
 8001d1c:	e009      	b.n	8001d32 <HAL_TIM_ConfigClockSource+0x15e>
      TIM_ITRx_SetConfig(htim->Instance, sClockSourceConfig->ClockSource);
 8001d1e:	687b      	ldr	r3, [r7, #4]
 8001d20:	681a      	ldr	r2, [r3, #0]
 8001d22:	683b      	ldr	r3, [r7, #0]
 8001d24:	681b      	ldr	r3, [r3, #0]
 8001d26:	0019      	movs	r1, r3
 8001d28:	0010      	movs	r0, r2
 8001d2a:	f000 faed 	bl	8002308 <TIM_ITRx_SetConfig>
      break;
 8001d2e:	e000      	b.n	8001d32 <HAL_TIM_ConfigClockSource+0x15e>
      break;
 8001d30:	46c0      	nop			; (mov r8, r8)
  }
  htim->State = HAL_TIM_STATE_READY;
 8001d32:	687b      	ldr	r3, [r7, #4]
 8001d34:	223d      	movs	r2, #61	; 0x3d
 8001d36:	2101      	movs	r1, #1
 8001d38:	5499      	strb	r1, [r3, r2]

  __HAL_UNLOCK(htim);
 8001d3a:	687b      	ldr	r3, [r7, #4]
 8001d3c:	223c      	movs	r2, #60	; 0x3c
 8001d3e:	2100      	movs	r1, #0
 8001d40:	5499      	strb	r1, [r3, r2]

  return HAL_OK;
 8001d42:	2300      	movs	r3, #0
}
 8001d44:	0018      	movs	r0, r3
 8001d46:	46bd      	mov	sp, r7
 8001d48:	b004      	add	sp, #16
 8001d4a:	bd80      	pop	{r7, pc}
 8001d4c:	ffff00ff 	.word	0xffff00ff

08001d50 <TIM_Base_SetConfig>:
  * @param  TIMx TIM peripheral
  * @param  Structure TIM Base configuration structure
  * @retval None
  */
void TIM_Base_SetConfig(TIM_TypeDef *TIMx, TIM_Base_InitTypeDef *Structure)
{
 8001d50:	b580      	push	{r7, lr}
 8001d52:	b084      	sub	sp, #16
 8001d54:	af00      	add	r7, sp, #0
 8001d56:	6078      	str	r0, [r7, #4]
 8001d58:	6039      	str	r1, [r7, #0]
  uint32_t tmpcr1;
  tmpcr1 = TIMx->CR1;
 8001d5a:	687b      	ldr	r3, [r7, #4]
 8001d5c:	681b      	ldr	r3, [r3, #0]
 8001d5e:	60fb      	str	r3, [r7, #12]

  /* Set TIM Time Base Unit parameters ---------------------------------------*/
  if (IS_TIM_COUNTER_MODE_SELECT_INSTANCE(TIMx))
 8001d60:	687b      	ldr	r3, [r7, #4]
 8001d62:	4a34      	ldr	r2, [pc, #208]	; (8001e34 <TIM_Base_SetConfig+0xe4>)
 8001d64:	4293      	cmp	r3, r2
 8001d66:	d008      	beq.n	8001d7a <TIM_Base_SetConfig+0x2a>
 8001d68:	687a      	ldr	r2, [r7, #4]
 8001d6a:	2380      	movs	r3, #128	; 0x80
 8001d6c:	05db      	lsls	r3, r3, #23
 8001d6e:	429a      	cmp	r2, r3
 8001d70:	d003      	beq.n	8001d7a <TIM_Base_SetConfig+0x2a>
 8001d72:	687b      	ldr	r3, [r7, #4]
 8001d74:	4a30      	ldr	r2, [pc, #192]	; (8001e38 <TIM_Base_SetConfig+0xe8>)
 8001d76:	4293      	cmp	r3, r2
 8001d78:	d108      	bne.n	8001d8c <TIM_Base_SetConfig+0x3c>
  {
    /* Select the Counter Mode */
    tmpcr1 &= ~(TIM_CR1_DIR | TIM_CR1_CMS);
 8001d7a:	68fb      	ldr	r3, [r7, #12]
 8001d7c:	2270      	movs	r2, #112	; 0x70
 8001d7e:	4393      	bics	r3, r2
 8001d80:	60fb      	str	r3, [r7, #12]
    tmpcr1 |= Structure->CounterMode;
 8001d82:	683b      	ldr	r3, [r7, #0]
 8001d84:	685b      	ldr	r3, [r3, #4]
 8001d86:	68fa      	ldr	r2, [r7, #12]
 8001d88:	4313      	orrs	r3, r2
 8001d8a:	60fb      	str	r3, [r7, #12]
  }

  if (IS_TIM_CLOCK_DIVISION_INSTANCE(TIMx))
 8001d8c:	687b      	ldr	r3, [r7, #4]
 8001d8e:	4a29      	ldr	r2, [pc, #164]	; (8001e34 <TIM_Base_SetConfig+0xe4>)
 8001d90:	4293      	cmp	r3, r2
 8001d92:	d018      	beq.n	8001dc6 <TIM_Base_SetConfig+0x76>
 8001d94:	687a      	ldr	r2, [r7, #4]
 8001d96:	2380      	movs	r3, #128	; 0x80
 8001d98:	05db      	lsls	r3, r3, #23
 8001d9a:	429a      	cmp	r2, r3
 8001d9c:	d013      	beq.n	8001dc6 <TIM_Base_SetConfig+0x76>
 8001d9e:	687b      	ldr	r3, [r7, #4]
 8001da0:	4a25      	ldr	r2, [pc, #148]	; (8001e38 <TIM_Base_SetConfig+0xe8>)
 8001da2:	4293      	cmp	r3, r2
 8001da4:	d00f      	beq.n	8001dc6 <TIM_Base_SetConfig+0x76>
 8001da6:	687b      	ldr	r3, [r7, #4]
 8001da8:	4a24      	ldr	r2, [pc, #144]	; (8001e3c <TIM_Base_SetConfig+0xec>)
 8001daa:	4293      	cmp	r3, r2
 8001dac:	d00b      	beq.n	8001dc6 <TIM_Base_SetConfig+0x76>
 8001dae:	687b      	ldr	r3, [r7, #4]
 8001db0:	4a23      	ldr	r2, [pc, #140]	; (8001e40 <TIM_Base_SetConfig+0xf0>)
 8001db2:	4293      	cmp	r3, r2
 8001db4:	d007      	beq.n	8001dc6 <TIM_Base_SetConfig+0x76>
 8001db6:	687b      	ldr	r3, [r7, #4]
 8001db8:	4a22      	ldr	r2, [pc, #136]	; (8001e44 <TIM_Base_SetConfig+0xf4>)
 8001dba:	4293      	cmp	r3, r2
 8001dbc:	d003      	beq.n	8001dc6 <TIM_Base_SetConfig+0x76>
 8001dbe:	687b      	ldr	r3, [r7, #4]
 8001dc0:	4a21      	ldr	r2, [pc, #132]	; (8001e48 <TIM_Base_SetConfig+0xf8>)
 8001dc2:	4293      	cmp	r3, r2
 8001dc4:	d108      	bne.n	8001dd8 <TIM_Base_SetConfig+0x88>
  {
    /* Set the clock division */
    tmpcr1 &= ~TIM_CR1_CKD;
 8001dc6:	68fb      	ldr	r3, [r7, #12]
 8001dc8:	4a20      	ldr	r2, [pc, #128]	; (8001e4c <TIM_Base_SetConfig+0xfc>)
 8001dca:	4013      	ands	r3, r2
 8001dcc:	60fb      	str	r3, [r7, #12]
    tmpcr1 |= (uint32_t)Structure->ClockDivision;
 8001dce:	683b      	ldr	r3, [r7, #0]
 8001dd0:	68db      	ldr	r3, [r3, #12]
 8001dd2:	68fa      	ldr	r2, [r7, #12]
 8001dd4:	4313      	orrs	r3, r2
 8001dd6:	60fb      	str	r3, [r7, #12]
  }

  /* Set the auto-reload preload */
  MODIFY_REG(tmpcr1, TIM_CR1_ARPE, Structure->AutoReloadPreload);
 8001dd8:	68fb      	ldr	r3, [r7, #12]
 8001dda:	2280      	movs	r2, #128	; 0x80
 8001ddc:	4393      	bics	r3, r2
 8001dde:	001a      	movs	r2, r3
 8001de0:	683b      	ldr	r3, [r7, #0]
 8001de2:	695b      	ldr	r3, [r3, #20]
 8001de4:	4313      	orrs	r3, r2
 8001de6:	60fb      	str	r3, [r7, #12]

  TIMx->CR1 = tmpcr1;
 8001de8:	687b      	ldr	r3, [r7, #4]
 8001dea:	68fa      	ldr	r2, [r7, #12]
 8001dec:	601a      	str	r2, [r3, #0]

  /* Set the Autoreload value */
  TIMx->ARR = (uint32_t)Structure->Period ;
 8001dee:	683b      	ldr	r3, [r7, #0]
 8001df0:	689a      	ldr	r2, [r3, #8]
 8001df2:	687b      	ldr	r3, [r7, #4]
 8001df4:	62da      	str	r2, [r3, #44]	; 0x2c

  /* Set the Prescaler value */
  TIMx->PSC = Structure->Prescaler;
 8001df6:	683b      	ldr	r3, [r7, #0]
 8001df8:	681a      	ldr	r2, [r3, #0]
 8001dfa:	687b      	ldr	r3, [r7, #4]
 8001dfc:	629a      	str	r2, [r3, #40]	; 0x28

  if (IS_TIM_REPETITION_COUNTER_INSTANCE(TIMx))
 8001dfe:	687b      	ldr	r3, [r7, #4]
 8001e00:	4a0c      	ldr	r2, [pc, #48]	; (8001e34 <TIM_Base_SetConfig+0xe4>)
 8001e02:	4293      	cmp	r3, r2
 8001e04:	d00b      	beq.n	8001e1e <TIM_Base_SetConfig+0xce>
 8001e06:	687b      	ldr	r3, [r7, #4]
 8001e08:	4a0d      	ldr	r2, [pc, #52]	; (8001e40 <TIM_Base_SetConfig+0xf0>)
 8001e0a:	4293      	cmp	r3, r2
 8001e0c:	d007      	beq.n	8001e1e <TIM_Base_SetConfig+0xce>
 8001e0e:	687b      	ldr	r3, [r7, #4]
 8001e10:	4a0c      	ldr	r2, [pc, #48]	; (8001e44 <TIM_Base_SetConfig+0xf4>)
 8001e12:	4293      	cmp	r3, r2
 8001e14:	d003      	beq.n	8001e1e <TIM_Base_SetConfig+0xce>
 8001e16:	687b      	ldr	r3, [r7, #4]
 8001e18:	4a0b      	ldr	r2, [pc, #44]	; (8001e48 <TIM_Base_SetConfig+0xf8>)
 8001e1a:	4293      	cmp	r3, r2
 8001e1c:	d103      	bne.n	8001e26 <TIM_Base_SetConfig+0xd6>
  {
    /* Set the Repetition Counter value */
    TIMx->RCR = Structure->RepetitionCounter;
 8001e1e:	683b      	ldr	r3, [r7, #0]
 8001e20:	691a      	ldr	r2, [r3, #16]
 8001e22:	687b      	ldr	r3, [r7, #4]
 8001e24:	631a      	str	r2, [r3, #48]	; 0x30
  }

  /* Generate an update event to reload the Prescaler
     and the repetition counter (only for advanced timer) value immediately */
  TIMx->EGR = TIM_EGR_UG;
 8001e26:	687b      	ldr	r3, [r7, #4]
 8001e28:	2201      	movs	r2, #1
 8001e2a:	615a      	str	r2, [r3, #20]
}
 8001e2c:	46c0      	nop			; (mov r8, r8)
 8001e2e:	46bd      	mov	sp, r7
 8001e30:	b004      	add	sp, #16
 8001e32:	bd80      	pop	{r7, pc}
 8001e34:	40012c00 	.word	0x40012c00
 8001e38:	40000400 	.word	0x40000400
 8001e3c:	40002000 	.word	0x40002000
 8001e40:	40014000 	.word	0x40014000
 8001e44:	40014400 	.word	0x40014400
 8001e48:	40014800 	.word	0x40014800
 8001e4c:	fffffcff 	.word	0xfffffcff

08001e50 <TIM_OC1_SetConfig>:
  * @param  TIMx to select the TIM peripheral
  * @param  OC_Config The ouput configuration structure
  * @retval None
  */
static void TIM_OC1_SetConfig(TIM_TypeDef *TIMx, TIM_OC_InitTypeDef *OC_Config)
{
 8001e50:	b580      	push	{r7, lr}
 8001e52:	b086      	sub	sp, #24
 8001e54:	af00      	add	r7, sp, #0
 8001e56:	6078      	str	r0, [r7, #4]
 8001e58:	6039      	str	r1, [r7, #0]
  uint32_t tmpccmrx;
  uint32_t tmpccer;
  uint32_t tmpcr2;

  /* Disable the Channel 1: Reset the CC1E Bit */
  TIMx->CCER &= ~TIM_CCER_CC1E;
 8001e5a:	687b      	ldr	r3, [r7, #4]
 8001e5c:	6a1b      	ldr	r3, [r3, #32]
 8001e5e:	2201      	movs	r2, #1
 8001e60:	4393      	bics	r3, r2
 8001e62:	001a      	movs	r2, r3
 8001e64:	687b      	ldr	r3, [r7, #4]
 8001e66:	621a      	str	r2, [r3, #32]

  /* Get the TIMx CCER register value */
  tmpccer = TIMx->CCER;
 8001e68:	687b      	ldr	r3, [r7, #4]
 8001e6a:	6a1b      	ldr	r3, [r3, #32]
 8001e6c:	617b      	str	r3, [r7, #20]
  /* Get the TIMx CR2 register value */
  tmpcr2 =  TIMx->CR2;
 8001e6e:	687b      	ldr	r3, [r7, #4]
 8001e70:	685b      	ldr	r3, [r3, #4]
 8001e72:	613b      	str	r3, [r7, #16]

  /* Get the TIMx CCMR1 register value */
  tmpccmrx = TIMx->CCMR1;
 8001e74:	687b      	ldr	r3, [r7, #4]
 8001e76:	699b      	ldr	r3, [r3, #24]
 8001e78:	60fb      	str	r3, [r7, #12]

  /* Reset the Output Compare Mode Bits */
  tmpccmrx &= ~TIM_CCMR1_OC1M;
 8001e7a:	68fb      	ldr	r3, [r7, #12]
 8001e7c:	2270      	movs	r2, #112	; 0x70
 8001e7e:	4393      	bics	r3, r2
 8001e80:	60fb      	str	r3, [r7, #12]
  tmpccmrx &= ~TIM_CCMR1_CC1S;
 8001e82:	68fb      	ldr	r3, [r7, #12]
 8001e84:	2203      	movs	r2, #3
 8001e86:	4393      	bics	r3, r2
 8001e88:	60fb      	str	r3, [r7, #12]
  /* Select the Output Compare Mode */
  tmpccmrx |= OC_Config->OCMode;
 8001e8a:	683b      	ldr	r3, [r7, #0]
 8001e8c:	681b      	ldr	r3, [r3, #0]
 8001e8e:	68fa      	ldr	r2, [r7, #12]
 8001e90:	4313      	orrs	r3, r2
 8001e92:	60fb      	str	r3, [r7, #12]

  /* Reset the Output Polarity level */
  tmpccer &= ~TIM_CCER_CC1P;
 8001e94:	697b      	ldr	r3, [r7, #20]
 8001e96:	2202      	movs	r2, #2
 8001e98:	4393      	bics	r3, r2
 8001e9a:	617b      	str	r3, [r7, #20]
  /* Set the Output Compare Polarity */
  tmpccer |= OC_Config->OCPolarity;
 8001e9c:	683b      	ldr	r3, [r7, #0]
 8001e9e:	689b      	ldr	r3, [r3, #8]
 8001ea0:	697a      	ldr	r2, [r7, #20]
 8001ea2:	4313      	orrs	r3, r2
 8001ea4:	617b      	str	r3, [r7, #20]

  if (IS_TIM_CCXN_INSTANCE(TIMx, TIM_CHANNEL_1))
 8001ea6:	687b      	ldr	r3, [r7, #4]
 8001ea8:	4a27      	ldr	r2, [pc, #156]	; (8001f48 <TIM_OC1_SetConfig+0xf8>)
 8001eaa:	4293      	cmp	r3, r2
 8001eac:	d00b      	beq.n	8001ec6 <TIM_OC1_SetConfig+0x76>
 8001eae:	687b      	ldr	r3, [r7, #4]
 8001eb0:	4a26      	ldr	r2, [pc, #152]	; (8001f4c <TIM_OC1_SetConfig+0xfc>)
 8001eb2:	4293      	cmp	r3, r2
 8001eb4:	d007      	beq.n	8001ec6 <TIM_OC1_SetConfig+0x76>
 8001eb6:	687b      	ldr	r3, [r7, #4]
 8001eb8:	4a25      	ldr	r2, [pc, #148]	; (8001f50 <TIM_OC1_SetConfig+0x100>)
 8001eba:	4293      	cmp	r3, r2
 8001ebc:	d003      	beq.n	8001ec6 <TIM_OC1_SetConfig+0x76>
 8001ebe:	687b      	ldr	r3, [r7, #4]
 8001ec0:	4a24      	ldr	r2, [pc, #144]	; (8001f54 <TIM_OC1_SetConfig+0x104>)
 8001ec2:	4293      	cmp	r3, r2
 8001ec4:	d10c      	bne.n	8001ee0 <TIM_OC1_SetConfig+0x90>
  {
    /* Check parameters */
    assert_param(IS_TIM_OCN_POLARITY(OC_Config->OCNPolarity));

    /* Reset the Output N Polarity level */
    tmpccer &= ~TIM_CCER_CC1NP;
 8001ec6:	697b      	ldr	r3, [r7, #20]
 8001ec8:	2208      	movs	r2, #8
 8001eca:	4393      	bics	r3, r2
 8001ecc:	617b      	str	r3, [r7, #20]
    /* Set the Output N Polarity */
    tmpccer |= OC_Config->OCNPolarity;
 8001ece:	683b      	ldr	r3, [r7, #0]
 8001ed0:	68db      	ldr	r3, [r3, #12]
 8001ed2:	697a      	ldr	r2, [r7, #20]
 8001ed4:	4313      	orrs	r3, r2
 8001ed6:	617b      	str	r3, [r7, #20]
    /* Reset the Output N State */
    tmpccer &= ~TIM_CCER_CC1NE;
 8001ed8:	697b      	ldr	r3, [r7, #20]
 8001eda:	2204      	movs	r2, #4
 8001edc:	4393      	bics	r3, r2
 8001ede:	617b      	str	r3, [r7, #20]
  }

  if (IS_TIM_BREAK_INSTANCE(TIMx))
 8001ee0:	687b      	ldr	r3, [r7, #4]
 8001ee2:	4a19      	ldr	r2, [pc, #100]	; (8001f48 <TIM_OC1_SetConfig+0xf8>)
 8001ee4:	4293      	cmp	r3, r2
 8001ee6:	d00b      	beq.n	8001f00 <TIM_OC1_SetConfig+0xb0>
 8001ee8:	687b      	ldr	r3, [r7, #4]
 8001eea:	4a18      	ldr	r2, [pc, #96]	; (8001f4c <TIM_OC1_SetConfig+0xfc>)
 8001eec:	4293      	cmp	r3, r2
 8001eee:	d007      	beq.n	8001f00 <TIM_OC1_SetConfig+0xb0>
 8001ef0:	687b      	ldr	r3, [r7, #4]
 8001ef2:	4a17      	ldr	r2, [pc, #92]	; (8001f50 <TIM_OC1_SetConfig+0x100>)
 8001ef4:	4293      	cmp	r3, r2
 8001ef6:	d003      	beq.n	8001f00 <TIM_OC1_SetConfig+0xb0>
 8001ef8:	687b      	ldr	r3, [r7, #4]
 8001efa:	4a16      	ldr	r2, [pc, #88]	; (8001f54 <TIM_OC1_SetConfig+0x104>)
 8001efc:	4293      	cmp	r3, r2
 8001efe:	d111      	bne.n	8001f24 <TIM_OC1_SetConfig+0xd4>
    /* Check parameters */
    assert_param(IS_TIM_OCNIDLE_STATE(OC_Config->OCNIdleState));
    assert_param(IS_TIM_OCIDLE_STATE(OC_Config->OCIdleState));

    /* Reset the Output Compare and Output Compare N IDLE State */
    tmpcr2 &= ~TIM_CR2_OIS1;
 8001f00:	693b      	ldr	r3, [r7, #16]
 8001f02:	4a15      	ldr	r2, [pc, #84]	; (8001f58 <TIM_OC1_SetConfig+0x108>)
 8001f04:	4013      	ands	r3, r2
 8001f06:	613b      	str	r3, [r7, #16]
    tmpcr2 &= ~TIM_CR2_OIS1N;
 8001f08:	693b      	ldr	r3, [r7, #16]
 8001f0a:	4a14      	ldr	r2, [pc, #80]	; (8001f5c <TIM_OC1_SetConfig+0x10c>)
 8001f0c:	4013      	ands	r3, r2
 8001f0e:	613b      	str	r3, [r7, #16]
    /* Set the Output Idle state */
    tmpcr2 |= OC_Config->OCIdleState;
 8001f10:	683b      	ldr	r3, [r7, #0]
 8001f12:	695b      	ldr	r3, [r3, #20]
 8001f14:	693a      	ldr	r2, [r7, #16]
 8001f16:	4313      	orrs	r3, r2
 8001f18:	613b      	str	r3, [r7, #16]
    /* Set the Output N Idle state */
    tmpcr2 |= OC_Config->OCNIdleState;
 8001f1a:	683b      	ldr	r3, [r7, #0]
 8001f1c:	699b      	ldr	r3, [r3, #24]
 8001f1e:	693a      	ldr	r2, [r7, #16]
 8001f20:	4313      	orrs	r3, r2
 8001f22:	613b      	str	r3, [r7, #16]
  }

  /* Write to TIMx CR2 */
  TIMx->CR2 = tmpcr2;
 8001f24:	687b      	ldr	r3, [r7, #4]
 8001f26:	693a      	ldr	r2, [r7, #16]
 8001f28:	605a      	str	r2, [r3, #4]

  /* Write to TIMx CCMR1 */
  TIMx->CCMR1 = tmpccmrx;
 8001f2a:	687b      	ldr	r3, [r7, #4]
 8001f2c:	68fa      	ldr	r2, [r7, #12]
 8001f2e:	619a      	str	r2, [r3, #24]

  /* Set the Capture Compare Register value */
  TIMx->CCR1 = OC_Config->Pulse;
 8001f30:	683b      	ldr	r3, [r7, #0]
 8001f32:	685a      	ldr	r2, [r3, #4]
 8001f34:	687b      	ldr	r3, [r7, #4]
 8001f36:	635a      	str	r2, [r3, #52]	; 0x34

  /* Write to TIMx CCER */
  TIMx->CCER = tmpccer;
 8001f38:	687b      	ldr	r3, [r7, #4]
 8001f3a:	697a      	ldr	r2, [r7, #20]
 8001f3c:	621a      	str	r2, [r3, #32]
}
 8001f3e:	46c0      	nop			; (mov r8, r8)
 8001f40:	46bd      	mov	sp, r7
 8001f42:	b006      	add	sp, #24
 8001f44:	bd80      	pop	{r7, pc}
 8001f46:	46c0      	nop			; (mov r8, r8)
 8001f48:	40012c00 	.word	0x40012c00
 8001f4c:	40014000 	.word	0x40014000
 8001f50:	40014400 	.word	0x40014400
 8001f54:	40014800 	.word	0x40014800
 8001f58:	fffffeff 	.word	0xfffffeff
 8001f5c:	fffffdff 	.word	0xfffffdff

08001f60 <TIM_OC2_SetConfig>:
  * @param  TIMx to select the TIM peripheral
  * @param  OC_Config The ouput configuration structure
  * @retval None
  */
void TIM_OC2_SetConfig(TIM_TypeDef *TIMx, TIM_OC_InitTypeDef *OC_Config)
{
 8001f60:	b580      	push	{r7, lr}
 8001f62:	b086      	sub	sp, #24
 8001f64:	af00      	add	r7, sp, #0
 8001f66:	6078      	str	r0, [r7, #4]
 8001f68:	6039      	str	r1, [r7, #0]
  uint32_t tmpccmrx;
  uint32_t tmpccer;
  uint32_t tmpcr2;

  /* Disable the Channel 2: Reset the CC2E Bit */
  TIMx->CCER &= ~TIM_CCER_CC2E;
 8001f6a:	687b      	ldr	r3, [r7, #4]
 8001f6c:	6a1b      	ldr	r3, [r3, #32]
 8001f6e:	2210      	movs	r2, #16
 8001f70:	4393      	bics	r3, r2
 8001f72:	001a      	movs	r2, r3
 8001f74:	687b      	ldr	r3, [r7, #4]
 8001f76:	621a      	str	r2, [r3, #32]

  /* Get the TIMx CCER register value */
  tmpccer = TIMx->CCER;
 8001f78:	687b      	ldr	r3, [r7, #4]
 8001f7a:	6a1b      	ldr	r3, [r3, #32]
 8001f7c:	617b      	str	r3, [r7, #20]
  /* Get the TIMx CR2 register value */
  tmpcr2 =  TIMx->CR2;
 8001f7e:	687b      	ldr	r3, [r7, #4]
 8001f80:	685b      	ldr	r3, [r3, #4]
 8001f82:	613b      	str	r3, [r7, #16]

  /* Get the TIMx CCMR1 register value */
  tmpccmrx = TIMx->CCMR1;
 8001f84:	687b      	ldr	r3, [r7, #4]
 8001f86:	699b      	ldr	r3, [r3, #24]
 8001f88:	60fb      	str	r3, [r7, #12]

  /* Reset the Output Compare mode and Capture/Compare selection Bits */
  tmpccmrx &= ~TIM_CCMR1_OC2M;
 8001f8a:	68fb      	ldr	r3, [r7, #12]
 8001f8c:	4a2e      	ldr	r2, [pc, #184]	; (8002048 <TIM_OC2_SetConfig+0xe8>)
 8001f8e:	4013      	ands	r3, r2
 8001f90:	60fb      	str	r3, [r7, #12]
  tmpccmrx &= ~TIM_CCMR1_CC2S;
 8001f92:	68fb      	ldr	r3, [r7, #12]
 8001f94:	4a2d      	ldr	r2, [pc, #180]	; (800204c <TIM_OC2_SetConfig+0xec>)
 8001f96:	4013      	ands	r3, r2
 8001f98:	60fb      	str	r3, [r7, #12]

  /* Select the Output Compare Mode */
  tmpccmrx |= (OC_Config->OCMode << 8U);
 8001f9a:	683b      	ldr	r3, [r7, #0]
 8001f9c:	681b      	ldr	r3, [r3, #0]
 8001f9e:	021b      	lsls	r3, r3, #8
 8001fa0:	68fa      	ldr	r2, [r7, #12]
 8001fa2:	4313      	orrs	r3, r2
 8001fa4:	60fb      	str	r3, [r7, #12]

  /* Reset the Output Polarity level */
  tmpccer &= ~TIM_CCER_CC2P;
 8001fa6:	697b      	ldr	r3, [r7, #20]
 8001fa8:	2220      	movs	r2, #32
 8001faa:	4393      	bics	r3, r2
 8001fac:	617b      	str	r3, [r7, #20]
  /* Set the Output Compare Polarity */
  tmpccer |= (OC_Config->OCPolarity << 4U);
 8001fae:	683b      	ldr	r3, [r7, #0]
 8001fb0:	689b      	ldr	r3, [r3, #8]
 8001fb2:	011b      	lsls	r3, r3, #4
 8001fb4:	697a      	ldr	r2, [r7, #20]
 8001fb6:	4313      	orrs	r3, r2
 8001fb8:	617b      	str	r3, [r7, #20]

  if (IS_TIM_CCXN_INSTANCE(TIMx, TIM_CHANNEL_2))
 8001fba:	687b      	ldr	r3, [r7, #4]
 8001fbc:	4a24      	ldr	r2, [pc, #144]	; (8002050 <TIM_OC2_SetConfig+0xf0>)
 8001fbe:	4293      	cmp	r3, r2
 8001fc0:	d10d      	bne.n	8001fde <TIM_OC2_SetConfig+0x7e>
  {
    assert_param(IS_TIM_OCN_POLARITY(OC_Config->OCNPolarity));

    /* Reset the Output N Polarity level */
    tmpccer &= ~TIM_CCER_CC2NP;
 8001fc2:	697b      	ldr	r3, [r7, #20]
 8001fc4:	2280      	movs	r2, #128	; 0x80
 8001fc6:	4393      	bics	r3, r2
 8001fc8:	617b      	str	r3, [r7, #20]
    /* Set the Output N Polarity */
    tmpccer |= (OC_Config->OCNPolarity << 4U);
 8001fca:	683b      	ldr	r3, [r7, #0]
 8001fcc:	68db      	ldr	r3, [r3, #12]
 8001fce:	011b      	lsls	r3, r3, #4
 8001fd0:	697a      	ldr	r2, [r7, #20]
 8001fd2:	4313      	orrs	r3, r2
 8001fd4:	617b      	str	r3, [r7, #20]
    /* Reset the Output N State */
    tmpccer &= ~TIM_CCER_CC2NE;
 8001fd6:	697b      	ldr	r3, [r7, #20]
 8001fd8:	2240      	movs	r2, #64	; 0x40
 8001fda:	4393      	bics	r3, r2
 8001fdc:	617b      	str	r3, [r7, #20]

  }

  if (IS_TIM_BREAK_INSTANCE(TIMx))
 8001fde:	687b      	ldr	r3, [r7, #4]
 8001fe0:	4a1b      	ldr	r2, [pc, #108]	; (8002050 <TIM_OC2_SetConfig+0xf0>)
 8001fe2:	4293      	cmp	r3, r2
 8001fe4:	d00b      	beq.n	8001ffe <TIM_OC2_SetConfig+0x9e>
 8001fe6:	687b      	ldr	r3, [r7, #4]
 8001fe8:	4a1a      	ldr	r2, [pc, #104]	; (8002054 <TIM_OC2_SetConfig+0xf4>)
 8001fea:	4293      	cmp	r3, r2
 8001fec:	d007      	beq.n	8001ffe <TIM_OC2_SetConfig+0x9e>
 8001fee:	687b      	ldr	r3, [r7, #4]
 8001ff0:	4a19      	ldr	r2, [pc, #100]	; (8002058 <TIM_OC2_SetConfig+0xf8>)
 8001ff2:	4293      	cmp	r3, r2
 8001ff4:	d003      	beq.n	8001ffe <TIM_OC2_SetConfig+0x9e>
 8001ff6:	687b      	ldr	r3, [r7, #4]
 8001ff8:	4a18      	ldr	r2, [pc, #96]	; (800205c <TIM_OC2_SetConfig+0xfc>)
 8001ffa:	4293      	cmp	r3, r2
 8001ffc:	d113      	bne.n	8002026 <TIM_OC2_SetConfig+0xc6>
    /* Check parameters */
    assert_param(IS_TIM_OCNIDLE_STATE(OC_Config->OCNIdleState));
    assert_param(IS_TIM_OCIDLE_STATE(OC_Config->OCIdleState));

    /* Reset the Output Compare and Output Compare N IDLE State */
    tmpcr2 &= ~TIM_CR2_OIS2;
 8001ffe:	693b      	ldr	r3, [r7, #16]
 8002000:	4a17      	ldr	r2, [pc, #92]	; (8002060 <TIM_OC2_SetConfig+0x100>)
 8002002:	4013      	ands	r3, r2
 8002004:	613b      	str	r3, [r7, #16]
    tmpcr2 &= ~TIM_CR2_OIS2N;
 8002006:	693b      	ldr	r3, [r7, #16]
 8002008:	4a16      	ldr	r2, [pc, #88]	; (8002064 <TIM_OC2_SetConfig+0x104>)
 800200a:	4013      	ands	r3, r2
 800200c:	613b      	str	r3, [r7, #16]
    /* Set the Output Idle state */
    tmpcr2 |= (OC_Config->OCIdleState << 2U);
 800200e:	683b      	ldr	r3, [r7, #0]
 8002010:	695b      	ldr	r3, [r3, #20]
 8002012:	009b      	lsls	r3, r3, #2
 8002014:	693a      	ldr	r2, [r7, #16]
 8002016:	4313      	orrs	r3, r2
 8002018:	613b      	str	r3, [r7, #16]
    /* Set the Output N Idle state */
    tmpcr2 |= (OC_Config->OCNIdleState << 2U);
 800201a:	683b      	ldr	r3, [r7, #0]
 800201c:	699b      	ldr	r3, [r3, #24]
 800201e:	009b      	lsls	r3, r3, #2
 8002020:	693a      	ldr	r2, [r7, #16]
 8002022:	4313      	orrs	r3, r2
 8002024:	613b      	str	r3, [r7, #16]
  }

  /* Write to TIMx CR2 */
  TIMx->CR2 = tmpcr2;
 8002026:	687b      	ldr	r3, [r7, #4]
 8002028:	693a      	ldr	r2, [r7, #16]
 800202a:	605a      	str	r2, [r3, #4]

  /* Write to TIMx CCMR1 */
  TIMx->CCMR1 = tmpccmrx;
 800202c:	687b      	ldr	r3, [r7, #4]
 800202e:	68fa      	ldr	r2, [r7, #12]
 8002030:	619a      	str	r2, [r3, #24]

  /* Set the Capture Compare Register value */
  TIMx->CCR2 = OC_Config->Pulse;
 8002032:	683b      	ldr	r3, [r7, #0]
 8002034:	685a      	ldr	r2, [r3, #4]
 8002036:	687b      	ldr	r3, [r7, #4]
 8002038:	639a      	str	r2, [r3, #56]	; 0x38

  /* Write to TIMx CCER */
  TIMx->CCER = tmpccer;
 800203a:	687b      	ldr	r3, [r7, #4]
 800203c:	697a      	ldr	r2, [r7, #20]
 800203e:	621a      	str	r2, [r3, #32]
}
 8002040:	46c0      	nop			; (mov r8, r8)
 8002042:	46bd      	mov	sp, r7
 8002044:	b006      	add	sp, #24
 8002046:	bd80      	pop	{r7, pc}
 8002048:	ffff8fff 	.word	0xffff8fff
 800204c:	fffffcff 	.word	0xfffffcff
 8002050:	40012c00 	.word	0x40012c00
 8002054:	40014000 	.word	0x40014000
 8002058:	40014400 	.word	0x40014400
 800205c:	40014800 	.word	0x40014800
 8002060:	fffffbff 	.word	0xfffffbff
 8002064:	fffff7ff 	.word	0xfffff7ff

08002068 <TIM_OC3_SetConfig>:
  * @param  TIMx to select the TIM peripheral
  * @param  OC_Config The ouput configuration structure
  * @retval None
  */
static void TIM_OC3_SetConfig(TIM_TypeDef *TIMx, TIM_OC_InitTypeDef *OC_Config)
{
 8002068:	b580      	push	{r7, lr}
 800206a:	b086      	sub	sp, #24
 800206c:	af00      	add	r7, sp, #0
 800206e:	6078      	str	r0, [r7, #4]
 8002070:	6039      	str	r1, [r7, #0]
  uint32_t tmpccmrx;
  uint32_t tmpccer;
  uint32_t tmpcr2;

  /* Disable the Channel 3: Reset the CC2E Bit */
  TIMx->CCER &= ~TIM_CCER_CC3E;
 8002072:	687b      	ldr	r3, [r7, #4]
 8002074:	6a1b      	ldr	r3, [r3, #32]
 8002076:	4a35      	ldr	r2, [pc, #212]	; (800214c <TIM_OC3_SetConfig+0xe4>)
 8002078:	401a      	ands	r2, r3
 800207a:	687b      	ldr	r3, [r7, #4]
 800207c:	621a      	str	r2, [r3, #32]

  /* Get the TIMx CCER register value */
  tmpccer = TIMx->CCER;
 800207e:	687b      	ldr	r3, [r7, #4]
 8002080:	6a1b      	ldr	r3, [r3, #32]
 8002082:	617b      	str	r3, [r7, #20]
  /* Get the TIMx CR2 register value */
  tmpcr2 =  TIMx->CR2;
 8002084:	687b      	ldr	r3, [r7, #4]
 8002086:	685b      	ldr	r3, [r3, #4]
 8002088:	613b      	str	r3, [r7, #16]

  /* Get the TIMx CCMR2 register value */
  tmpccmrx = TIMx->CCMR2;
 800208a:	687b      	ldr	r3, [r7, #4]
 800208c:	69db      	ldr	r3, [r3, #28]
 800208e:	60fb      	str	r3, [r7, #12]

  /* Reset the Output Compare mode and Capture/Compare selection Bits */
  tmpccmrx &= ~TIM_CCMR2_OC3M;
 8002090:	68fb      	ldr	r3, [r7, #12]
 8002092:	2270      	movs	r2, #112	; 0x70
 8002094:	4393      	bics	r3, r2
 8002096:	60fb      	str	r3, [r7, #12]
  tmpccmrx &= ~TIM_CCMR2_CC3S;
 8002098:	68fb      	ldr	r3, [r7, #12]
 800209a:	2203      	movs	r2, #3
 800209c:	4393      	bics	r3, r2
 800209e:	60fb      	str	r3, [r7, #12]
  /* Select the Output Compare Mode */
  tmpccmrx |= OC_Config->OCMode;
 80020a0:	683b      	ldr	r3, [r7, #0]
 80020a2:	681b      	ldr	r3, [r3, #0]
 80020a4:	68fa      	ldr	r2, [r7, #12]
 80020a6:	4313      	orrs	r3, r2
 80020a8:	60fb      	str	r3, [r7, #12]

  /* Reset the Output Polarity level */
  tmpccer &= ~TIM_CCER_CC3P;
 80020aa:	697b      	ldr	r3, [r7, #20]
 80020ac:	4a28      	ldr	r2, [pc, #160]	; (8002150 <TIM_OC3_SetConfig+0xe8>)
 80020ae:	4013      	ands	r3, r2
 80020b0:	617b      	str	r3, [r7, #20]
  /* Set the Output Compare Polarity */
  tmpccer |= (OC_Config->OCPolarity << 8U);
 80020b2:	683b      	ldr	r3, [r7, #0]
 80020b4:	689b      	ldr	r3, [r3, #8]
 80020b6:	021b      	lsls	r3, r3, #8
 80020b8:	697a      	ldr	r2, [r7, #20]
 80020ba:	4313      	orrs	r3, r2
 80020bc:	617b      	str	r3, [r7, #20]

  if (IS_TIM_CCXN_INSTANCE(TIMx, TIM_CHANNEL_3))
 80020be:	687b      	ldr	r3, [r7, #4]
 80020c0:	4a24      	ldr	r2, [pc, #144]	; (8002154 <TIM_OC3_SetConfig+0xec>)
 80020c2:	4293      	cmp	r3, r2
 80020c4:	d10d      	bne.n	80020e2 <TIM_OC3_SetConfig+0x7a>
  {
    assert_param(IS_TIM_OCN_POLARITY(OC_Config->OCNPolarity));

    /* Reset the Output N Polarity level */
    tmpccer &= ~TIM_CCER_CC3NP;
 80020c6:	697b      	ldr	r3, [r7, #20]
 80020c8:	4a23      	ldr	r2, [pc, #140]	; (8002158 <TIM_OC3_SetConfig+0xf0>)
 80020ca:	4013      	ands	r3, r2
 80020cc:	617b      	str	r3, [r7, #20]
    /* Set the Output N Polarity */
    tmpccer |= (OC_Config->OCNPolarity << 8U);
 80020ce:	683b      	ldr	r3, [r7, #0]
 80020d0:	68db      	ldr	r3, [r3, #12]
 80020d2:	021b      	lsls	r3, r3, #8
 80020d4:	697a      	ldr	r2, [r7, #20]
 80020d6:	4313      	orrs	r3, r2
 80020d8:	617b      	str	r3, [r7, #20]
    /* Reset the Output N State */
    tmpccer &= ~TIM_CCER_CC3NE;
 80020da:	697b      	ldr	r3, [r7, #20]
 80020dc:	4a1f      	ldr	r2, [pc, #124]	; (800215c <TIM_OC3_SetConfig+0xf4>)
 80020de:	4013      	ands	r3, r2
 80020e0:	617b      	str	r3, [r7, #20]
  }

  if (IS_TIM_BREAK_INSTANCE(TIMx))
 80020e2:	687b      	ldr	r3, [r7, #4]
 80020e4:	4a1b      	ldr	r2, [pc, #108]	; (8002154 <TIM_OC3_SetConfig+0xec>)
 80020e6:	4293      	cmp	r3, r2
 80020e8:	d00b      	beq.n	8002102 <TIM_OC3_SetConfig+0x9a>
 80020ea:	687b      	ldr	r3, [r7, #4]
 80020ec:	4a1c      	ldr	r2, [pc, #112]	; (8002160 <TIM_OC3_SetConfig+0xf8>)
 80020ee:	4293      	cmp	r3, r2
 80020f0:	d007      	beq.n	8002102 <TIM_OC3_SetConfig+0x9a>
 80020f2:	687b      	ldr	r3, [r7, #4]
 80020f4:	4a1b      	ldr	r2, [pc, #108]	; (8002164 <TIM_OC3_SetConfig+0xfc>)
 80020f6:	4293      	cmp	r3, r2
 80020f8:	d003      	beq.n	8002102 <TIM_OC3_SetConfig+0x9a>
 80020fa:	687b      	ldr	r3, [r7, #4]
 80020fc:	4a1a      	ldr	r2, [pc, #104]	; (8002168 <TIM_OC3_SetConfig+0x100>)
 80020fe:	4293      	cmp	r3, r2
 8002100:	d113      	bne.n	800212a <TIM_OC3_SetConfig+0xc2>
    /* Check parameters */
    assert_param(IS_TIM_OCNIDLE_STATE(OC_Config->OCNIdleState));
    assert_param(IS_TIM_OCIDLE_STATE(OC_Config->OCIdleState));

    /* Reset the Output Compare and Output Compare N IDLE State */
    tmpcr2 &= ~TIM_CR2_OIS3;
 8002102:	693b      	ldr	r3, [r7, #16]
 8002104:	4a19      	ldr	r2, [pc, #100]	; (800216c <TIM_OC3_SetConfig+0x104>)
 8002106:	4013      	ands	r3, r2
 8002108:	613b      	str	r3, [r7, #16]
    tmpcr2 &= ~TIM_CR2_OIS3N;
 800210a:	693b      	ldr	r3, [r7, #16]
 800210c:	4a18      	ldr	r2, [pc, #96]	; (8002170 <TIM_OC3_SetConfig+0x108>)
 800210e:	4013      	ands	r3, r2
 8002110:	613b      	str	r3, [r7, #16]
    /* Set the Output Idle state */
    tmpcr2 |= (OC_Config->OCIdleState << 4U);
 8002112:	683b      	ldr	r3, [r7, #0]
 8002114:	695b      	ldr	r3, [r3, #20]
 8002116:	011b      	lsls	r3, r3, #4
 8002118:	693a      	ldr	r2, [r7, #16]
 800211a:	4313      	orrs	r3, r2
 800211c:	613b      	str	r3, [r7, #16]
    /* Set the Output N Idle state */
    tmpcr2 |= (OC_Config->OCNIdleState << 4U);
 800211e:	683b      	ldr	r3, [r7, #0]
 8002120:	699b      	ldr	r3, [r3, #24]
 8002122:	011b      	lsls	r3, r3, #4
 8002124:	693a      	ldr	r2, [r7, #16]
 8002126:	4313      	orrs	r3, r2
 8002128:	613b      	str	r3, [r7, #16]
  }

  /* Write to TIMx CR2 */
  TIMx->CR2 = tmpcr2;
 800212a:	687b      	ldr	r3, [r7, #4]
 800212c:	693a      	ldr	r2, [r7, #16]
 800212e:	605a      	str	r2, [r3, #4]

  /* Write to TIMx CCMR2 */
  TIMx->CCMR2 = tmpccmrx;
 8002130:	687b      	ldr	r3, [r7, #4]
 8002132:	68fa      	ldr	r2, [r7, #12]
 8002134:	61da      	str	r2, [r3, #28]

  /* Set the Capture Compare Register value */
  TIMx->CCR3 = OC_Config->Pulse;
 8002136:	683b      	ldr	r3, [r7, #0]
 8002138:	685a      	ldr	r2, [r3, #4]
 800213a:	687b      	ldr	r3, [r7, #4]
 800213c:	63da      	str	r2, [r3, #60]	; 0x3c

  /* Write to TIMx CCER */
  TIMx->CCER = tmpccer;
 800213e:	687b      	ldr	r3, [r7, #4]
 8002140:	697a      	ldr	r2, [r7, #20]
 8002142:	621a      	str	r2, [r3, #32]
}
 8002144:	46c0      	nop			; (mov r8, r8)
 8002146:	46bd      	mov	sp, r7
 8002148:	b006      	add	sp, #24
 800214a:	bd80      	pop	{r7, pc}
 800214c:	fffffeff 	.word	0xfffffeff
 8002150:	fffffdff 	.word	0xfffffdff
 8002154:	40012c00 	.word	0x40012c00
 8002158:	fffff7ff 	.word	0xfffff7ff
 800215c:	fffffbff 	.word	0xfffffbff
 8002160:	40014000 	.word	0x40014000
 8002164:	40014400 	.word	0x40014400
 8002168:	40014800 	.word	0x40014800
 800216c:	ffffefff 	.word	0xffffefff
 8002170:	ffffdfff 	.word	0xffffdfff

08002174 <TIM_OC4_SetConfig>:
  * @param  TIMx to select the TIM peripheral
  * @param  OC_Config The ouput configuration structure
  * @retval None
  */
static void TIM_OC4_SetConfig(TIM_TypeDef *TIMx, TIM_OC_InitTypeDef *OC_Config)
{
 8002174:	b580      	push	{r7, lr}
 8002176:	b086      	sub	sp, #24
 8002178:	af00      	add	r7, sp, #0
 800217a:	6078      	str	r0, [r7, #4]
 800217c:	6039      	str	r1, [r7, #0]
  uint32_t tmpccmrx;
  uint32_t tmpccer;
  uint32_t tmpcr2;

  /* Disable the Channel 4: Reset the CC4E Bit */
  TIMx->CCER &= ~TIM_CCER_CC4E;
 800217e:	687b      	ldr	r3, [r7, #4]
 8002180:	6a1b      	ldr	r3, [r3, #32]
 8002182:	4a28      	ldr	r2, [pc, #160]	; (8002224 <TIM_OC4_SetConfig+0xb0>)
 8002184:	401a      	ands	r2, r3
 8002186:	687b      	ldr	r3, [r7, #4]
 8002188:	621a      	str	r2, [r3, #32]

  /* Get the TIMx CCER register value */
  tmpccer = TIMx->CCER;
 800218a:	687b      	ldr	r3, [r7, #4]
 800218c:	6a1b      	ldr	r3, [r3, #32]
 800218e:	613b      	str	r3, [r7, #16]
  /* Get the TIMx CR2 register value */
  tmpcr2 =  TIMx->CR2;
 8002190:	687b      	ldr	r3, [r7, #4]
 8002192:	685b      	ldr	r3, [r3, #4]
 8002194:	617b      	str	r3, [r7, #20]

  /* Get the TIMx CCMR2 register value */
  tmpccmrx = TIMx->CCMR2;
 8002196:	687b      	ldr	r3, [r7, #4]
 8002198:	69db      	ldr	r3, [r3, #28]
 800219a:	60fb      	str	r3, [r7, #12]

  /* Reset the Output Compare mode and Capture/Compare selection Bits */
  tmpccmrx &= ~TIM_CCMR2_OC4M;
 800219c:	68fb      	ldr	r3, [r7, #12]
 800219e:	4a22      	ldr	r2, [pc, #136]	; (8002228 <TIM_OC4_SetConfig+0xb4>)
 80021a0:	4013      	ands	r3, r2
 80021a2:	60fb      	str	r3, [r7, #12]
  tmpccmrx &= ~TIM_CCMR2_CC4S;
 80021a4:	68fb      	ldr	r3, [r7, #12]
 80021a6:	4a21      	ldr	r2, [pc, #132]	; (800222c <TIM_OC4_SetConfig+0xb8>)
 80021a8:	4013      	ands	r3, r2
 80021aa:	60fb      	str	r3, [r7, #12]

  /* Select the Output Compare Mode */
  tmpccmrx |= (OC_Config->OCMode << 8U);
 80021ac:	683b      	ldr	r3, [r7, #0]
 80021ae:	681b      	ldr	r3, [r3, #0]
 80021b0:	021b      	lsls	r3, r3, #8
 80021b2:	68fa      	ldr	r2, [r7, #12]
 80021b4:	4313      	orrs	r3, r2
 80021b6:	60fb      	str	r3, [r7, #12]

  /* Reset the Output Polarity level */
  tmpccer &= ~TIM_CCER_CC4P;
 80021b8:	693b      	ldr	r3, [r7, #16]
 80021ba:	4a1d      	ldr	r2, [pc, #116]	; (8002230 <TIM_OC4_SetConfig+0xbc>)
 80021bc:	4013      	ands	r3, r2
 80021be:	613b      	str	r3, [r7, #16]
  /* Set the Output Compare Polarity */
  tmpccer |= (OC_Config->OCPolarity << 12U);
 80021c0:	683b      	ldr	r3, [r7, #0]
 80021c2:	689b      	ldr	r3, [r3, #8]
 80021c4:	031b      	lsls	r3, r3, #12
 80021c6:	693a      	ldr	r2, [r7, #16]
 80021c8:	4313      	orrs	r3, r2
 80021ca:	613b      	str	r3, [r7, #16]

  if (IS_TIM_BREAK_INSTANCE(TIMx))
 80021cc:	687b      	ldr	r3, [r7, #4]
 80021ce:	4a19      	ldr	r2, [pc, #100]	; (8002234 <TIM_OC4_SetConfig+0xc0>)
 80021d0:	4293      	cmp	r3, r2
 80021d2:	d00b      	beq.n	80021ec <TIM_OC4_SetConfig+0x78>
 80021d4:	687b      	ldr	r3, [r7, #4]
 80021d6:	4a18      	ldr	r2, [pc, #96]	; (8002238 <TIM_OC4_SetConfig+0xc4>)
 80021d8:	4293      	cmp	r3, r2
 80021da:	d007      	beq.n	80021ec <TIM_OC4_SetConfig+0x78>
 80021dc:	687b      	ldr	r3, [r7, #4]
 80021de:	4a17      	ldr	r2, [pc, #92]	; (800223c <TIM_OC4_SetConfig+0xc8>)
 80021e0:	4293      	cmp	r3, r2
 80021e2:	d003      	beq.n	80021ec <TIM_OC4_SetConfig+0x78>
 80021e4:	687b      	ldr	r3, [r7, #4]
 80021e6:	4a16      	ldr	r2, [pc, #88]	; (8002240 <TIM_OC4_SetConfig+0xcc>)
 80021e8:	4293      	cmp	r3, r2
 80021ea:	d109      	bne.n	8002200 <TIM_OC4_SetConfig+0x8c>
  {
    /* Check parameters */
    assert_param(IS_TIM_OCIDLE_STATE(OC_Config->OCIdleState));

    /* Reset the Output Compare IDLE State */
    tmpcr2 &= ~TIM_CR2_OIS4;
 80021ec:	697b      	ldr	r3, [r7, #20]
 80021ee:	4a15      	ldr	r2, [pc, #84]	; (8002244 <TIM_OC4_SetConfig+0xd0>)
 80021f0:	4013      	ands	r3, r2
 80021f2:	617b      	str	r3, [r7, #20]

    /* Set the Output Idle state */
    tmpcr2 |= (OC_Config->OCIdleState << 6U);
 80021f4:	683b      	ldr	r3, [r7, #0]
 80021f6:	695b      	ldr	r3, [r3, #20]
 80021f8:	019b      	lsls	r3, r3, #6
 80021fa:	697a      	ldr	r2, [r7, #20]
 80021fc:	4313      	orrs	r3, r2
 80021fe:	617b      	str	r3, [r7, #20]
  }

  /* Write to TIMx CR2 */
  TIMx->CR2 = tmpcr2;
 8002200:	687b      	ldr	r3, [r7, #4]
 8002202:	697a      	ldr	r2, [r7, #20]
 8002204:	605a      	str	r2, [r3, #4]

  /* Write to TIMx CCMR2 */
  TIMx->CCMR2 = tmpccmrx;
 8002206:	687b      	ldr	r3, [r7, #4]
 8002208:	68fa      	ldr	r2, [r7, #12]
 800220a:	61da      	str	r2, [r3, #28]

  /* Set the Capture Compare Register value */
  TIMx->CCR4 = OC_Config->Pulse;
 800220c:	683b      	ldr	r3, [r7, #0]
 800220e:	685a      	ldr	r2, [r3, #4]
 8002210:	687b      	ldr	r3, [r7, #4]
 8002212:	641a      	str	r2, [r3, #64]	; 0x40

  /* Write to TIMx CCER */
  TIMx->CCER = tmpccer;
 8002214:	687b      	ldr	r3, [r7, #4]
 8002216:	693a      	ldr	r2, [r7, #16]
 8002218:	621a      	str	r2, [r3, #32]
}
 800221a:	46c0      	nop			; (mov r8, r8)
 800221c:	46bd      	mov	sp, r7
 800221e:	b006      	add	sp, #24
 8002220:	bd80      	pop	{r7, pc}
 8002222:	46c0      	nop			; (mov r8, r8)
 8002224:	ffffefff 	.word	0xffffefff
 8002228:	ffff8fff 	.word	0xffff8fff
 800222c:	fffffcff 	.word	0xfffffcff
 8002230:	ffffdfff 	.word	0xffffdfff
 8002234:	40012c00 	.word	0x40012c00
 8002238:	40014000 	.word	0x40014000
 800223c:	40014400 	.word	0x40014400
 8002240:	40014800 	.word	0x40014800
 8002244:	ffffbfff 	.word	0xffffbfff

08002248 <TIM_TI1_ConfigInputStage>:
  * @param  TIM_ICFilter Specifies the Input Capture Filter.
  *          This parameter must be a value between 0x00 and 0x0F.
  * @retval None
  */
static void TIM_TI1_ConfigInputStage(TIM_TypeDef *TIMx, uint32_t TIM_ICPolarity, uint32_t TIM_ICFilter)
{
 8002248:	b580      	push	{r7, lr}
 800224a:	b086      	sub	sp, #24
 800224c:	af00      	add	r7, sp, #0
 800224e:	60f8      	str	r0, [r7, #12]
 8002250:	60b9      	str	r1, [r7, #8]
 8002252:	607a      	str	r2, [r7, #4]
  uint32_t tmpccmr1;
  uint32_t tmpccer;

  /* Disable the Channel 1: Reset the CC1E Bit */
  tmpccer = TIMx->CCER;
 8002254:	68fb      	ldr	r3, [r7, #12]
 8002256:	6a1b      	ldr	r3, [r3, #32]
 8002258:	617b      	str	r3, [r7, #20]
  TIMx->CCER &= ~TIM_CCER_CC1E;
 800225a:	68fb      	ldr	r3, [r7, #12]
 800225c:	6a1b      	ldr	r3, [r3, #32]
 800225e:	2201      	movs	r2, #1
 8002260:	4393      	bics	r3, r2
 8002262:	001a      	movs	r2, r3
 8002264:	68fb      	ldr	r3, [r7, #12]
 8002266:	621a      	str	r2, [r3, #32]
  tmpccmr1 = TIMx->CCMR1;
 8002268:	68fb      	ldr	r3, [r7, #12]
 800226a:	699b      	ldr	r3, [r3, #24]
 800226c:	613b      	str	r3, [r7, #16]

  /* Set the filter */
  tmpccmr1 &= ~TIM_CCMR1_IC1F;
 800226e:	693b      	ldr	r3, [r7, #16]
 8002270:	22f0      	movs	r2, #240	; 0xf0
 8002272:	4393      	bics	r3, r2
 8002274:	613b      	str	r3, [r7, #16]
  tmpccmr1 |= (TIM_ICFilter << 4U);
 8002276:	687b      	ldr	r3, [r7, #4]
 8002278:	011b      	lsls	r3, r3, #4
 800227a:	693a      	ldr	r2, [r7, #16]
 800227c:	4313      	orrs	r3, r2
 800227e:	613b      	str	r3, [r7, #16]

  /* Select the Polarity and set the CC1E Bit */
  tmpccer &= ~(TIM_CCER_CC1P | TIM_CCER_CC1NP);
 8002280:	697b      	ldr	r3, [r7, #20]
 8002282:	220a      	movs	r2, #10
 8002284:	4393      	bics	r3, r2
 8002286:	617b      	str	r3, [r7, #20]
  tmpccer |= TIM_ICPolarity;
 8002288:	697a      	ldr	r2, [r7, #20]
 800228a:	68bb      	ldr	r3, [r7, #8]
 800228c:	4313      	orrs	r3, r2
 800228e:	617b      	str	r3, [r7, #20]

  /* Write to TIMx CCMR1 and CCER registers */
  TIMx->CCMR1 = tmpccmr1;
 8002290:	68fb      	ldr	r3, [r7, #12]
 8002292:	693a      	ldr	r2, [r7, #16]
 8002294:	619a      	str	r2, [r3, #24]
  TIMx->CCER = tmpccer;
 8002296:	68fb      	ldr	r3, [r7, #12]
 8002298:	697a      	ldr	r2, [r7, #20]
 800229a:	621a      	str	r2, [r3, #32]
}
 800229c:	46c0      	nop			; (mov r8, r8)
 800229e:	46bd      	mov	sp, r7
 80022a0:	b006      	add	sp, #24
 80022a2:	bd80      	pop	{r7, pc}

080022a4 <TIM_TI2_ConfigInputStage>:
  * @param  TIM_ICFilter Specifies the Input Capture Filter.
  *          This parameter must be a value between 0x00 and 0x0F.
  * @retval None
  */
static void TIM_TI2_ConfigInputStage(TIM_TypeDef *TIMx, uint32_t TIM_ICPolarity, uint32_t TIM_ICFilter)
{
 80022a4:	b580      	push	{r7, lr}
 80022a6:	b086      	sub	sp, #24
 80022a8:	af00      	add	r7, sp, #0
 80022aa:	60f8      	str	r0, [r7, #12]
 80022ac:	60b9      	str	r1, [r7, #8]
 80022ae:	607a      	str	r2, [r7, #4]
  uint32_t tmpccmr1;
  uint32_t tmpccer;

  /* Disable the Channel 2: Reset the CC2E Bit */
  TIMx->CCER &= ~TIM_CCER_CC2E;
 80022b0:	68fb      	ldr	r3, [r7, #12]
 80022b2:	6a1b      	ldr	r3, [r3, #32]
 80022b4:	2210      	movs	r2, #16
 80022b6:	4393      	bics	r3, r2
 80022b8:	001a      	movs	r2, r3
 80022ba:	68fb      	ldr	r3, [r7, #12]
 80022bc:	621a      	str	r2, [r3, #32]
  tmpccmr1 = TIMx->CCMR1;
 80022be:	68fb      	ldr	r3, [r7, #12]
 80022c0:	699b      	ldr	r3, [r3, #24]
 80022c2:	617b      	str	r3, [r7, #20]
  tmpccer = TIMx->CCER;
 80022c4:	68fb      	ldr	r3, [r7, #12]
 80022c6:	6a1b      	ldr	r3, [r3, #32]
 80022c8:	613b      	str	r3, [r7, #16]

  /* Set the filter */
  tmpccmr1 &= ~TIM_CCMR1_IC2F;
 80022ca:	697b      	ldr	r3, [r7, #20]
 80022cc:	4a0d      	ldr	r2, [pc, #52]	; (8002304 <TIM_TI2_ConfigInputStage+0x60>)
 80022ce:	4013      	ands	r3, r2
 80022d0:	617b      	str	r3, [r7, #20]
  tmpccmr1 |= (TIM_ICFilter << 12U);
 80022d2:	687b      	ldr	r3, [r7, #4]
 80022d4:	031b      	lsls	r3, r3, #12
 80022d6:	697a      	ldr	r2, [r7, #20]
 80022d8:	4313      	orrs	r3, r2
 80022da:	617b      	str	r3, [r7, #20]

  /* Select the Polarity and set the CC2E Bit */
  tmpccer &= ~(TIM_CCER_CC2P | TIM_CCER_CC2NP);
 80022dc:	693b      	ldr	r3, [r7, #16]
 80022de:	22a0      	movs	r2, #160	; 0xa0
 80022e0:	4393      	bics	r3, r2
 80022e2:	613b      	str	r3, [r7, #16]
  tmpccer |= (TIM_ICPolarity << 4U);
 80022e4:	68bb      	ldr	r3, [r7, #8]
 80022e6:	011b      	lsls	r3, r3, #4
 80022e8:	693a      	ldr	r2, [r7, #16]
 80022ea:	4313      	orrs	r3, r2
 80022ec:	613b      	str	r3, [r7, #16]

  /* Write to TIMx CCMR1 and CCER registers */
  TIMx->CCMR1 = tmpccmr1 ;
 80022ee:	68fb      	ldr	r3, [r7, #12]
 80022f0:	697a      	ldr	r2, [r7, #20]
 80022f2:	619a      	str	r2, [r3, #24]
  TIMx->CCER = tmpccer;
 80022f4:	68fb      	ldr	r3, [r7, #12]
 80022f6:	693a      	ldr	r2, [r7, #16]
 80022f8:	621a      	str	r2, [r3, #32]
}
 80022fa:	46c0      	nop			; (mov r8, r8)
 80022fc:	46bd      	mov	sp, r7
 80022fe:	b006      	add	sp, #24
 8002300:	bd80      	pop	{r7, pc}
 8002302:	46c0      	nop			; (mov r8, r8)
 8002304:	ffff0fff 	.word	0xffff0fff

08002308 <TIM_ITRx_SetConfig>:
  *            @arg TIM_TS_TI2FP2: Filtered Timer Input 2
  *            @arg TIM_TS_ETRF: External Trigger input
  * @retval None
  */
static void TIM_ITRx_SetConfig(TIM_TypeDef *TIMx, uint32_t InputTriggerSource)
{
 8002308:	b580      	push	{r7, lr}
 800230a:	b084      	sub	sp, #16
 800230c:	af00      	add	r7, sp, #0
 800230e:	6078      	str	r0, [r7, #4]
 8002310:	6039      	str	r1, [r7, #0]
  uint32_t tmpsmcr;

  /* Get the TIMx SMCR register value */
  tmpsmcr = TIMx->SMCR;
 8002312:	687b      	ldr	r3, [r7, #4]
 8002314:	689b      	ldr	r3, [r3, #8]
 8002316:	60fb      	str	r3, [r7, #12]
  /* Reset the TS Bits */
  tmpsmcr &= ~TIM_SMCR_TS;
 8002318:	68fb      	ldr	r3, [r7, #12]
 800231a:	2270      	movs	r2, #112	; 0x70
 800231c:	4393      	bics	r3, r2
 800231e:	60fb      	str	r3, [r7, #12]
  /* Set the Input Trigger source and the slave mode*/
  tmpsmcr |= (InputTriggerSource | TIM_SLAVEMODE_EXTERNAL1);
 8002320:	683a      	ldr	r2, [r7, #0]
 8002322:	68fb      	ldr	r3, [r7, #12]
 8002324:	4313      	orrs	r3, r2
 8002326:	2207      	movs	r2, #7
 8002328:	4313      	orrs	r3, r2
 800232a:	60fb      	str	r3, [r7, #12]
  /* Write to TIMx SMCR */
  TIMx->SMCR = tmpsmcr;
 800232c:	687b      	ldr	r3, [r7, #4]
 800232e:	68fa      	ldr	r2, [r7, #12]
 8002330:	609a      	str	r2, [r3, #8]
}
 8002332:	46c0      	nop			; (mov r8, r8)
 8002334:	46bd      	mov	sp, r7
 8002336:	b004      	add	sp, #16
 8002338:	bd80      	pop	{r7, pc}
	...

0800233c <TIM_ETR_SetConfig>:
  *          This parameter must be a value between 0x00 and 0x0F
  * @retval None
  */
void TIM_ETR_SetConfig(TIM_TypeDef *TIMx, uint32_t TIM_ExtTRGPrescaler,
                       uint32_t TIM_ExtTRGPolarity, uint32_t ExtTRGFilter)
{
 800233c:	b580      	push	{r7, lr}
 800233e:	b086      	sub	sp, #24
 8002340:	af00      	add	r7, sp, #0
 8002342:	60f8      	str	r0, [r7, #12]
 8002344:	60b9      	str	r1, [r7, #8]
 8002346:	607a      	str	r2, [r7, #4]
 8002348:	603b      	str	r3, [r7, #0]
  uint32_t tmpsmcr;

  tmpsmcr = TIMx->SMCR;
 800234a:	68fb      	ldr	r3, [r7, #12]
 800234c:	689b      	ldr	r3, [r3, #8]
 800234e:	617b      	str	r3, [r7, #20]

  /* Reset the ETR Bits */
  tmpsmcr &= ~(TIM_SMCR_ETF | TIM_SMCR_ETPS | TIM_SMCR_ECE | TIM_SMCR_ETP);
 8002350:	697b      	ldr	r3, [r7, #20]
 8002352:	4a09      	ldr	r2, [pc, #36]	; (8002378 <TIM_ETR_SetConfig+0x3c>)
 8002354:	4013      	ands	r3, r2
 8002356:	617b      	str	r3, [r7, #20]

  /* Set the Prescaler, the Filter value and the Polarity */
  tmpsmcr |= (uint32_t)(TIM_ExtTRGPrescaler | (TIM_ExtTRGPolarity | (ExtTRGFilter << 8U)));
 8002358:	683b      	ldr	r3, [r7, #0]
 800235a:	021a      	lsls	r2, r3, #8
 800235c:	687b      	ldr	r3, [r7, #4]
 800235e:	431a      	orrs	r2, r3
 8002360:	68bb      	ldr	r3, [r7, #8]
 8002362:	4313      	orrs	r3, r2
 8002364:	697a      	ldr	r2, [r7, #20]
 8002366:	4313      	orrs	r3, r2
 8002368:	617b      	str	r3, [r7, #20]

  /* Write to TIMx SMCR */
  TIMx->SMCR = tmpsmcr;
 800236a:	68fb      	ldr	r3, [r7, #12]
 800236c:	697a      	ldr	r2, [r7, #20]
 800236e:	609a      	str	r2, [r3, #8]
}
 8002370:	46c0      	nop			; (mov r8, r8)
 8002372:	46bd      	mov	sp, r7
 8002374:	b006      	add	sp, #24
 8002376:	bd80      	pop	{r7, pc}
 8002378:	ffff00ff 	.word	0xffff00ff

0800237c <TIM_CCxChannelCmd>:
  * @param  ChannelState specifies the TIM Channel CCxE bit new state.
  *          This parameter can be: TIM_CCx_ENABLE or TIM_CCx_DISABLE.
  * @retval None
  */
void TIM_CCxChannelCmd(TIM_TypeDef *TIMx, uint32_t Channel, uint32_t ChannelState)
{
 800237c:	b580      	push	{r7, lr}
 800237e:	b086      	sub	sp, #24
 8002380:	af00      	add	r7, sp, #0
 8002382:	60f8      	str	r0, [r7, #12]
 8002384:	60b9      	str	r1, [r7, #8]
 8002386:	607a      	str	r2, [r7, #4]

  /* Check the parameters */
  assert_param(IS_TIM_CC1_INSTANCE(TIMx));
  assert_param(IS_TIM_CHANNELS(Channel));

  tmp = TIM_CCER_CC1E << (Channel & 0x1FU); /* 0x1FU = 31 bits max shift */
 8002388:	68bb      	ldr	r3, [r7, #8]
 800238a:	221f      	movs	r2, #31
 800238c:	4013      	ands	r3, r2
 800238e:	2201      	movs	r2, #1
 8002390:	409a      	lsls	r2, r3
 8002392:	0013      	movs	r3, r2
 8002394:	617b      	str	r3, [r7, #20]

  /* Reset the CCxE Bit */
  TIMx->CCER &= ~tmp;
 8002396:	68fb      	ldr	r3, [r7, #12]
 8002398:	6a1b      	ldr	r3, [r3, #32]
 800239a:	697a      	ldr	r2, [r7, #20]
 800239c:	43d2      	mvns	r2, r2
 800239e:	401a      	ands	r2, r3
 80023a0:	68fb      	ldr	r3, [r7, #12]
 80023a2:	621a      	str	r2, [r3, #32]

  /* Set or reset the CCxE Bit */
  TIMx->CCER |= (uint32_t)(ChannelState << (Channel & 0x1FU)); /* 0x1FU = 31 bits max shift */
 80023a4:	68fb      	ldr	r3, [r7, #12]
 80023a6:	6a1a      	ldr	r2, [r3, #32]
 80023a8:	68bb      	ldr	r3, [r7, #8]
 80023aa:	211f      	movs	r1, #31
 80023ac:	400b      	ands	r3, r1
 80023ae:	6879      	ldr	r1, [r7, #4]
 80023b0:	4099      	lsls	r1, r3
 80023b2:	000b      	movs	r3, r1
 80023b4:	431a      	orrs	r2, r3
 80023b6:	68fb      	ldr	r3, [r7, #12]
 80023b8:	621a      	str	r2, [r3, #32]
}
 80023ba:	46c0      	nop			; (mov r8, r8)
 80023bc:	46bd      	mov	sp, r7
 80023be:	b006      	add	sp, #24
 80023c0:	bd80      	pop	{r7, pc}
	...

080023c4 <HAL_TIMEx_MasterConfigSynchronization>:
  *         mode.
  * @retval HAL status
  */
HAL_StatusTypeDef HAL_TIMEx_MasterConfigSynchronization(TIM_HandleTypeDef *htim,
                                                        TIM_MasterConfigTypeDef *sMasterConfig)
{
 80023c4:	b580      	push	{r7, lr}
 80023c6:	b084      	sub	sp, #16
 80023c8:	af00      	add	r7, sp, #0
 80023ca:	6078      	str	r0, [r7, #4]
 80023cc:	6039      	str	r1, [r7, #0]
  assert_param(IS_TIM_MASTER_INSTANCE(htim->Instance));
  assert_param(IS_TIM_TRGO_SOURCE(sMasterConfig->MasterOutputTrigger));
  assert_param(IS_TIM_MSM_STATE(sMasterConfig->MasterSlaveMode));

  /* Check input state */
  __HAL_LOCK(htim);
 80023ce:	687b      	ldr	r3, [r7, #4]
 80023d0:	223c      	movs	r2, #60	; 0x3c
 80023d2:	5c9b      	ldrb	r3, [r3, r2]
 80023d4:	2b01      	cmp	r3, #1
 80023d6:	d101      	bne.n	80023dc <HAL_TIMEx_MasterConfigSynchronization+0x18>
 80023d8:	2302      	movs	r3, #2
 80023da:	e047      	b.n	800246c <HAL_TIMEx_MasterConfigSynchronization+0xa8>
 80023dc:	687b      	ldr	r3, [r7, #4]
 80023de:	223c      	movs	r2, #60	; 0x3c
 80023e0:	2101      	movs	r1, #1
 80023e2:	5499      	strb	r1, [r3, r2]

  /* Change the handler state */
  htim->State = HAL_TIM_STATE_BUSY;
 80023e4:	687b      	ldr	r3, [r7, #4]
 80023e6:	223d      	movs	r2, #61	; 0x3d
 80023e8:	2102      	movs	r1, #2
 80023ea:	5499      	strb	r1, [r3, r2]

  /* Get the TIMx CR2 register value */
  tmpcr2 = htim->Instance->CR2;
 80023ec:	687b      	ldr	r3, [r7, #4]
 80023ee:	681b      	ldr	r3, [r3, #0]
 80023f0:	685b      	ldr	r3, [r3, #4]
 80023f2:	60fb      	str	r3, [r7, #12]

  /* Get the TIMx SMCR register value */
  tmpsmcr = htim->Instance->SMCR;
 80023f4:	687b      	ldr	r3, [r7, #4]
 80023f6:	681b      	ldr	r3, [r3, #0]
 80023f8:	689b      	ldr	r3, [r3, #8]
 80023fa:	60bb      	str	r3, [r7, #8]

  /* Reset the MMS Bits */
  tmpcr2 &= ~TIM_CR2_MMS;
 80023fc:	68fb      	ldr	r3, [r7, #12]
 80023fe:	2270      	movs	r2, #112	; 0x70
 8002400:	4393      	bics	r3, r2
 8002402:	60fb      	str	r3, [r7, #12]
  /* Select the TRGO source */
  tmpcr2 |=  sMasterConfig->MasterOutputTrigger;
 8002404:	683b      	ldr	r3, [r7, #0]
 8002406:	681b      	ldr	r3, [r3, #0]
 8002408:	68fa      	ldr	r2, [r7, #12]
 800240a:	4313      	orrs	r3, r2
 800240c:	60fb      	str	r3, [r7, #12]

  /* Update TIMx CR2 */
  htim->Instance->CR2 = tmpcr2;
 800240e:	687b      	ldr	r3, [r7, #4]
 8002410:	681b      	ldr	r3, [r3, #0]
 8002412:	68fa      	ldr	r2, [r7, #12]
 8002414:	605a      	str	r2, [r3, #4]

  if (IS_TIM_SLAVE_INSTANCE(htim->Instance))
 8002416:	687b      	ldr	r3, [r7, #4]
 8002418:	681b      	ldr	r3, [r3, #0]
 800241a:	4a16      	ldr	r2, [pc, #88]	; (8002474 <HAL_TIMEx_MasterConfigSynchronization+0xb0>)
 800241c:	4293      	cmp	r3, r2
 800241e:	d00f      	beq.n	8002440 <HAL_TIMEx_MasterConfigSynchronization+0x7c>
 8002420:	687b      	ldr	r3, [r7, #4]
 8002422:	681a      	ldr	r2, [r3, #0]
 8002424:	2380      	movs	r3, #128	; 0x80
 8002426:	05db      	lsls	r3, r3, #23
 8002428:	429a      	cmp	r2, r3
 800242a:	d009      	beq.n	8002440 <HAL_TIMEx_MasterConfigSynchronization+0x7c>
 800242c:	687b      	ldr	r3, [r7, #4]
 800242e:	681b      	ldr	r3, [r3, #0]
 8002430:	4a11      	ldr	r2, [pc, #68]	; (8002478 <HAL_TIMEx_MasterConfigSynchronization+0xb4>)
 8002432:	4293      	cmp	r3, r2
 8002434:	d004      	beq.n	8002440 <HAL_TIMEx_MasterConfigSynchronization+0x7c>
 8002436:	687b      	ldr	r3, [r7, #4]
 8002438:	681b      	ldr	r3, [r3, #0]
 800243a:	4a10      	ldr	r2, [pc, #64]	; (800247c <HAL_TIMEx_MasterConfigSynchronization+0xb8>)
 800243c:	4293      	cmp	r3, r2
 800243e:	d10c      	bne.n	800245a <HAL_TIMEx_MasterConfigSynchronization+0x96>
  {
    /* Reset the MSM Bit */
    tmpsmcr &= ~TIM_SMCR_MSM;
 8002440:	68bb      	ldr	r3, [r7, #8]
 8002442:	2280      	movs	r2, #128	; 0x80
 8002444:	4393      	bics	r3, r2
 8002446:	60bb      	str	r3, [r7, #8]
    /* Set master mode */
    tmpsmcr |= sMasterConfig->MasterSlaveMode;
 8002448:	683b      	ldr	r3, [r7, #0]
 800244a:	685b      	ldr	r3, [r3, #4]
 800244c:	68ba      	ldr	r2, [r7, #8]
 800244e:	4313      	orrs	r3, r2
 8002450:	60bb      	str	r3, [r7, #8]

    /* Update TIMx SMCR */
    htim->Instance->SMCR = tmpsmcr;
 8002452:	687b      	ldr	r3, [r7, #4]
 8002454:	681b      	ldr	r3, [r3, #0]
 8002456:	68ba      	ldr	r2, [r7, #8]
 8002458:	609a      	str	r2, [r3, #8]
  }

  /* Change the htim state */
  htim->State = HAL_TIM_STATE_READY;
 800245a:	687b      	ldr	r3, [r7, #4]
 800245c:	223d      	movs	r2, #61	; 0x3d
 800245e:	2101      	movs	r1, #1
 8002460:	5499      	strb	r1, [r3, r2]

  __HAL_UNLOCK(htim);
 8002462:	687b      	ldr	r3, [r7, #4]
 8002464:	223c      	movs	r2, #60	; 0x3c
 8002466:	2100      	movs	r1, #0
 8002468:	5499      	strb	r1, [r3, r2]

  return HAL_OK;
 800246a:	2300      	movs	r3, #0
}
 800246c:	0018      	movs	r0, r3
 800246e:	46bd      	mov	sp, r7
 8002470:	b004      	add	sp, #16
 8002472:	bd80      	pop	{r7, pc}
 8002474:	40012c00 	.word	0x40012c00
 8002478:	40000400 	.word	0x40000400
 800247c:	40014000 	.word	0x40014000

08002480 <HAL_TIMEx_ConfigBreakDeadTime>:
  *         interrupt can be enabled by calling the @ref __HAL_TIM_ENABLE_IT macro.
  * @retval HAL status
  */
HAL_StatusTypeDef HAL_TIMEx_ConfigBreakDeadTime(TIM_HandleTypeDef *htim,
                                                TIM_BreakDeadTimeConfigTypeDef *sBreakDeadTimeConfig)
{
 8002480:	b580      	push	{r7, lr}
 8002482:	b084      	sub	sp, #16
 8002484:	af00      	add	r7, sp, #0
 8002486:	6078      	str	r0, [r7, #4]
 8002488:	6039      	str	r1, [r7, #0]
  /* Keep this variable initialized to 0 as it is used to configure BDTR register */
  uint32_t tmpbdtr = 0U;
 800248a:	2300      	movs	r3, #0
 800248c:	60fb      	str	r3, [r7, #12]
  assert_param(IS_TIM_BREAK_STATE(sBreakDeadTimeConfig->BreakState));
  assert_param(IS_TIM_BREAK_POLARITY(sBreakDeadTimeConfig->BreakPolarity));
  assert_param(IS_TIM_AUTOMATIC_OUTPUT_STATE(sBreakDeadTimeConfig->AutomaticOutput));

  /* Check input state */
  __HAL_LOCK(htim);
 800248e:	687b      	ldr	r3, [r7, #4]
 8002490:	223c      	movs	r2, #60	; 0x3c
 8002492:	5c9b      	ldrb	r3, [r3, r2]
 8002494:	2b01      	cmp	r3, #1
 8002496:	d101      	bne.n	800249c <HAL_TIMEx_ConfigBreakDeadTime+0x1c>
 8002498:	2302      	movs	r3, #2
 800249a:	e03e      	b.n	800251a <HAL_TIMEx_ConfigBreakDeadTime+0x9a>
 800249c:	687b      	ldr	r3, [r7, #4]
 800249e:	223c      	movs	r2, #60	; 0x3c
 80024a0:	2101      	movs	r1, #1
 80024a2:	5499      	strb	r1, [r3, r2]

  /* Set the Lock level, the Break enable Bit and the Polarity, the OSSR State,
     the OSSI State, the dead time value and the Automatic Output Enable Bit */

  /* Set the BDTR bits */
  MODIFY_REG(tmpbdtr, TIM_BDTR_DTG, sBreakDeadTimeConfig->DeadTime);
 80024a4:	68fb      	ldr	r3, [r7, #12]
 80024a6:	22ff      	movs	r2, #255	; 0xff
 80024a8:	4393      	bics	r3, r2
 80024aa:	001a      	movs	r2, r3
 80024ac:	683b      	ldr	r3, [r7, #0]
 80024ae:	68db      	ldr	r3, [r3, #12]
 80024b0:	4313      	orrs	r3, r2
 80024b2:	60fb      	str	r3, [r7, #12]
  MODIFY_REG(tmpbdtr, TIM_BDTR_LOCK, sBreakDeadTimeConfig->LockLevel);
 80024b4:	68fb      	ldr	r3, [r7, #12]
 80024b6:	4a1b      	ldr	r2, [pc, #108]	; (8002524 <HAL_TIMEx_ConfigBreakDeadTime+0xa4>)
 80024b8:	401a      	ands	r2, r3
 80024ba:	683b      	ldr	r3, [r7, #0]
 80024bc:	689b      	ldr	r3, [r3, #8]
 80024be:	4313      	orrs	r3, r2
 80024c0:	60fb      	str	r3, [r7, #12]
  MODIFY_REG(tmpbdtr, TIM_BDTR_OSSI, sBreakDeadTimeConfig->OffStateIDLEMode);
 80024c2:	68fb      	ldr	r3, [r7, #12]
 80024c4:	4a18      	ldr	r2, [pc, #96]	; (8002528 <HAL_TIMEx_ConfigBreakDeadTime+0xa8>)
 80024c6:	401a      	ands	r2, r3
 80024c8:	683b      	ldr	r3, [r7, #0]
 80024ca:	685b      	ldr	r3, [r3, #4]
 80024cc:	4313      	orrs	r3, r2
 80024ce:	60fb      	str	r3, [r7, #12]
  MODIFY_REG(tmpbdtr, TIM_BDTR_OSSR, sBreakDeadTimeConfig->OffStateRunMode);
 80024d0:	68fb      	ldr	r3, [r7, #12]
 80024d2:	4a16      	ldr	r2, [pc, #88]	; (800252c <HAL_TIMEx_ConfigBreakDeadTime+0xac>)
 80024d4:	401a      	ands	r2, r3
 80024d6:	683b      	ldr	r3, [r7, #0]
 80024d8:	681b      	ldr	r3, [r3, #0]
 80024da:	4313      	orrs	r3, r2
 80024dc:	60fb      	str	r3, [r7, #12]
  MODIFY_REG(tmpbdtr, TIM_BDTR_BKE, sBreakDeadTimeConfig->BreakState);
 80024de:	68fb      	ldr	r3, [r7, #12]
 80024e0:	4a13      	ldr	r2, [pc, #76]	; (8002530 <HAL_TIMEx_ConfigBreakDeadTime+0xb0>)
 80024e2:	401a      	ands	r2, r3
 80024e4:	683b      	ldr	r3, [r7, #0]
 80024e6:	691b      	ldr	r3, [r3, #16]
 80024e8:	4313      	orrs	r3, r2
 80024ea:	60fb      	str	r3, [r7, #12]
  MODIFY_REG(tmpbdtr, TIM_BDTR_BKP, sBreakDeadTimeConfig->BreakPolarity);
 80024ec:	68fb      	ldr	r3, [r7, #12]
 80024ee:	4a11      	ldr	r2, [pc, #68]	; (8002534 <HAL_TIMEx_ConfigBreakDeadTime+0xb4>)
 80024f0:	401a      	ands	r2, r3
 80024f2:	683b      	ldr	r3, [r7, #0]
 80024f4:	695b      	ldr	r3, [r3, #20]
 80024f6:	4313      	orrs	r3, r2
 80024f8:	60fb      	str	r3, [r7, #12]
  MODIFY_REG(tmpbdtr, TIM_BDTR_AOE, sBreakDeadTimeConfig->AutomaticOutput);
 80024fa:	68fb      	ldr	r3, [r7, #12]
 80024fc:	4a0e      	ldr	r2, [pc, #56]	; (8002538 <HAL_TIMEx_ConfigBreakDeadTime+0xb8>)
 80024fe:	401a      	ands	r2, r3
 8002500:	683b      	ldr	r3, [r7, #0]
 8002502:	69db      	ldr	r3, [r3, #28]
 8002504:	4313      	orrs	r3, r2
 8002506:	60fb      	str	r3, [r7, #12]


  /* Set TIMx_BDTR */
  htim->Instance->BDTR = tmpbdtr;
 8002508:	687b      	ldr	r3, [r7, #4]
 800250a:	681b      	ldr	r3, [r3, #0]
 800250c:	68fa      	ldr	r2, [r7, #12]
 800250e:	645a      	str	r2, [r3, #68]	; 0x44

  __HAL_UNLOCK(htim);
 8002510:	687b      	ldr	r3, [r7, #4]
 8002512:	223c      	movs	r2, #60	; 0x3c
 8002514:	2100      	movs	r1, #0
 8002516:	5499      	strb	r1, [r3, r2]

  return HAL_OK;
 8002518:	2300      	movs	r3, #0
}
 800251a:	0018      	movs	r0, r3
 800251c:	46bd      	mov	sp, r7
 800251e:	b004      	add	sp, #16
 8002520:	bd80      	pop	{r7, pc}
 8002522:	46c0      	nop			; (mov r8, r8)
 8002524:	fffffcff 	.word	0xfffffcff
 8002528:	fffffbff 	.word	0xfffffbff
 800252c:	fffff7ff 	.word	0xfffff7ff
 8002530:	ffffefff 	.word	0xffffefff
 8002534:	ffffdfff 	.word	0xffffdfff
 8002538:	ffffbfff 	.word	0xffffbfff

0800253c <__libc_init_array>:
 800253c:	b570      	push	{r4, r5, r6, lr}
 800253e:	2600      	movs	r6, #0
 8002540:	4d0c      	ldr	r5, [pc, #48]	; (8002574 <__libc_init_array+0x38>)
 8002542:	4c0d      	ldr	r4, [pc, #52]	; (8002578 <__libc_init_array+0x3c>)
 8002544:	1b64      	subs	r4, r4, r5
 8002546:	10a4      	asrs	r4, r4, #2
 8002548:	42a6      	cmp	r6, r4
 800254a:	d109      	bne.n	8002560 <__libc_init_array+0x24>
 800254c:	2600      	movs	r6, #0
 800254e:	f000 f821 	bl	8002594 <_init>
 8002552:	4d0a      	ldr	r5, [pc, #40]	; (800257c <__libc_init_array+0x40>)
 8002554:	4c0a      	ldr	r4, [pc, #40]	; (8002580 <__libc_init_array+0x44>)
 8002556:	1b64      	subs	r4, r4, r5
 8002558:	10a4      	asrs	r4, r4, #2
 800255a:	42a6      	cmp	r6, r4
 800255c:	d105      	bne.n	800256a <__libc_init_array+0x2e>
 800255e:	bd70      	pop	{r4, r5, r6, pc}
 8002560:	00b3      	lsls	r3, r6, #2
 8002562:	58eb      	ldr	r3, [r5, r3]
 8002564:	4798      	blx	r3
 8002566:	3601      	adds	r6, #1
 8002568:	e7ee      	b.n	8002548 <__libc_init_array+0xc>
 800256a:	00b3      	lsls	r3, r6, #2
 800256c:	58eb      	ldr	r3, [r5, r3]
 800256e:	4798      	blx	r3
 8002570:	3601      	adds	r6, #1
 8002572:	e7f2      	b.n	800255a <__libc_init_array+0x1e>
 8002574:	080025dc 	.word	0x080025dc
 8002578:	080025dc 	.word	0x080025dc
 800257c:	080025dc 	.word	0x080025dc
 8002580:	080025e0 	.word	0x080025e0

08002584 <memset>:
 8002584:	0003      	movs	r3, r0
 8002586:	1812      	adds	r2, r2, r0
 8002588:	4293      	cmp	r3, r2
 800258a:	d100      	bne.n	800258e <memset+0xa>
 800258c:	4770      	bx	lr
 800258e:	7019      	strb	r1, [r3, #0]
 8002590:	3301      	adds	r3, #1
 8002592:	e7f9      	b.n	8002588 <memset+0x4>

08002594 <_init>:
 8002594:	b5f8      	push	{r3, r4, r5, r6, r7, lr}
 8002596:	46c0      	nop			; (mov r8, r8)
 8002598:	bcf8      	pop	{r3, r4, r5, r6, r7}
 800259a:	bc08      	pop	{r3}
 800259c:	469e      	mov	lr, r3
 800259e:	4770      	bx	lr

080025a0 <_fini>:
 80025a0:	b5f8      	push	{r3, r4, r5, r6, r7, lr}
 80025a2:	46c0      	nop			; (mov r8, r8)
 80025a4:	bcf8      	pop	{r3, r4, r5, r6, r7}
 80025a6:	bc08      	pop	{r3}
 80025a8:	469e      	mov	lr, r3
 80025aa:	4770      	bx	lr
